---
triple:          'arm64-apple-darwin'
binary-path:     '/Users/emily-elizabethhoward/Developer/HyperXTalk/_build/mac/Debug/revzip.bundle/Contents/MacOS/revzip'
relocations:
  - { offset: 0x3F, size: 0x8, addend: 0x0, symName: __ZL15s_zip_container, symObjAddr: 0x47B28, symBinAddr: 0x28660, symSize: 0x0 }
  - { offset: 0x4B40, size: 0x8, addend: 0x0, symName: __ZNSt3__1L19piecewise_constructE, symObjAddr: 0x96C0, symBinAddr: 0x1E440, symSize: 0x0 }
  - { offset: 0x62E3, size: 0x8, addend: 0x0, symName: __ZNSt3__124__put_character_sequenceB8dn200100IcNS_11char_traitsIcEEEERNS_13basic_ostreamIT_T0_EES7_PKS4_m, symObjAddr: 0x7B18, symBinAddr: 0x82E0, symSize: 0x148 }
  - { offset: 0x6E01, size: 0x8, addend: 0x0, symName: __ZNSt3__1neB8dn200100ERKNS_20__map_const_iteratorINS_21__tree_const_iteratorINS_12__value_typeINS_12basic_stringIcNS_11char_traitsIcEENS_9allocatorIcEEEEP3zipEEPNS_11__tree_nodeISB_PvEElEEEESJ_, symObjAddr: 0x1D4, symBinAddr: 0x99C, symSize: 0x2C }
  - { offset: 0x6E3E, size: 0x8, addend: 0x0, symName: __ZNSt3__1plB8dn200100IcNS_11char_traitsIcEENS_9allocatorIcEEEENS_12basic_stringIT_T0_T1_EEPKS6_OS9_, symObjAddr: 0x734, symBinAddr: 0xEFC, symSize: 0x44 }
  - { offset: 0x75E0, size: 0x8, addend: 0x0, symName: __ZNSt3__1lsB8dn200100INS_11char_traitsIcEEEERNS_13basic_ostreamIcT_EES6_PKc, symObjAddr: 0x332C, symBinAddr: 0x3AF4, symSize: 0x48 }
  - { offset: 0x7626, size: 0x8, addend: 0x0, symName: __ZNSt3__14endsB8dn200100IcNS_11char_traitsIcEEEERNS_13basic_ostreamIT_T0_EES7_, symObjAddr: 0x33A0, symBinAddr: 0x3B68, symSize: 0x2C }
  - { offset: 0x7671, size: 0x8, addend: 0x0, symName: __ZNSt3__112__to_addressB8dn200100IKcEEPT_S3_, symObjAddr: 0x4280, symBinAddr: 0x4A48, symSize: 0x14 }
  - { offset: 0x76D9, size: 0x8, addend: 0x0, symName: __ZNSt3__116__is_valid_rangeB8dn200100IcEEbPKT_S3_, symObjAddr: 0x4388, symBinAddr: 0x4B50, symSize: 0x38 }
  - { offset: 0x77C3, size: 0x8, addend: 0x0, symName: __ZNSt3__13maxB8dn200100IPcEERKT_S4_S4_, symObjAddr: 0x45D0, symBinAddr: 0x4D98, symSize: 0x2C }
  - { offset: 0x7806, size: 0x8, addend: 0x0, symName: __ZNSt3__13maxB8dn200100IPcNS_6__lessIvvEEEERKT_S6_S6_T0_, symObjAddr: 0x4768, symBinAddr: 0x4F30, symSize: 0x54 }
  - { offset: 0x7893, size: 0x8, addend: 0x0, symName: __ZNSt3__112__destroy_atB8dn200100INS_4pairIKNS_12basic_stringIcNS_11char_traitsIcEENS_9allocatorIcEEEEP3zipEELi0EEEvPT_, symObjAddr: 0x4BEC, symBinAddr: 0x53B4, symSize: 0x38 }
  - { offset: 0x78CA, size: 0x8, addend: 0x0, symName: __ZNSt3__119__libcpp_deallocateB8dn200100INS_11__tree_nodeINS_12__value_typeINS_12basic_stringIcNS_11char_traitsIcEENS_9allocatorIcEEEEP3zipEEPvEEEEvPNS_15__type_identityIT_E4typeENS_15__element_countEm, symObjAddr: 0x4CC4, symBinAddr: 0x548C, symSize: 0x38 }
  - { offset: 0x7925, size: 0x8, addend: 0x0, symName: __ZNSt3__124__libcpp_operator_deleteB8dn200100IJPNS_11__tree_nodeINS_12__value_typeINS_12basic_stringIcNS_11char_traitsIcEENS_9allocatorIcEEEEP3zipEEPvEEEEEvDpT_, symObjAddr: 0x4CFC, symBinAddr: 0x54C4, symSize: 0x24 }
  - { offset: 0x7958, size: 0x8, addend: 0x0, symName: __ZNSt3__1neB8dn200100ERKNS_15__tree_iteratorINS_12__value_typeINS_12basic_stringIcNS_11char_traitsIcEENS_9allocatorIcEEEEP3zipEEPNS_11__tree_nodeISA_PvEElEESH_, symObjAddr: 0x4F10, symBinAddr: 0x56D8, symSize: 0x30 }
  - { offset: 0x7995, size: 0x8, addend: 0x0, symName: __ZNSt3__1ltB8dn200100IcNS_11char_traitsIcEENS_9allocatorIcEEEEbRKNS_12basic_stringIT_T0_T1_EESB_, symObjAddr: 0x50BC, symBinAddr: 0x5884, symSize: 0x34 }
  - { offset: 0x79ED, size: 0x8, addend: 0x0, symName: __ZNSt3__13minB8dn200100ImEERKT_S3_S3_, symObjAddr: 0x5300, symBinAddr: 0x5AC8, symSize: 0x2C }
  - { offset: 0x7A30, size: 0x8, addend: 0x0, symName: __ZNSt3__13minB8dn200100ImNS_6__lessIvvEEEERKT_S5_S5_T0_, symObjAddr: 0x532C, symBinAddr: 0x5AF4, symSize: 0x54 }
  - { offset: 0x7A8A, size: 0x8, addend: 0x0, symName: __ZNSt3__1eqB8dn200100ERKNS_15__tree_iteratorINS_12__value_typeINS_12basic_stringIcNS_11char_traitsIcEENS_9allocatorIcEEEEP3zipEEPNS_11__tree_nodeISA_PvEElEESH_, symObjAddr: 0x5438, symBinAddr: 0x5C00, symSize: 0x2C }
  - { offset: 0x7AC7, size: 0x8, addend: 0x0, symName: __ZNSt3__118__constexpr_strlenB8dn200100IcEEmPKT_, symObjAddr: 0x5594, symBinAddr: 0x5D5C, symSize: 0x24 }
  - { offset: 0x7AFC, size: 0x8, addend: 0x0, symName: __ZNSt3__1neB8dn200100ERKNS_21__tree_const_iteratorINS_12__value_typeINS_12basic_stringIcNS_11char_traitsIcEENS_9allocatorIcEEEEP3zipEEPNS_11__tree_nodeISA_PvEElEESH_, symObjAddr: 0x5648, symBinAddr: 0x5E10, symSize: 0x30 }
  - { offset: 0x7B39, size: 0x8, addend: 0x0, symName: __ZNSt3__1eqB8dn200100ERKNS_21__tree_const_iteratorINS_12__value_typeINS_12basic_stringIcNS_11char_traitsIcEENS_9allocatorIcEEEEP3zipEEPNS_11__tree_nodeISA_PvEElEESH_, symObjAddr: 0x5678, symBinAddr: 0x5E40, symSize: 0x2C }
  - { offset: 0x7C13, size: 0x8, addend: 0x0, symName: __ZNSt3__116forward_as_tupleB8dn200100IJNS_12basic_stringIcNS_11char_traitsIcEENS_9allocatorIcEEEEEEENS_5tupleIJDpOT_EEESA_, symObjAddr: 0x5944, symBinAddr: 0x610C, symSize: 0x2C }
  - { offset: 0x7C4C, size: 0x8, addend: 0x0, symName: __ZNSt3__116forward_as_tupleB8dn200100IJEEENS_5tupleIJDpOT_EEES4_, symObjAddr: 0x5970, symBinAddr: 0x6138, symSize: 0x4 }
  - { offset: 0x7C8E, size: 0x8, addend: 0x0, symName: __ZNSt3__117__libcpp_allocateB8dn200100INS_11__tree_nodeINS_12__value_typeINS_12basic_stringIcNS_11char_traitsIcEENS_9allocatorIcEEEEP3zipEEPvEEEEPT_NS_15__element_countEm, symObjAddr: 0x5F68, symBinAddr: 0x6730, symSize: 0x34 }
  - { offset: 0x7CDF, size: 0x8, addend: 0x0, symName: __ZNSt3__121__libcpp_operator_newB8dn200100INS_11__tree_nodeINS_12__value_typeINS_12basic_stringIcNS_11char_traitsIcEENS_9allocatorIcEEEEP3zipEEPvEEEESC_m, symObjAddr: 0x5FB0, symBinAddr: 0x6778, symSize: 0x24 }
  - { offset: 0x7D1F, size: 0x8, addend: 0x0, symName: __ZNSt3__13getB8dn200100ILm0EJONS_12basic_stringIcNS_11char_traitsIcEENS_9allocatorIcEEEEEEERNS_13tuple_elementIXT_ENS_5tupleIJDpT0_EEEE4typeERSC_, symObjAddr: 0x61CC, symBinAddr: 0x6994, symSize: 0x24 }
  - { offset: 0x7D61, size: 0x8, addend: 0x0, symName: __ZNSt3__127__tree_balance_after_insertB8dn200100IPNS_16__tree_node_baseIPvEEEEvT_S5_, symObjAddr: 0x6208, symBinAddr: 0x69D0, symSize: 0x284 }
  - { offset: 0x7DDD, size: 0x8, addend: 0x0, symName: __ZNSt3__120__tree_is_left_childB8dn200100IPNS_16__tree_node_baseIPvEEEEbT_, symObjAddr: 0x64BC, symBinAddr: 0x6C84, symSize: 0x28 }
  - { offset: 0x7E12, size: 0x8, addend: 0x0, symName: __ZNSt3__118__tree_left_rotateB8dn200100IPNS_16__tree_node_baseIPvEEEEvT_, symObjAddr: 0x64E4, symBinAddr: 0x6CAC, symSize: 0xF0 }
  - { offset: 0x7E51, size: 0x8, addend: 0x0, symName: __ZNSt3__119__tree_right_rotateB8dn200100IPNS_16__tree_node_baseIPvEEEEvT_, symObjAddr: 0x65D4, symBinAddr: 0x6D9C, symSize: 0xF0 }
  - { offset: 0x7EE8, size: 0x8, addend: 0x0, symName: __ZNSt3__113__tree_removeB8dn200100IPNS_16__tree_node_baseIPvEEEEvT_S5_, symObjAddr: 0x6B88, symBinAddr: 0x7350, symSize: 0x6A0 }
  - { offset: 0x7F66, size: 0x8, addend: 0x0, symName: __ZNSt3__116__tree_next_iterB8dn200100IPNS_15__tree_end_nodeIPNS_16__tree_node_baseIPvEEEES5_EET_T0_, symObjAddr: 0x7228, symBinAddr: 0x79F0, symSize: 0x8C }
  - { offset: 0x7FA4, size: 0x8, addend: 0x0, symName: __ZNSt3__110__tree_minB8dn200100IPNS_16__tree_node_baseIPvEEEET_S5_, symObjAddr: 0x72B4, symBinAddr: 0x7A7C, symSize: 0x58 }
  - { offset: 0x7FD9, size: 0x8, addend: 0x0, symName: __ZNSt3__116__tree_invariantB8dn200100IPNS_16__tree_node_baseIPvEEEEbT_, symObjAddr: 0x730C, symBinAddr: 0x7AD4, symSize: 0xCC }
  - { offset: 0x800E, size: 0x8, addend: 0x0, symName: __ZNSt3__111__tree_nextB8dn200100IPNS_16__tree_node_baseIPvEEEET_S5_, symObjAddr: 0x73D8, symBinAddr: 0x7BA0, symSize: 0x8C }
  - { offset: 0x8043, size: 0x8, addend: 0x0, symName: __ZNSt3__120__tree_sub_invariantIPNS_16__tree_node_baseIPvEEEEjT_, symObjAddr: 0x7464, symBinAddr: 0x7C2C, symSize: 0x1AC }
  - { offset: 0x8086, size: 0x8, addend: 0x0, symName: __ZNSt3__116__pad_and_outputB8dn200100IcNS_11char_traitsIcEEEENS_19ostreambuf_iteratorIT_T0_EES6_PKS4_S8_S8_RNS_8ios_baseES4_, symObjAddr: 0x7C7C, symBinAddr: 0x8444, symSize: 0x1E8 }
  - { offset: 0x8149, size: 0x8, addend: 0x0, symName: __ZNSt3__19use_facetB8dn200100INS_5ctypeIcEEEERKT_RKNS_6localeE, symObjAddr: 0x81A8, symBinAddr: 0x8970, symSize: 0x2C }
  - { offset: 0x8616, size: 0x8, addend: 0x0, symName: __ZNSt3__18distanceB8dn200100IPcEENS_15iterator_traitsIT_E15difference_typeES3_S3_, symObjAddr: 0x846C, symBinAddr: 0x8C34, symSize: 0x2C }
  - { offset: 0x8659, size: 0x8, addend: 0x0, symName: __ZNSt3__110__distanceB8dn200100IPcEENS_15iterator_traitsIT_E15difference_typeES3_S3_NS_26random_access_iterator_tagE, symObjAddr: 0x85B8, symBinAddr: 0x8D80, symSize: 0x20 }
  - { offset: 0x86A6, size: 0x8, addend: 0x0, symName: __ZNSt3__119__allocate_at_leastB8dn200100INS_9allocatorIcEEEENS_19__allocation_resultINS_16allocator_traitsIT_E7pointerEEERS5_m, symObjAddr: 0x8748, symBinAddr: 0x8F10, symSize: 0x40 }
  - { offset: 0x86E9, size: 0x8, addend: 0x0, symName: __ZNSt3__112__to_addressB8dn200100IcEEPT_S2_, symObjAddr: 0x8984, symBinAddr: 0x914C, symSize: 0x14 }
  - { offset: 0x890A, size: 0x8, addend: 0x0, symName: __ZNSt3__120__throw_length_errorB8dn200100EPKc, symObjAddr: 0x8A10, symBinAddr: 0x91D8, symSize: 0x14 }
  - { offset: 0x8965, size: 0x8, addend: 0x0, symName: __ZNSt3__117__libcpp_allocateB8dn200100IcEEPT_NS_15__element_countEm, symObjAddr: 0x8A88, symBinAddr: 0x9250, symSize: 0x34 }
  - { offset: 0x89B6, size: 0x8, addend: 0x0, symName: __ZNSt3__121__libcpp_operator_newB8dn200100IcEEPvm, symObjAddr: 0x8ABC, symBinAddr: 0x9284, symSize: 0x24 }
  - { offset: 0x89EB, size: 0x8, addend: 0x0, symName: __ZNSt3__122__is_overlapping_rangeB8dn200100IccEEbPKT_S3_PKT0_, symObjAddr: 0x8AFC, symBinAddr: 0x92C4, symSize: 0x84 }
  - { offset: 0x8A61, size: 0x8, addend: 0x0, symName: __ZNSt3__121__is_pointer_in_rangeB8dn200100IccLi0EEEbPKT_S3_PKT0_, symObjAddr: 0x8BE0, symBinAddr: 0x93A8, symSize: 0x80 }
  - { offset: 0x8AC1, size: 0x8, addend: 0x0, symName: __ZNSt3__119__constexpr_memmoveB8dn200100IcKcLi0EEEPT_S3_PT0_NS_15__element_countE, symObjAddr: 0x8C60, symBinAddr: 0x9428, symSize: 0x60 }
  - { offset: 0x97B9, size: 0x8, addend: 0x0, symName: __ZSt28__throw_bad_array_new_lengthB8dn200100v, symObjAddr: 0x5F5C, symBinAddr: 0x6724, symSize: 0xC }
  - { offset: 0x9C5C, size: 0x8, addend: 0x0, symName: _g_external_name, symObjAddr: 0x9138, symBinAddr: 0x282D0, symSize: 0x0 }
  - { offset: 0x9C73, size: 0x8, addend: 0x0, symName: _g_external_table, symObjAddr: 0x9140, symBinAddr: 0x282D8, symSize: 0x0 }
  - { offset: 0x9D1B, size: 0x8, addend: 0x0, symName: __ZL19s_progress_callback, symObjAddr: 0x47B40, symBinAddr: 0x28678, symSize: 0x0 }
  - { offset: 0x9D34, size: 0x8, addend: 0x0, symName: __ZL21s_operation_cancelled, symObjAddr: 0x47B48, symBinAddr: 0x28680, symSize: 0x0 }
  - { offset: 0x9D4D, size: 0x8, addend: 0x0, symName: __ZL23s_operation_in_progress, symObjAddr: 0x47B49, symBinAddr: 0x28681, symSize: 0x0 }
  - { offset: 0xA103, size: 0x8, addend: 0x0, symName: ___cxx_global_var_init, symObjAddr: 0x8D00, symBinAddr: 0x94C8, symSize: 0x40 }
  - { offset: 0xA117, size: 0x8, addend: 0x0, symName: __ZNSt3__13mapINS_12basic_stringIcNS_11char_traitsIcEENS_9allocatorIcEEEEP3zipNS_4lessIS6_EENS4_INS_4pairIKS6_S8_EEEEEC1B8dn200100Ev, symObjAddr: 0x0, symBinAddr: 0x7C8, symSize: 0x2C }
  - { offset: 0xA141, size: 0x8, addend: 0x0, symName: __ZNSt3__13mapINS_12basic_stringIcNS_11char_traitsIcEENS_9allocatorIcEEEEP3zipNS_4lessIS6_EENS4_INS_4pairIKS6_S8_EEEEED1B8dn200100Ev, symObjAddr: 0x2C, symBinAddr: 0x7F4, symSize: 0x2C }
  - { offset: 0xA16A, size: 0x8, addend: 0x0, symName: __Z18utilityProcessPathPKc, symObjAddr: 0x58, symBinAddr: 0x820, symSize: 0x2C }
  - { offset: 0xA1A4, size: 0x8, addend: 0x0, symName: __Z16find_zip_by_namePKc, symObjAddr: 0x84, symBinAddr: 0x84C, symSize: 0xA8 }
  - { offset: 0xA1ED, size: 0x8, addend: 0x0, symName: __ZNSt3__13mapINS_12basic_stringIcNS_11char_traitsIcEENS_9allocatorIcEEEEP3zipNS_4lessIS6_EENS4_INS_4pairIKS6_S8_EEEEE4findB8dn200100ERSC_, symObjAddr: 0x12C, symBinAddr: 0x8F4, symSize: 0x40 }
  - { offset: 0xA227, size: 0x8, addend: 0x0, symName: __ZNSt3__112basic_stringIcNS_11char_traitsIcEENS_9allocatorIcEEEC1B8dn200100ILi0EEEPKc, symObjAddr: 0x16C, symBinAddr: 0x934, symSize: 0x34 }
  - { offset: 0xA266, size: 0x8, addend: 0x0, symName: __ZNSt3__120__map_const_iteratorINS_21__tree_const_iteratorINS_12__value_typeINS_12basic_stringIcNS_11char_traitsIcEENS_9allocatorIcEEEEP3zipEEPNS_11__tree_nodeISB_PvEElEEEC1B8dn200100ENS_14__map_iteratorINS_15__tree_iteratorISB_SF_lEEEE, symObjAddr: 0x1A0, symBinAddr: 0x968, symSize: 0x34 }
  - { offset: 0xA29F, size: 0x8, addend: 0x0, symName: __ZNSt3__13mapINS_12basic_stringIcNS_11char_traitsIcEENS_9allocatorIcEEEEP3zipNS_4lessIS6_EENS4_INS_4pairIKS6_S8_EEEEE3endB8dn200100Ev, symObjAddr: 0x200, symBinAddr: 0x9C8, symSize: 0x38 }
  - { offset: 0xA2C5, size: 0x8, addend: 0x0, symName: __ZNKSt3__120__map_const_iteratorINS_21__tree_const_iteratorINS_12__value_typeINS_12basic_stringIcNS_11char_traitsIcEENS_9allocatorIcEEEEP3zipEEPNS_11__tree_nodeISB_PvEElEEEptB8dn200100Ev, symObjAddr: 0x238, symBinAddr: 0xA00, symSize: 0x2C }
  - { offset: 0xA2EA, size: 0x8, addend: 0x0, symName: __Z7imemdupPKvm, symObjAddr: 0x264, symBinAddr: 0xA2C, symSize: 0x40 }
  - { offset: 0xA332, size: 0x8, addend: 0x0, symName: __Z21zip_progress_callbackPvP3zipPKcimmmm, symObjAddr: 0x2A4, symBinAddr: 0xA6C, symSize: 0x17C }
  - { offset: 0xA3F5, size: 0x8, addend: 0x0, symName: __Z17revZipOpenArchivePPciS0_PiS1_, symObjAddr: 0x420, symBinAddr: 0xBE8, symSize: 0x314 }
  - { offset: 0xA4E7, size: 0x8, addend: 0x0, symName: __ZNKSt3__112basic_stringIcNS_11char_traitsIcEENS_9allocatorIcEEE5c_strB8dn200100Ev, symObjAddr: 0x778, symBinAddr: 0xF40, symSize: 0x24 }
  - { offset: 0xA50D, size: 0x8, addend: 0x0, symName: __ZNSt3__13mapINS_12basic_stringIcNS_11char_traitsIcEENS_9allocatorIcEEEEP3zipNS_4lessIS6_EENS4_INS_4pairIKS6_S8_EEEEEixEOS6_, symObjAddr: 0x79C, symBinAddr: 0xF64, symSize: 0xC4 }
  - { offset: 0xA543, size: 0x8, addend: 0x0, symName: __Z18revZipCloseArchivePPciS0_PiS1_, symObjAddr: 0x860, symBinAddr: 0x1028, symSize: 0x29C }
  - { offset: 0xA627, size: 0x8, addend: 0x0, symName: __ZNSt3__13mapINS_12basic_stringIcNS_11char_traitsIcEENS_9allocatorIcEEEEP3zipNS_4lessIS6_EENS4_INS_4pairIKS6_S8_EEEEE5eraseB8dn200100ERSC_, symObjAddr: 0xAFC, symBinAddr: 0x12C4, symSize: 0x2C }
  - { offset: 0xA65B, size: 0x8, addend: 0x0, symName: __Z18revZipOpenArchivesPPciS0_PiS1_, symObjAddr: 0xB28, symBinAddr: 0x12F0, symSize: 0x1A8 }
  - { offset: 0xA731, size: 0x8, addend: 0x0, symName: __ZNSt3__112basic_stringIcNS_11char_traitsIcEENS_9allocatorIcEEEC1B8dn200100Ev, symObjAddr: 0xCD0, symBinAddr: 0x1498, symSize: 0x2C }
  - { offset: 0xA75B, size: 0x8, addend: 0x0, symName: __ZNSt3__13mapINS_12basic_stringIcNS_11char_traitsIcEENS_9allocatorIcEEEEP3zipNS_4lessIS6_EENS4_INS_4pairIKS6_S8_EEEEE5beginB8dn200100Ev, symObjAddr: 0xCFC, symBinAddr: 0x14C4, symSize: 0x38 }
  - { offset: 0xA781, size: 0x8, addend: 0x0, symName: __ZNSt3__112basic_stringIcNS_11char_traitsIcEENS_9allocatorIcEEEpLB8dn200100ERKS5_, symObjAddr: 0xD34, symBinAddr: 0x14FC, symSize: 0x2C }
  - { offset: 0xA7B6, size: 0x8, addend: 0x0, symName: __ZNSt3__112basic_stringIcNS_11char_traitsIcEENS_9allocatorIcEEEpLB8dn200100EPKc, symObjAddr: 0xD60, symBinAddr: 0x1528, symSize: 0x2C }
  - { offset: 0xA7EB, size: 0x8, addend: 0x0, symName: __ZNSt3__120__map_const_iteratorINS_21__tree_const_iteratorINS_12__value_typeINS_12basic_stringIcNS_11char_traitsIcEENS_9allocatorIcEEEEP3zipEEPNS_11__tree_nodeISB_PvEElEEEppB8dn200100Ev, symObjAddr: 0xD8C, symBinAddr: 0x1554, symSize: 0x2C }
  - { offset: 0xA811, size: 0x8, addend: 0x0, symName: __ZNKSt3__112basic_stringIcNS_11char_traitsIcEENS_9allocatorIcEEE5emptyB8dn200100Ev, symObjAddr: 0xDB8, symBinAddr: 0x1580, symSize: 0x2C }
  - { offset: 0xA836, size: 0x8, addend: 0x0, symName: __Z21revZipAddItemWithDataPPciS0_PiS1_, symObjAddr: 0xDE4, symBinAddr: 0x15AC, symSize: 0x4C }
  - { offset: 0xA89D, size: 0x8, addend: 0x0, symName: __ZL35revZipAddItemWithDataAndCompressionPPciS0_PiS1_b, symObjAddr: 0xE30, symBinAddr: 0x15F8, symSize: 0x29C }
  - { offset: 0xA9C2, size: 0x8, addend: 0x0, symName: __Z33revZipAddUncompressedItemWithDataPPciS0_PiS1_, symObjAddr: 0x10CC, symBinAddr: 0x1894, symSize: 0x4C }
  - { offset: 0xAA28, size: 0x8, addend: 0x0, symName: __Z21revZipAddItemWithFilePPciS0_PiS1_, symObjAddr: 0x1118, symBinAddr: 0x18E0, symSize: 0x4C }
  - { offset: 0xAA8F, size: 0x8, addend: 0x0, symName: __ZL35revZipAddItemWithFileAndCompressionPPciS0_PiS1_b, symObjAddr: 0x1164, symBinAddr: 0x192C, symSize: 0x278 }
  - { offset: 0xAB77, size: 0x8, addend: 0x0, symName: __Z33revZipAddUncompressedItemWithFilePPciS0_PiS1_, symObjAddr: 0x13DC, symBinAddr: 0x1BA4, symSize: 0x4C }
  - { offset: 0xABDD, size: 0x8, addend: 0x0, symName: __Z27revZipExtractItemToVariablePPciS0_PiS1_, symObjAddr: 0x1428, symBinAddr: 0x1BF0, symSize: 0x4DC }
  - { offset: 0xAD6E, size: 0x8, addend: 0x0, symName: __Z23revZipExtractItemToFilePPciS0_PiS1_, symObjAddr: 0x1904, symBinAddr: 0x20CC, symSize: 0x49C }
  - { offset: 0xAEB8, size: 0x8, addend: 0x0, symName: __Z25revZipReplaceItemWithFilePPciS0_PiS1_, symObjAddr: 0x1DA0, symBinAddr: 0x2568, symSize: 0x274 }
  - { offset: 0xAFA0, size: 0x8, addend: 0x0, symName: __Z25revZipReplaceItemWithDataPPciS0_PiS1_, symObjAddr: 0x2014, symBinAddr: 0x27DC, symSize: 0x294 }
  - { offset: 0xB0C4, size: 0x8, addend: 0x0, symName: __Z16revZipRenameItemPPciS0_PiS1_, symObjAddr: 0x22A8, symBinAddr: 0x2A70, symSize: 0x210 }
  - { offset: 0xB18C, size: 0x8, addend: 0x0, symName: __Z23revZipGetItemAttributesPPciS0_PiS1_, symObjAddr: 0x24B8, symBinAddr: 0x2C80, symSize: 0x24C }
  - { offset: 0xB283, size: 0x8, addend: 0x0, symName: __Z23revZipSetItemAttributesPPciS0_PiS1_, symObjAddr: 0x2704, symBinAddr: 0x2ECC, symSize: 0x230 }
  - { offset: 0xB379, size: 0x8, addend: 0x0, symName: __Z16revZipDeleteItemPPciS0_PiS1_, symObjAddr: 0x2934, symBinAddr: 0x30FC, symSize: 0x208 }
  - { offset: 0xB441, size: 0x8, addend: 0x0, symName: __Z20revZipEnumerateItemsPPciS0_PiS1_, symObjAddr: 0x2B3C, symBinAddr: 0x3304, symSize: 0x2F0 }
  - { offset: 0xB594, size: 0x8, addend: 0x0, symName: __Z18revZipDescribeItemPPciS0_PiS1_, symObjAddr: 0x2E2C, symBinAddr: 0x35F4, symSize: 0x460 }
  - { offset: 0xB745, size: 0x8, addend: 0x0, symName: __ZNSt3__118basic_stringstreamIcNS_11char_traitsIcEENS_9allocatorIcEEEC1B8dn200100Ev, symObjAddr: 0x328C, symBinAddr: 0x3A54, symSize: 0xA0 }
  - { offset: 0xB76F, size: 0x8, addend: 0x0, symName: __ZNSt3__113basic_ostreamIcNS_11char_traitsIcEEElsB8dn200100EPFRS3_S4_E, symObjAddr: 0x3374, symBinAddr: 0x3B3C, symSize: 0x2C }
  - { offset: 0xB7A3, size: 0x8, addend: 0x0, symName: __ZNKSt3__118basic_stringstreamIcNS_11char_traitsIcEENS_9allocatorIcEEE3strB8dn200100Ev, symObjAddr: 0x33CC, symBinAddr: 0x3B94, symSize: 0x30 }
  - { offset: 0xB7CE, size: 0x8, addend: 0x0, symName: __ZNSt3__118basic_stringstreamIcNS_11char_traitsIcEENS_9allocatorIcEEED1Ev, symObjAddr: 0x33FC, symBinAddr: 0x3BC4, symSize: 0x40 }
  - { offset: 0xB7F9, size: 0x8, addend: 0x0, symName: __Z25revZipSetProgressCallbackPPciS0_PiS1_, symObjAddr: 0x343C, symBinAddr: 0x3C04, symSize: 0x128 }
  - { offset: 0xB87D, size: 0x8, addend: 0x0, symName: __Z12revZipCancelPPciS0_PiS1_, symObjAddr: 0x3564, symBinAddr: 0x3D2C, symSize: 0xE0 }
  - { offset: 0xB902, size: 0x8, addend: 0x0, symName: ___dummy_function, symObjAddr: 0x3644, symBinAddr: 0x3E0C, symSize: 0x14 }
  - { offset: 0xB919, size: 0x8, addend: 0x0, symName: __ZNSt3__118basic_stringstreamIcNS_11char_traitsIcEENS_9allocatorIcEEED2Ev, symObjAddr: 0x3658, symBinAddr: 0x3E20, symSize: 0x6C }
  - { offset: 0xB952, size: 0x8, addend: 0x0, symName: __ZThn16_NSt3__118basic_stringstreamIcNS_11char_traitsIcEENS_9allocatorIcEEED1Ev, symObjAddr: 0x36C4, symBinAddr: 0x3E8C, symSize: 0x1C }
  - { offset: 0xB968, size: 0x8, addend: 0x0, symName: __ZTv0_n24_NSt3__118basic_stringstreamIcNS_11char_traitsIcEENS_9allocatorIcEEED1Ev, symObjAddr: 0x36E0, symBinAddr: 0x3EA8, symSize: 0x28 }
  - { offset: 0xB97E, size: 0x8, addend: 0x0, symName: __ZNSt3__118basic_stringstreamIcNS_11char_traitsIcEENS_9allocatorIcEEED0Ev, symObjAddr: 0x3708, symBinAddr: 0x3ED0, symSize: 0x30 }
  - { offset: 0xB9AA, size: 0x8, addend: 0x0, symName: __ZThn16_NSt3__118basic_stringstreamIcNS_11char_traitsIcEENS_9allocatorIcEEED0Ev, symObjAddr: 0x3738, symBinAddr: 0x3F00, symSize: 0x18 }
  - { offset: 0xB9C0, size: 0x8, addend: 0x0, symName: __ZTv0_n24_NSt3__118basic_stringstreamIcNS_11char_traitsIcEENS_9allocatorIcEEED0Ev, symObjAddr: 0x3750, symBinAddr: 0x3F18, symSize: 0x20 }
  - { offset: 0xB9DB, size: 0x8, addend: 0x0, symName: __ZNSt3__115basic_stringbufIcNS_11char_traitsIcEENS_9allocatorIcEEED1Ev, symObjAddr: 0x3770, symBinAddr: 0x3F38, symSize: 0x2C }
  - { offset: 0xBA07, size: 0x8, addend: 0x0, symName: __ZNSt3__115basic_stringbufIcNS_11char_traitsIcEENS_9allocatorIcEEED2Ev, symObjAddr: 0x379C, symBinAddr: 0x3F64, symSize: 0x48 }
  - { offset: 0xBA33, size: 0x8, addend: 0x0, symName: __ZNSt3__115basic_stringbufIcNS_11char_traitsIcEENS_9allocatorIcEEED0Ev, symObjAddr: 0x37E4, symBinAddr: 0x3FAC, symSize: 0x30 }
  - { offset: 0xBA5F, size: 0x8, addend: 0x0, symName: __ZNSt3__115basic_stringbufIcNS_11char_traitsIcEENS_9allocatorIcEEE7seekoffExNS_8ios_base7seekdirEj, symObjAddr: 0x3814, symBinAddr: 0x3FDC, symSize: 0x2FC }
  - { offset: 0xBAD2, size: 0x8, addend: 0x0, symName: __ZNSt3__115basic_stringbufIcNS_11char_traitsIcEENS_9allocatorIcEEE7seekposENS_4fposI11__mbstate_tEEj, symObjAddr: 0x3B10, symBinAddr: 0x42D8, symSize: 0x60 }
  - { offset: 0xBB17, size: 0x8, addend: 0x0, symName: __ZNSt3__115basic_stringbufIcNS_11char_traitsIcEENS_9allocatorIcEEE9underflowEv, symObjAddr: 0x3B70, symBinAddr: 0x4338, symSize: 0x108 }
  - { offset: 0xBB3F, size: 0x8, addend: 0x0, symName: __ZNSt3__115basic_stringbufIcNS_11char_traitsIcEENS_9allocatorIcEEE9pbackfailEi, symObjAddr: 0x3C78, symBinAddr: 0x4440, symSize: 0x198 }
  - { offset: 0xBB76, size: 0x8, addend: 0x0, symName: __ZNSt3__115basic_stringbufIcNS_11char_traitsIcEENS_9allocatorIcEEE8overflowEi, symObjAddr: 0x3E10, symBinAddr: 0x45D8, symSize: 0x234 }
  - { offset: 0xBC23, size: 0x8, addend: 0x0, symName: __ZNKSt3__115basic_streambufIcNS_11char_traitsIcEEE4pptrB8dn200100Ev, symObjAddr: 0x4044, symBinAddr: 0x480C, symSize: 0x18 }
  - { offset: 0xBC49, size: 0x8, addend: 0x0, symName: __ZNSt3__14fposI11__mbstate_tEC1B8dn200100Ex, symObjAddr: 0x405C, symBinAddr: 0x4824, symSize: 0x34 }
  - { offset: 0xBC81, size: 0x8, addend: 0x0, symName: __ZNKSt3__112basic_stringIcNS_11char_traitsIcEENS_9allocatorIcEEE4dataB8dn200100Ev, symObjAddr: 0x4090, symBinAddr: 0x4858, symSize: 0x28 }
  - { offset: 0xBCA7, size: 0x8, addend: 0x0, symName: __ZNKSt3__115basic_streambufIcNS_11char_traitsIcEEE4gptrB8dn200100Ev, symObjAddr: 0x40B8, symBinAddr: 0x4880, symSize: 0x18 }
  - { offset: 0xBCCD, size: 0x8, addend: 0x0, symName: __ZNKSt3__115basic_streambufIcNS_11char_traitsIcEEE5ebackB8dn200100Ev, symObjAddr: 0x40D0, symBinAddr: 0x4898, symSize: 0x18 }
  - { offset: 0xBCF3, size: 0x8, addend: 0x0, symName: __ZNKSt3__115basic_streambufIcNS_11char_traitsIcEEE5pbaseB8dn200100Ev, symObjAddr: 0x40E8, symBinAddr: 0x48B0, symSize: 0x18 }
  - { offset: 0xBD19, size: 0x8, addend: 0x0, symName: __ZNSt3__115basic_streambufIcNS_11char_traitsIcEEE4setgB8dn200100EPcS4_S4_, symObjAddr: 0x4100, symBinAddr: 0x48C8, symSize: 0xA0 }
  - { offset: 0xBD6C, size: 0x8, addend: 0x0, symName: __ZNSt3__115basic_streambufIcNS_11char_traitsIcEEE4setpB8dn200100EPcS4_, symObjAddr: 0x41A0, symBinAddr: 0x4968, symSize: 0x60 }
  - { offset: 0xBDB0, size: 0x8, addend: 0x0, symName: __ZNKSt3__115basic_streambufIcNS_11char_traitsIcEEE5epptrB8dn200100Ev, symObjAddr: 0x4200, symBinAddr: 0x49C8, symSize: 0x18 }
  - { offset: 0xBDD6, size: 0x8, addend: 0x0, symName: __ZNSt3__115basic_streambufIcNS_11char_traitsIcEEE7__pbumpB8dn200100El, symObjAddr: 0x4218, symBinAddr: 0x49E0, symSize: 0x28 }
  - { offset: 0xBE0B, size: 0x8, addend: 0x0, symName: __ZNSt3__14fposI11__mbstate_tEC2B8dn200100Ex, symObjAddr: 0x4240, symBinAddr: 0x4A08, symSize: 0x40 }
  - { offset: 0xBE43, size: 0x8, addend: 0x0, symName: __ZNKSt3__112basic_stringIcNS_11char_traitsIcEENS_9allocatorIcEEE13__get_pointerB8dn200100Ev, symObjAddr: 0x4294, symBinAddr: 0x4A5C, symSize: 0x54 }
  - { offset: 0xBE69, size: 0x8, addend: 0x0, symName: __ZNKSt3__112basic_stringIcNS_11char_traitsIcEENS_9allocatorIcEEE9__is_longB8dn200100Ev, symObjAddr: 0x42E8, symBinAddr: 0x4AB0, symSize: 0x24 }
  - { offset: 0xBE8F, size: 0x8, addend: 0x0, symName: __ZNKSt3__112basic_stringIcNS_11char_traitsIcEENS_9allocatorIcEEE18__get_long_pointerB8dn200100Ev, symObjAddr: 0x430C, symBinAddr: 0x4AD4, symSize: 0x44 }
  - { offset: 0xBEB5, size: 0x8, addend: 0x0, symName: __ZNKSt3__112basic_stringIcNS_11char_traitsIcEENS_9allocatorIcEEE19__get_short_pointerB8dn200100Ev, symObjAddr: 0x4350, symBinAddr: 0x4B18, symSize: 0x24 }
  - { offset: 0xBEDB, size: 0x8, addend: 0x0, symName: __ZNSt3__114pointer_traitsIPKcE10pointer_toB8dn200100ERS1_, symObjAddr: 0x4374, symBinAddr: 0x4B3C, symSize: 0x14 }
  - { offset: 0xBF12, size: 0x8, addend: 0x0, symName: __ZNKSt3__16__lessIvvEclB8dn200100IPKcS4_EEbRKT_RKT0_, symObjAddr: 0x43C0, symBinAddr: 0x4B88, symSize: 0x30 }
  - { offset: 0xBF66, size: 0x8, addend: 0x0, symName: __ZNKSt3__14fposI11__mbstate_tEcvxB8dn200100Ev, symObjAddr: 0x43F0, symBinAddr: 0x4BB8, symSize: 0x18 }
  - { offset: 0xBF8C, size: 0x8, addend: 0x0, symName: __ZNKSt3__115basic_streambufIcNS_11char_traitsIcEEE5egptrB8dn200100Ev, symObjAddr: 0x4408, symBinAddr: 0x4BD0, symSize: 0x18 }
  - { offset: 0xBFB2, size: 0x8, addend: 0x0, symName: __ZNSt3__111char_traitsIcE11to_int_typeB8dn200100Ec, symObjAddr: 0x4420, symBinAddr: 0x4BE8, symSize: 0x14 }
  - { offset: 0xBFD6, size: 0x8, addend: 0x0, symName: __ZNSt3__111char_traitsIcE3eofB8dn200100Ev, symObjAddr: 0x4434, symBinAddr: 0x4BFC, symSize: 0x8 }
  - { offset: 0xBFEA, size: 0x8, addend: 0x0, symName: __ZNSt3__111char_traitsIcE11eq_int_typeB8dn200100Eii, symObjAddr: 0x443C, symBinAddr: 0x4C04, symSize: 0x24 }
  - { offset: 0xC01D, size: 0x8, addend: 0x0, symName: __ZNSt3__111char_traitsIcE7not_eofB8dn200100Ei, symObjAddr: 0x4460, symBinAddr: 0x4C28, symSize: 0x5C }
  - { offset: 0xC041, size: 0x8, addend: 0x0, symName: __ZNSt3__111char_traitsIcE2eqEcc, symObjAddr: 0x44BC, symBinAddr: 0x4C84, symSize: 0x24 }
  - { offset: 0xC072, size: 0x8, addend: 0x0, symName: __ZNSt3__111char_traitsIcE12to_char_typeB8dn200100Ei, symObjAddr: 0x44E0, symBinAddr: 0x4CA8, symSize: 0x18 }
  - { offset: 0xC096, size: 0x8, addend: 0x0, symName: __ZNSt3__112basic_stringIcNS_11char_traitsIcEENS_9allocatorIcEEE6resizeB8dn200100Em, symObjAddr: 0x44F8, symBinAddr: 0x4CC0, symSize: 0x30 }
  - { offset: 0xC0CB, size: 0x8, addend: 0x0, symName: __ZNKSt3__112basic_stringIcNS_11char_traitsIcEENS_9allocatorIcEEE8capacityB8dn200100Ev, symObjAddr: 0x4528, symBinAddr: 0x4CF0, symSize: 0x54 }
  - { offset: 0xC0F1, size: 0x8, addend: 0x0, symName: __ZNKSt3__112basic_stringIcNS_11char_traitsIcEENS_9allocatorIcEEE4sizeB8dn200100Ev, symObjAddr: 0x457C, symBinAddr: 0x4D44, symSize: 0x54 }
  - { offset: 0xC117, size: 0x8, addend: 0x0, symName: __ZNSt3__115basic_streambufIcNS_11char_traitsIcEEE5sputcB8dn200100Ec, symObjAddr: 0x45FC, symBinAddr: 0x4DC4, symSize: 0x8C }
  - { offset: 0xC14B, size: 0x8, addend: 0x0, symName: __ZNKSt3__112basic_stringIcNS_11char_traitsIcEENS_9allocatorIcEEE14__get_long_capB8dn200100Ev, symObjAddr: 0x4688, symBinAddr: 0x4E50, symSize: 0x4C }
  - { offset: 0xC171, size: 0x8, addend: 0x0, symName: __ZNKSt3__112basic_stringIcNS_11char_traitsIcEENS_9allocatorIcEEE15__get_long_sizeB8dn200100Ev, symObjAddr: 0x46D4, symBinAddr: 0x4E9C, symSize: 0x44 }
  - { offset: 0xC197, size: 0x8, addend: 0x0, symName: __ZNKSt3__112basic_stringIcNS_11char_traitsIcEENS_9allocatorIcEEE16__get_short_sizeB8dn200100Ev, symObjAddr: 0x4718, symBinAddr: 0x4EE0, symSize: 0x50 }
  - { offset: 0xC1C7, size: 0x8, addend: 0x0, symName: __ZNKSt3__16__lessIvvEclB8dn200100IPcS3_EEbRKT_RKT0_, symObjAddr: 0x47BC, symBinAddr: 0x4F84, symSize: 0x30 }
  - { offset: 0xC21B, size: 0x8, addend: 0x0, symName: __ZNSt3__13mapINS_12basic_stringIcNS_11char_traitsIcEENS_9allocatorIcEEEEP3zipNS_4lessIS6_EENS4_INS_4pairIKS6_S8_EEEEEC2B8dn200100Ev, symObjAddr: 0x47EC, symBinAddr: 0x4FB4, symSize: 0x40 }
  - { offset: 0xC245, size: 0x8, addend: 0x0, symName: __ZNSt3__119__map_value_compareINS_12basic_stringIcNS_11char_traitsIcEENS_9allocatorIcEEEENS_12__value_typeIS6_P3zipEENS_4lessIS6_EELb1EEC1B8dn200100ESC_, symObjAddr: 0x482C, symBinAddr: 0x4FF4, symSize: 0x2C }
  - { offset: 0xC27E, size: 0x8, addend: 0x0, symName: __ZNSt3__16__treeINS_12__value_typeINS_12basic_stringIcNS_11char_traitsIcEENS_9allocatorIcEEEEP3zipEENS_19__map_value_compareIS7_SA_NS_4lessIS7_EELb1EEENS5_ISA_EEEC1ERKSE_, symObjAddr: 0x4858, symBinAddr: 0x5020, symSize: 0x34 }
  - { offset: 0xC2B9, size: 0x8, addend: 0x0, symName: __ZNSt3__119__map_value_compareINS_12basic_stringIcNS_11char_traitsIcEENS_9allocatorIcEEEENS_12__value_typeIS6_P3zipEENS_4lessIS6_EELb1EEC2B8dn200100ESC_, symObjAddr: 0x488C, symBinAddr: 0x5054, symSize: 0x14 }
  - { offset: 0xC2F2, size: 0x8, addend: 0x0, symName: __ZNSt3__16__treeINS_12__value_typeINS_12basic_stringIcNS_11char_traitsIcEENS_9allocatorIcEEEEP3zipEENS_19__map_value_compareIS7_SA_NS_4lessIS7_EELb1EEENS5_ISA_EEEC2ERKSE_, symObjAddr: 0x48A0, symBinAddr: 0x5068, symSize: 0x68 }
  - { offset: 0xC32D, size: 0x8, addend: 0x0, symName: __ZNSt3__115__tree_end_nodeIPNS_16__tree_node_baseIPvEEEC1B8dn200100Ev, symObjAddr: 0x4908, symBinAddr: 0x50D0, symSize: 0x2C }
  - { offset: 0xC357, size: 0x8, addend: 0x0, symName: __ZNSt3__19allocatorINS_11__tree_nodeINS_12__value_typeINS_12basic_stringIcNS_11char_traitsIcEENS0_IcEEEEP3zipEEPvEEEC1B8dn200100Ev, symObjAddr: 0x4934, symBinAddr: 0x50FC, symSize: 0x2C }
  - { offset: 0xC381, size: 0x8, addend: 0x0, symName: __ZNSt3__16__treeINS_12__value_typeINS_12basic_stringIcNS_11char_traitsIcEENS_9allocatorIcEEEEP3zipEENS_19__map_value_compareIS7_SA_NS_4lessIS7_EELb1EEENS5_ISA_EEE10__end_nodeB8dn200100Ev, symObjAddr: 0x4960, symBinAddr: 0x5128, symSize: 0x28 }
  - { offset: 0xC3A7, size: 0x8, addend: 0x0, symName: __ZNSt3__16__treeINS_12__value_typeINS_12basic_stringIcNS_11char_traitsIcEENS_9allocatorIcEEEEP3zipEENS_19__map_value_compareIS7_SA_NS_4lessIS7_EELb1EEENS5_ISA_EEE12__begin_nodeB8dn200100Ev, symObjAddr: 0x4988, symBinAddr: 0x5150, symSize: 0x14 }
  - { offset: 0xC3CD, size: 0x8, addend: 0x0, symName: __ZNSt3__115__tree_end_nodeIPNS_16__tree_node_baseIPvEEEC2B8dn200100Ev, symObjAddr: 0x499C, symBinAddr: 0x5164, symSize: 0x18 }
  - { offset: 0xC3F7, size: 0x8, addend: 0x0, symName: __ZNSt3__19allocatorINS_11__tree_nodeINS_12__value_typeINS_12basic_stringIcNS_11char_traitsIcEENS0_IcEEEEP3zipEEPvEEEC2B8dn200100Ev, symObjAddr: 0x49B4, symBinAddr: 0x517C, symSize: 0x2C }
  - { offset: 0xC421, size: 0x8, addend: 0x0, symName: __ZNSt3__116__non_trivial_ifILb1ENS_9allocatorINS_11__tree_nodeINS_12__value_typeINS_12basic_stringIcNS_11char_traitsIcEENS1_IcEEEEP3zipEEPvEEEEEC2B8dn200100Ev, symObjAddr: 0x49E0, symBinAddr: 0x51A8, symSize: 0x14 }
  - { offset: 0xC450, size: 0x8, addend: 0x0, symName: __ZNSt3__114pointer_traitsIPNS_15__tree_end_nodeIPNS_16__tree_node_baseIPvEEEEE10pointer_toB8dn200100ERS6_, symObjAddr: 0x49F4, symBinAddr: 0x51BC, symSize: 0x14 }
  - { offset: 0xC473, size: 0x8, addend: 0x0, symName: __ZNSt3__13mapINS_12basic_stringIcNS_11char_traitsIcEENS_9allocatorIcEEEEP3zipNS_4lessIS6_EENS4_INS_4pairIKS6_S8_EEEEED2B8dn200100Ev, symObjAddr: 0x4A08, symBinAddr: 0x51D0, symSize: 0x2C }
  - { offset: 0xC49D, size: 0x8, addend: 0x0, symName: __ZNSt3__16__treeINS_12__value_typeINS_12basic_stringIcNS_11char_traitsIcEENS_9allocatorIcEEEEP3zipEENS_19__map_value_compareIS7_SA_NS_4lessIS7_EELb1EEENS5_ISA_EEED1Ev, symObjAddr: 0x4A34, symBinAddr: 0x51FC, symSize: 0x2C }
  - { offset: 0xC4C9, size: 0x8, addend: 0x0, symName: __ZNSt3__16__treeINS_12__value_typeINS_12basic_stringIcNS_11char_traitsIcEENS_9allocatorIcEEEEP3zipEENS_19__map_value_compareIS7_SA_NS_4lessIS7_EELb1EEENS5_ISA_EEED2Ev, symObjAddr: 0x4A60, symBinAddr: 0x5228, symSize: 0x38 }
  - { offset: 0xC4F5, size: 0x8, addend: 0x0, symName: __ZNSt3__16__treeINS_12__value_typeINS_12basic_stringIcNS_11char_traitsIcEENS_9allocatorIcEEEEP3zipEENS_19__map_value_compareIS7_SA_NS_4lessIS7_EELb1EEENS5_ISA_EEE7destroyEPNS_11__tree_nodeISA_PvEE, symObjAddr: 0x4A98, symBinAddr: 0x5260, symSize: 0x94 }
  - { offset: 0xC549, size: 0x8, addend: 0x0, symName: __ZNKSt3__16__treeINS_12__value_typeINS_12basic_stringIcNS_11char_traitsIcEENS_9allocatorIcEEEEP3zipEENS_19__map_value_compareIS7_SA_NS_4lessIS7_EELb1EEENS5_ISA_EEE6__rootB8dn200100Ev, symObjAddr: 0x4B2C, symBinAddr: 0x52F4, symSize: 0x28 }
  - { offset: 0xC56F, size: 0x8, addend: 0x0, symName: __ZNSt3__16__treeINS_12__value_typeINS_12basic_stringIcNS_11char_traitsIcEENS_9allocatorIcEEEEP3zipEENS_19__map_value_compareIS7_SA_NS_4lessIS7_EELb1EEENS5_ISA_EEE12__node_allocB8dn200100Ev, symObjAddr: 0x4B54, symBinAddr: 0x531C, symSize: 0x18 }
  - { offset: 0xC595, size: 0x8, addend: 0x0, symName: __ZNSt3__116allocator_traitsINS_9allocatorINS_11__tree_nodeINS_12__value_typeINS_12basic_stringIcNS_11char_traitsIcEENS1_IcEEEEP3zipEEPvEEEEE7destroyB8dn200100INS_4pairIKS8_SA_EEvLi0EEEvRSE_PT_, symObjAddr: 0x4B6C, symBinAddr: 0x5334, symSize: 0x28 }
  - { offset: 0xC5D5, size: 0x8, addend: 0x0, symName: __ZNSt3__122__tree_key_value_typesINS_12__value_typeINS_12basic_stringIcNS_11char_traitsIcEENS_9allocatorIcEEEEP3zipEEE9__get_ptrB8dn200100ERSA_, symObjAddr: 0x4B94, symBinAddr: 0x535C, symSize: 0x24 }
  - { offset: 0xC5F9, size: 0x8, addend: 0x0, symName: __ZNSt3__116allocator_traitsINS_9allocatorINS_11__tree_nodeINS_12__value_typeINS_12basic_stringIcNS_11char_traitsIcEENS1_IcEEEEP3zipEEPvEEEEE10deallocateB8dn200100ERSE_PSD_m, symObjAddr: 0x4BB8, symBinAddr: 0x5380, symSize: 0x34 }
  - { offset: 0xC63B, size: 0x8, addend: 0x0, symName: __ZNSt3__14pairIKNS_12basic_stringIcNS_11char_traitsIcEENS_9allocatorIcEEEEP3zipED1Ev, symObjAddr: 0x4C24, symBinAddr: 0x53EC, symSize: 0x2C }
  - { offset: 0xC667, size: 0x8, addend: 0x0, symName: __ZNSt3__14pairIKNS_12basic_stringIcNS_11char_traitsIcEENS_9allocatorIcEEEEP3zipED2Ev, symObjAddr: 0x4C50, symBinAddr: 0x5418, symSize: 0x2C }
  - { offset: 0xC693, size: 0x8, addend: 0x0, symName: __ZNSt3__112__value_typeINS_12basic_stringIcNS_11char_traitsIcEENS_9allocatorIcEEEEP3zipE11__get_valueB8dn200100Ev, symObjAddr: 0x4C7C, symBinAddr: 0x5444, symSize: 0x14 }
  - { offset: 0xC6B9, size: 0x8, addend: 0x0, symName: __ZNSt3__19allocatorINS_11__tree_nodeINS_12__value_typeINS_12basic_stringIcNS_11char_traitsIcEENS0_IcEEEEP3zipEEPvEEE10deallocateB8dn200100EPSC_m, symObjAddr: 0x4C90, symBinAddr: 0x5458, symSize: 0x34 }
  - { offset: 0xC6FB, size: 0x8, addend: 0x0, symName: __ZNKSt3__16__treeINS_12__value_typeINS_12basic_stringIcNS_11char_traitsIcEENS_9allocatorIcEEEEP3zipEENS_19__map_value_compareIS7_SA_NS_4lessIS7_EELb1EEENS5_ISA_EEE10__end_nodeB8dn200100Ev, symObjAddr: 0x4D20, symBinAddr: 0x54E8, symSize: 0x28 }
  - { offset: 0xC721, size: 0x8, addend: 0x0, symName: __ZNSt3__16__treeINS_12__value_typeINS_12basic_stringIcNS_11char_traitsIcEENS_9allocatorIcEEEEP3zipEENS_19__map_value_compareIS7_SA_NS_4lessIS7_EELb1EEENS5_ISA_EEE4findIS7_EENS_15__tree_iteratorISA_PNS_11__tree_nodeISA_PvEElEERKT_, symObjAddr: 0x4D48, symBinAddr: 0x5510, symSize: 0xF8 }
  - { offset: 0xC76E, size: 0x8, addend: 0x0, symName: __ZNSt3__114__map_iteratorINS_15__tree_iteratorINS_12__value_typeINS_12basic_stringIcNS_11char_traitsIcEENS_9allocatorIcEEEEP3zipEEPNS_11__tree_nodeISB_PvEElEEEC1B8dn200100ESG_, symObjAddr: 0x4E40, symBinAddr: 0x5608, symSize: 0x34 }
  - { offset: 0xC7A7, size: 0x8, addend: 0x0, symName: __ZNSt3__16__treeINS_12__value_typeINS_12basic_stringIcNS_11char_traitsIcEENS_9allocatorIcEEEEP3zipEENS_19__map_value_compareIS7_SA_NS_4lessIS7_EELb1EEENS5_ISA_EEE13__lower_boundIS7_EENS_15__tree_iteratorISA_PNS_11__tree_nodeISA_PvEElEERKT_SM_PNS_15__tree_end_nodeIPNS_16__tree_node_baseISK_EEEE, symObjAddr: 0x4E74, symBinAddr: 0x563C, symSize: 0x9C }
  - { offset: 0xC803, size: 0x8, addend: 0x0, symName: __ZNSt3__16__treeINS_12__value_typeINS_12basic_stringIcNS_11char_traitsIcEENS_9allocatorIcEEEEP3zipEENS_19__map_value_compareIS7_SA_NS_4lessIS7_EELb1EEENS5_ISA_EEE3endB8dn200100Ev, symObjAddr: 0x4F40, symBinAddr: 0x5708, symSize: 0x34 }
  - { offset: 0xC829, size: 0x8, addend: 0x0, symName: __ZNSt3__16__treeINS_12__value_typeINS_12basic_stringIcNS_11char_traitsIcEENS_9allocatorIcEEEEP3zipEENS_19__map_value_compareIS7_SA_NS_4lessIS7_EELb1EEENS5_ISA_EEE10value_compB8dn200100Ev, symObjAddr: 0x4F74, symBinAddr: 0x573C, symSize: 0x18 }
  - { offset: 0xC84F, size: 0x8, addend: 0x0, symName: __ZNKSt3__119__map_value_compareINS_12basic_stringIcNS_11char_traitsIcEENS_9allocatorIcEEEENS_12__value_typeIS6_P3zipEENS_4lessIS6_EELb1EEclB8dn200100ERKS6_RKSA_, symObjAddr: 0x4F8C, symBinAddr: 0x5754, symSize: 0x4C }
  - { offset: 0xC893, size: 0x8, addend: 0x0, symName: __ZNKSt3__115__tree_iteratorINS_12__value_typeINS_12basic_stringIcNS_11char_traitsIcEENS_9allocatorIcEEEEP3zipEEPNS_11__tree_nodeISA_PvEElEdeB8dn200100Ev, symObjAddr: 0x4FD8, symBinAddr: 0x57A0, symSize: 0x28 }
  - { offset: 0xC8B9, size: 0x8, addend: 0x0, symName: __ZNKSt3__119__map_value_compareINS_12basic_stringIcNS_11char_traitsIcEENS_9allocatorIcEEEENS_12__value_typeIS6_P3zipEENS_4lessIS6_EELb1EEclB8dn200100ERKSA_RKS6_, symObjAddr: 0x5000, symBinAddr: 0x57C8, symSize: 0x44 }
  - { offset: 0xC8FD, size: 0x8, addend: 0x0, symName: __ZNSt3__115__tree_iteratorINS_12__value_typeINS_12basic_stringIcNS_11char_traitsIcEENS_9allocatorIcEEEEP3zipEEPNS_11__tree_nodeISA_PvEElEC1B8dn200100EPNS_15__tree_end_nodeIPNS_16__tree_node_baseISC_EEEE, symObjAddr: 0x5044, symBinAddr: 0x580C, symSize: 0x34 }
  - { offset: 0xC936, size: 0x8, addend: 0x0, symName: __ZNKSt3__14lessINS_12basic_stringIcNS_11char_traitsIcEENS_9allocatorIcEEEEEclB8dn200100ERKS6_S9_, symObjAddr: 0x5078, symBinAddr: 0x5840, symSize: 0x30 }
  - { offset: 0xC97A, size: 0x8, addend: 0x0, symName: __ZNKSt3__112__value_typeINS_12basic_stringIcNS_11char_traitsIcEENS_9allocatorIcEEEEP3zipE11__get_valueB8dn200100Ev, symObjAddr: 0x50A8, symBinAddr: 0x5870, symSize: 0x14 }
  - { offset: 0xC9A0, size: 0x8, addend: 0x0, symName: __ZNKSt3__112basic_stringIcNS_11char_traitsIcEENS_9allocatorIcEEE7compareB8dn200100ERKS5_, symObjAddr: 0x50F0, symBinAddr: 0x58B8, symSize: 0x4C }
  - { offset: 0xC9D7, size: 0x8, addend: 0x0, symName: __ZNKSt3__112basic_stringIcNS_11char_traitsIcEENS_9allocatorIcEEE7compareINS_17basic_string_viewIcS2_EELi0EEEiRKT_, symObjAddr: 0x513C, symBinAddr: 0x5904, symSize: 0x110 }
  - { offset: 0xCA58, size: 0x8, addend: 0x0, symName: __ZNKSt3__112basic_stringIcNS_11char_traitsIcEENS_9allocatorIcEEEcvNS_17basic_string_viewIcS2_EEB8dn200100Ev, symObjAddr: 0x524C, symBinAddr: 0x5A14, symSize: 0x50 }
  - { offset: 0xCA7E, size: 0x8, addend: 0x0, symName: __ZNKSt3__117basic_string_viewIcNS_11char_traitsIcEEE4sizeB8dn200100Ev, symObjAddr: 0x529C, symBinAddr: 0x5A64, symSize: 0x18 }
  - { offset: 0xCAA4, size: 0x8, addend: 0x0, symName: __ZNSt3__111char_traitsIcE7compareB8dn200100EPKcS3_m, symObjAddr: 0x52B4, symBinAddr: 0x5A7C, symSize: 0x34 }
  - { offset: 0xCAE3, size: 0x8, addend: 0x0, symName: __ZNKSt3__117basic_string_viewIcNS_11char_traitsIcEEE4dataB8dn200100Ev, symObjAddr: 0x52E8, symBinAddr: 0x5AB0, symSize: 0x18 }
  - { offset: 0xCB13, size: 0x8, addend: 0x0, symName: __ZNKSt3__16__lessIvvEclB8dn200100ImmEEbRKT_RKT0_, symObjAddr: 0x5380, symBinAddr: 0x5B48, symSize: 0x30 }
  - { offset: 0xCB67, size: 0x8, addend: 0x0, symName: __ZNSt3__117basic_string_viewIcNS_11char_traitsIcEEEC1B8dn200100ENS3_14__assume_validEPKcm, symObjAddr: 0x53B0, symBinAddr: 0x5B78, symSize: 0x3C }
  - { offset: 0xCBBB, size: 0x8, addend: 0x0, symName: __ZNSt3__117basic_string_viewIcNS_11char_traitsIcEEEC2B8dn200100ENS3_14__assume_validEPKcm, symObjAddr: 0x53EC, symBinAddr: 0x5BB4, symSize: 0x2C }
  - { offset: 0xCC0F, size: 0x8, addend: 0x0, symName: __ZNSt3__115__tree_iteratorINS_12__value_typeINS_12basic_stringIcNS_11char_traitsIcEENS_9allocatorIcEEEEP3zipEEPNS_11__tree_nodeISA_PvEElEC2B8dn200100EPNS_15__tree_end_nodeIPNS_16__tree_node_baseISC_EEEE, symObjAddr: 0x5418, symBinAddr: 0x5BE0, symSize: 0x20 }
  - { offset: 0xCC48, size: 0x8, addend: 0x0, symName: __ZNKSt3__115__tree_iteratorINS_12__value_typeINS_12basic_stringIcNS_11char_traitsIcEENS_9allocatorIcEEEEP3zipEEPNS_11__tree_nodeISA_PvEElE8__get_npB8dn200100Ev, symObjAddr: 0x5464, symBinAddr: 0x5C2C, symSize: 0x18 }
  - { offset: 0xCC6E, size: 0x8, addend: 0x0, symName: __ZNSt3__114__map_iteratorINS_15__tree_iteratorINS_12__value_typeINS_12basic_stringIcNS_11char_traitsIcEENS_9allocatorIcEEEEP3zipEEPNS_11__tree_nodeISB_PvEElEEEC2B8dn200100ESG_, symObjAddr: 0x547C, symBinAddr: 0x5C44, symSize: 0x20 }
  - { offset: 0xCCA7, size: 0x8, addend: 0x0, symName: __ZNSt3__112basic_stringIcNS_11char_traitsIcEENS_9allocatorIcEEEC2B8dn200100ILi0EEEPKc, symObjAddr: 0x549C, symBinAddr: 0x5C64, symSize: 0x68 }
  - { offset: 0xCCE6, size: 0x8, addend: 0x0, symName: __ZNSt3__19allocatorIcEC1B8dn200100Ev, symObjAddr: 0x5504, symBinAddr: 0x5CCC, symSize: 0x2C }
  - { offset: 0xCD10, size: 0x8, addend: 0x0, symName: __ZNSt3__111char_traitsIcE6lengthB8dn200100EPKc, symObjAddr: 0x5530, symBinAddr: 0x5CF8, symSize: 0x24 }
  - { offset: 0xCD33, size: 0x8, addend: 0x0, symName: __ZNSt3__19allocatorIcEC2B8dn200100Ev, symObjAddr: 0x5554, symBinAddr: 0x5D1C, symSize: 0x2C }
  - { offset: 0xCD5D, size: 0x8, addend: 0x0, symName: __ZNSt3__116__non_trivial_ifILb1ENS_9allocatorIcEEEC2B8dn200100Ev, symObjAddr: 0x5580, symBinAddr: 0x5D48, symSize: 0x14 }
  - { offset: 0xCD87, size: 0x8, addend: 0x0, symName: __ZNSt3__120__map_const_iteratorINS_21__tree_const_iteratorINS_12__value_typeINS_12basic_stringIcNS_11char_traitsIcEENS_9allocatorIcEEEEP3zipEEPNS_11__tree_nodeISB_PvEElEEEC2B8dn200100ENS_14__map_iteratorINS_15__tree_iteratorISB_SF_lEEEE, symObjAddr: 0x55B8, symBinAddr: 0x5D80, symSize: 0x3C }
  - { offset: 0xCDC0, size: 0x8, addend: 0x0, symName: __ZNSt3__121__tree_const_iteratorINS_12__value_typeINS_12basic_stringIcNS_11char_traitsIcEENS_9allocatorIcEEEEP3zipEEPNS_11__tree_nodeISA_PvEElEC1B8dn200100ENS_15__tree_iteratorISA_SE_lEE, symObjAddr: 0x55F4, symBinAddr: 0x5DBC, symSize: 0x34 }
  - { offset: 0xCDF9, size: 0x8, addend: 0x0, symName: __ZNSt3__121__tree_const_iteratorINS_12__value_typeINS_12basic_stringIcNS_11char_traitsIcEENS_9allocatorIcEEEEP3zipEEPNS_11__tree_nodeISA_PvEElEC2B8dn200100ENS_15__tree_iteratorISA_SE_lEE, symObjAddr: 0x5628, symBinAddr: 0x5DF0, symSize: 0x20 }
  - { offset: 0xCE32, size: 0x8, addend: 0x0, symName: __ZNSt3__114pointer_traitsIPKNS_4pairIKNS_12basic_stringIcNS_11char_traitsIcEENS_9allocatorIcEEEEP3zipEEE10pointer_toB8dn200100ERSC_, symObjAddr: 0x56A4, symBinAddr: 0x5E6C, symSize: 0x14 }
  - { offset: 0xCE55, size: 0x8, addend: 0x0, symName: __ZNKSt3__121__tree_const_iteratorINS_12__value_typeINS_12basic_stringIcNS_11char_traitsIcEENS_9allocatorIcEEEEP3zipEEPNS_11__tree_nodeISA_PvEElEptB8dn200100Ev, symObjAddr: 0x56B8, symBinAddr: 0x5E80, symSize: 0x2C }
  - { offset: 0xCE7B, size: 0x8, addend: 0x0, symName: __ZNSt3__114pointer_traitsIPKNS_12__value_typeINS_12basic_stringIcNS_11char_traitsIcEENS_9allocatorIcEEEEP3zipEEE10pointer_toB8dn200100ERSB_, symObjAddr: 0x56E4, symBinAddr: 0x5EAC, symSize: 0x14 }
  - { offset: 0xCE9E, size: 0x8, addend: 0x0, symName: __ZNKSt3__121__tree_const_iteratorINS_12__value_typeINS_12basic_stringIcNS_11char_traitsIcEENS_9allocatorIcEEEEP3zipEEPNS_11__tree_nodeISA_PvEElE8__get_npB8dn200100Ev, symObjAddr: 0x56F8, symBinAddr: 0x5EC0, symSize: 0x18 }
  - { offset: 0xCEC4, size: 0x8, addend: 0x0, symName: __ZNSt3__112basic_stringIcNS_11char_traitsIcEENS_9allocatorIcEEEC1B8dn200100EOS5_, symObjAddr: 0x5710, symBinAddr: 0x5ED8, symSize: 0x34 }
  - { offset: 0xCEFD, size: 0x8, addend: 0x0, symName: __ZNSt3__112basic_stringIcNS_11char_traitsIcEENS_9allocatorIcEEEC2B8dn200100EOS5_, symObjAddr: 0x5744, symBinAddr: 0x5F0C, symSize: 0xA4 }
  - { offset: 0xCF66, size: 0x8, addend: 0x0, symName: __ZZNSt3__112basic_stringIcNS_11char_traitsIcEENS_9allocatorIcEEEC1B8dn200100EOS5_ENKUlRS5_E_clES7_, symObjAddr: 0x57E8, symBinAddr: 0x5FB0, symSize: 0x40 }
  - { offset: 0xCF9F, size: 0x8, addend: 0x0, symName: __ZNKSt3__112basic_stringIcNS_11char_traitsIcEENS_9allocatorIcEEE14__annotate_newB8dn200100Em, symObjAddr: 0x5828, symBinAddr: 0x5FF0, symSize: 0x14 }
  - { offset: 0xCFD4, size: 0x8, addend: 0x0, symName: __ZNKSt3__112basic_stringIcNS_11char_traitsIcEENS_9allocatorIcEEE17__annotate_deleteB8dn200100Ev, symObjAddr: 0x583C, symBinAddr: 0x6004, symSize: 0x10 }
  - { offset: 0xD00E, size: 0x8, addend: 0x0, symName: __ZNSt3__16__treeINS_12__value_typeINS_12basic_stringIcNS_11char_traitsIcEENS_9allocatorIcEEEEP3zipEENS_19__map_value_compareIS7_SA_NS_4lessIS7_EELb1EEENS5_ISA_EEE25__emplace_unique_key_argsIS7_JRKNS_21piecewise_construct_tENS_5tupleIJOS7_EEENSL_IJEEEEEENS_4pairINS_15__tree_iteratorISA_PNS_11__tree_nodeISA_PvEElEEbEERKT_DpOT0_, symObjAddr: 0x584C, symBinAddr: 0x6014, symSize: 0xF8 }
  - { offset: 0xD0E2, size: 0x8, addend: 0x0, symName: __ZNKSt3__115__tree_iteratorINS_12__value_typeINS_12basic_stringIcNS_11char_traitsIcEENS_9allocatorIcEEEEP3zipEEPNS_11__tree_nodeISA_PvEElEptB8dn200100Ev, symObjAddr: 0x5974, symBinAddr: 0x613C, symSize: 0x2C }
  - { offset: 0xD108, size: 0x8, addend: 0x0, symName: __ZNSt3__16__treeINS_12__value_typeINS_12basic_stringIcNS_11char_traitsIcEENS_9allocatorIcEEEEP3zipEENS_19__map_value_compareIS7_SA_NS_4lessIS7_EELb1EEENS5_ISA_EEE12__find_equalIS7_EERPNS_16__tree_node_baseIPvEERPNS_15__tree_end_nodeISL_EERKT_, symObjAddr: 0x59A0, symBinAddr: 0x6168, symSize: 0x16C }
  - { offset: 0xD173, size: 0x8, addend: 0x0, symName: __ZNSt3__16__treeINS_12__value_typeINS_12basic_stringIcNS_11char_traitsIcEENS_9allocatorIcEEEEP3zipEENS_19__map_value_compareIS7_SA_NS_4lessIS7_EELb1EEENS5_ISA_EEE16__construct_nodeIJRKNS_21piecewise_construct_tENS_5tupleIJOS7_EEENSL_IJEEEEEENS_10unique_ptrINS_11__tree_nodeISA_PvEENS_22__tree_node_destructorINS5_ISS_EEEEEEDpOT_, symObjAddr: 0x5B0C, symBinAddr: 0x62D4, symSize: 0x100 }
  - { offset: 0xD1FA, size: 0x8, addend: 0x0, symName: __ZNSt3__16__treeINS_12__value_typeINS_12basic_stringIcNS_11char_traitsIcEENS_9allocatorIcEEEEP3zipEENS_19__map_value_compareIS7_SA_NS_4lessIS7_EELb1EEENS5_ISA_EEE16__insert_node_atEPNS_15__tree_end_nodeIPNS_16__tree_node_baseIPvEEEERSL_SL_, symObjAddr: 0x5C0C, symBinAddr: 0x63D4, symSize: 0xC4 }
  - { offset: 0xD24F, size: 0x8, addend: 0x0, symName: __ZNKSt3__110unique_ptrINS_11__tree_nodeINS_12__value_typeINS_12basic_stringIcNS_11char_traitsIcEENS_9allocatorIcEEEEP3zipEEPvEENS_22__tree_node_destructorINS6_ISD_EEEEE3getB8dn200100Ev, symObjAddr: 0x5CD0, symBinAddr: 0x6498, symSize: 0x18 }
  - { offset: 0xD275, size: 0x8, addend: 0x0, symName: __ZNSt3__110unique_ptrINS_11__tree_nodeINS_12__value_typeINS_12basic_stringIcNS_11char_traitsIcEENS_9allocatorIcEEEEP3zipEEPvEENS_22__tree_node_destructorINS6_ISD_EEEEE7releaseB8dn200100Ev, symObjAddr: 0x5CE8, symBinAddr: 0x64B0, symSize: 0x24 }
  - { offset: 0xD2AA, size: 0x8, addend: 0x0, symName: __ZNSt3__110unique_ptrINS_11__tree_nodeINS_12__value_typeINS_12basic_stringIcNS_11char_traitsIcEENS_9allocatorIcEEEEP3zipEEPvEENS_22__tree_node_destructorINS6_ISD_EEEEED1B8dn200100Ev, symObjAddr: 0x5D0C, symBinAddr: 0x64D4, symSize: 0x2C }
  - { offset: 0xD2D4, size: 0x8, addend: 0x0, symName: __ZNSt3__115__tree_iteratorINS_12__value_typeINS_12basic_stringIcNS_11char_traitsIcEENS_9allocatorIcEEEEP3zipEEPNS_11__tree_nodeISA_PvEElEC1B8dn200100ESE_, symObjAddr: 0x5D38, symBinAddr: 0x6500, symSize: 0x34 }
  - { offset: 0xD312, size: 0x8, addend: 0x0, symName: __ZNSt3__14pairINS_15__tree_iteratorINS_12__value_typeINS_12basic_stringIcNS_11char_traitsIcEENS_9allocatorIcEEEEP3zipEEPNS_11__tree_nodeISB_PvEElEEbEC1B8dn200100ISG_RbLi0EEEOT_OT0_, symObjAddr: 0x5D6C, symBinAddr: 0x6534, symSize: 0x3C }
  - { offset: 0xD370, size: 0x8, addend: 0x0, symName: __ZNKSt3__16__treeINS_12__value_typeINS_12basic_stringIcNS_11char_traitsIcEENS_9allocatorIcEEEEP3zipEENS_19__map_value_compareIS7_SA_NS_4lessIS7_EELb1EEENS5_ISA_EEE10__root_ptrB8dn200100Ev, symObjAddr: 0x5DA8, symBinAddr: 0x6570, symSize: 0x24 }
  - { offset: 0xD396, size: 0x8, addend: 0x0, symName: __ZNSt3__116allocator_traitsINS_9allocatorINS_11__tree_nodeINS_12__value_typeINS_12basic_stringIcNS_11char_traitsIcEENS1_IcEEEEP3zipEEPvEEEEE8allocateB8dn200100ERSE_m, symObjAddr: 0x5DCC, symBinAddr: 0x6594, symSize: 0x2C }
  - { offset: 0xD3C9, size: 0x8, addend: 0x0, symName: __ZNSt3__122__tree_node_destructorINS_9allocatorINS_11__tree_nodeINS_12__value_typeINS_12basic_stringIcNS_11char_traitsIcEENS1_IcEEEEP3zipEEPvEEEEEC1B8dn200100ERSE_b, symObjAddr: 0x5DF8, symBinAddr: 0x65C0, symSize: 0x40 }
  - { offset: 0xD416, size: 0x8, addend: 0x0, symName: __ZNSt3__110unique_ptrINS_11__tree_nodeINS_12__value_typeINS_12basic_stringIcNS_11char_traitsIcEENS_9allocatorIcEEEEP3zipEEPvEENS_22__tree_node_destructorINS6_ISD_EEEEEC1B8dn200100ILb1EvEEPSD_NS_16__dependent_typeINS_27__unique_ptr_deleter_sfinaeISG_EEXT_EE20__good_rval_ref_typeE, symObjAddr: 0x5E38, symBinAddr: 0x6600, symSize: 0x3C }
  - { offset: 0xD467, size: 0x8, addend: 0x0, symName: __ZNSt3__116allocator_traitsINS_9allocatorINS_11__tree_nodeINS_12__value_typeINS_12basic_stringIcNS_11char_traitsIcEENS1_IcEEEEP3zipEEPvEEEEE9constructB8dn200100INS_4pairIKS8_SA_EEJRKNS_21piecewise_construct_tENS_5tupleIJOS8_EEENSN_IJEEEELi0EEEvRSE_PT_DpOT0_, symObjAddr: 0x5E74, symBinAddr: 0x663C, symSize: 0x44 }
  - { offset: 0xD4EB, size: 0x8, addend: 0x0, symName: __ZNKSt3__110unique_ptrINS_11__tree_nodeINS_12__value_typeINS_12basic_stringIcNS_11char_traitsIcEENS_9allocatorIcEEEEP3zipEEPvEENS_22__tree_node_destructorINS6_ISD_EEEEEptB8dn200100Ev, symObjAddr: 0x5EB8, symBinAddr: 0x6680, symSize: 0x18 }
  - { offset: 0xD511, size: 0x8, addend: 0x0, symName: __ZNSt3__110unique_ptrINS_11__tree_nodeINS_12__value_typeINS_12basic_stringIcNS_11char_traitsIcEENS_9allocatorIcEEEEP3zipEEPvEENS_22__tree_node_destructorINS6_ISD_EEEEE11get_deleterB8dn200100Ev, symObjAddr: 0x5ED0, symBinAddr: 0x6698, symSize: 0x18 }
  - { offset: 0xD537, size: 0x8, addend: 0x0, symName: __ZNSt3__19allocatorINS_11__tree_nodeINS_12__value_typeINS_12basic_stringIcNS_11char_traitsIcEENS0_IcEEEEP3zipEEPvEEE8allocateB8dn200100Em, symObjAddr: 0x5EE8, symBinAddr: 0x66B0, symSize: 0x50 }
  - { offset: 0xD575, size: 0x8, addend: 0x0, symName: __ZNSt3__116allocator_traitsINS_9allocatorINS_11__tree_nodeINS_12__value_typeINS_12basic_stringIcNS_11char_traitsIcEENS1_IcEEEEP3zipEEPvEEEEE8max_sizeB8dn200100ISE_Li0EEEmRKSE_, symObjAddr: 0x5F38, symBinAddr: 0x6700, symSize: 0x24 }
  - { offset: 0xD5A8, size: 0x8, addend: 0x0, symName: __ZNKSt3__19allocatorINS_11__tree_nodeINS_12__value_typeINS_12basic_stringIcNS_11char_traitsIcEENS0_IcEEEEP3zipEEPvEEE8max_sizeB8dn200100Ev, symObjAddr: 0x5F9C, symBinAddr: 0x6764, symSize: 0x14 }
  - { offset: 0xD5CE, size: 0x8, addend: 0x0, symName: __ZNSt3__122__tree_node_destructorINS_9allocatorINS_11__tree_nodeINS_12__value_typeINS_12basic_stringIcNS_11char_traitsIcEENS1_IcEEEEP3zipEEPvEEEEEC2B8dn200100ERSE_b, symObjAddr: 0x5FD4, symBinAddr: 0x679C, symSize: 0x30 }
  - { offset: 0xD616, size: 0x8, addend: 0x0, symName: __ZNSt3__110unique_ptrINS_11__tree_nodeINS_12__value_typeINS_12basic_stringIcNS_11char_traitsIcEENS_9allocatorIcEEEEP3zipEEPvEENS_22__tree_node_destructorINS6_ISD_EEEEEC2B8dn200100ILb1EvEEPSD_NS_16__dependent_typeINS_27__unique_ptr_deleter_sfinaeISG_EEXT_EE20__good_rval_ref_typeE, symObjAddr: 0x6004, symBinAddr: 0x67CC, symSize: 0x4C }
  - { offset: 0xD66C, size: 0x8, addend: 0x0, symName: __ZNSt3__125__compressed_pair_paddingINS_22__tree_node_destructorINS_9allocatorINS_11__tree_nodeINS_12__value_typeINS_12basic_stringIcNS_11char_traitsIcEENS2_IcEEEEP3zipEEPvEEEEEELb0EEC1Ev, symObjAddr: 0x6050, symBinAddr: 0x6818, symSize: 0x2C }
  - { offset: 0xD698, size: 0x8, addend: 0x0, symName: __ZNSt3__125__compressed_pair_paddingINS_22__tree_node_destructorINS_9allocatorINS_11__tree_nodeINS_12__value_typeINS_12basic_stringIcNS_11char_traitsIcEENS2_IcEEEEP3zipEEPvEEEEEELb0EEC2Ev, symObjAddr: 0x607C, symBinAddr: 0x6844, symSize: 0x4C }
  - { offset: 0xD6C4, size: 0x8, addend: 0x0, symName: __ZNSt3__19allocatorINS_11__tree_nodeINS_12__value_typeINS_12basic_stringIcNS_11char_traitsIcEENS0_IcEEEEP3zipEEPvEEE9constructB8dn200100INS_4pairIKS7_S9_EEJRKNS_21piecewise_construct_tENS_5tupleIJOS7_EEENSL_IJEEEEEEvPT_DpOT0_, symObjAddr: 0x60C8, symBinAddr: 0x6890, symSize: 0x44 }
  - { offset: 0xD740, size: 0x8, addend: 0x0, symName: __ZNSt3__14pairIKNS_12basic_stringIcNS_11char_traitsIcEENS_9allocatorIcEEEEP3zipEC1B8dn200100IJOS6_EJEEENS_21piecewise_construct_tENS_5tupleIJDpT_EEENSE_IJDpT0_EEE, symObjAddr: 0x610C, symBinAddr: 0x68D4, symSize: 0x3C }
  - { offset: 0xD7A4, size: 0x8, addend: 0x0, symName: __ZNSt3__14pairIKNS_12basic_stringIcNS_11char_traitsIcEENS_9allocatorIcEEEEP3zipEC1B8dn200100IJOS6_EJEJLm0EEJEEENS_21piecewise_construct_tERNS_5tupleIJDpT_EEERNSE_IJDpT0_EEENS_15__tuple_indicesIJXspT1_EEEENSN_IJXspT2_EEEE, symObjAddr: 0x6148, symBinAddr: 0x6910, symSize: 0x3C }
  - { offset: 0xD831, size: 0x8, addend: 0x0, symName: __ZNSt3__14pairIKNS_12basic_stringIcNS_11char_traitsIcEENS_9allocatorIcEEEEP3zipEC2B8dn200100IJOS6_EJEJLm0EEJEEENS_21piecewise_construct_tERNS_5tupleIJDpT_EEERNSE_IJDpT0_EEENS_15__tuple_indicesIJXspT1_EEEENSN_IJXspT2_EEEE, symObjAddr: 0x6184, symBinAddr: 0x694C, symSize: 0x48 }
  - { offset: 0xD8BE, size: 0x8, addend: 0x0, symName: __ZNSt3__112__tuple_leafILm0EONS_12basic_stringIcNS_11char_traitsIcEENS_9allocatorIcEEEELb0EE3getB8dn200100Ev, symObjAddr: 0x61F0, symBinAddr: 0x69B8, symSize: 0x18 }
  - { offset: 0xD8E4, size: 0x8, addend: 0x0, symName: __ZNSt3__16__treeINS_12__value_typeINS_12basic_stringIcNS_11char_traitsIcEENS_9allocatorIcEEEEP3zipEENS_19__map_value_compareIS7_SA_NS_4lessIS7_EELb1EEENS5_ISA_EEE4sizeB8dn200100Ev, symObjAddr: 0x648C, symBinAddr: 0x6C54, symSize: 0x18 }
  - { offset: 0xD90A, size: 0x8, addend: 0x0, symName: __ZNKSt3__116__tree_node_baseIPvE15__parent_unsafeB8dn200100Ev, symObjAddr: 0x64A4, symBinAddr: 0x6C6C, symSize: 0x18 }
  - { offset: 0xD930, size: 0x8, addend: 0x0, symName: __ZNSt3__116__tree_node_baseIPvE12__set_parentB8dn200100EPS2_, symObjAddr: 0x66C4, symBinAddr: 0x6E8C, symSize: 0x20 }
  - { offset: 0xD965, size: 0x8, addend: 0x0, symName: __ZNSt3__110unique_ptrINS_11__tree_nodeINS_12__value_typeINS_12basic_stringIcNS_11char_traitsIcEENS_9allocatorIcEEEEP3zipEEPvEENS_22__tree_node_destructorINS6_ISD_EEEEED2B8dn200100Ev, symObjAddr: 0x66E4, symBinAddr: 0x6EAC, symSize: 0x30 }
  - { offset: 0xD98F, size: 0x8, addend: 0x0, symName: __ZNSt3__110unique_ptrINS_11__tree_nodeINS_12__value_typeINS_12basic_stringIcNS_11char_traitsIcEENS_9allocatorIcEEEEP3zipEEPvEENS_22__tree_node_destructorINS6_ISD_EEEEE5resetB8dn200100EPSD_, symObjAddr: 0x6714, symBinAddr: 0x6EDC, symSize: 0x58 }
  - { offset: 0xD9D3, size: 0x8, addend: 0x0, symName: __ZNSt3__122__tree_node_destructorINS_9allocatorINS_11__tree_nodeINS_12__value_typeINS_12basic_stringIcNS_11char_traitsIcEENS1_IcEEEEP3zipEEPvEEEEEclB8dn200100EPSD_, symObjAddr: 0x676C, symBinAddr: 0x6F34, symSize: 0x80 }
  - { offset: 0xDA08, size: 0x8, addend: 0x0, symName: __ZNSt3__115__tree_iteratorINS_12__value_typeINS_12basic_stringIcNS_11char_traitsIcEENS_9allocatorIcEEEEP3zipEEPNS_11__tree_nodeISA_PvEElEC2B8dn200100ESE_, symObjAddr: 0x67EC, symBinAddr: 0x6FB4, symSize: 0x20 }
  - { offset: 0xDA41, size: 0x8, addend: 0x0, symName: __ZNSt3__14pairINS_15__tree_iteratorINS_12__value_typeINS_12basic_stringIcNS_11char_traitsIcEENS_9allocatorIcEEEEP3zipEEPNS_11__tree_nodeISB_PvEElEEbEC2B8dn200100ISG_RbLi0EEEOT_OT0_, symObjAddr: 0x680C, symBinAddr: 0x6FD4, symSize: 0x38 }
  - { offset: 0xDA9F, size: 0x8, addend: 0x0, symName: __ZNSt3__15tupleIJONS_12basic_stringIcNS_11char_traitsIcEENS_9allocatorIcEEEEEEC1B8dn200100IJS6_ELi0EEEDpOT_, symObjAddr: 0x6844, symBinAddr: 0x700C, symSize: 0x34 }
  - { offset: 0xDAE9, size: 0x8, addend: 0x0, symName: __ZNSt3__15tupleIJONS_12basic_stringIcNS_11char_traitsIcEENS_9allocatorIcEEEEEEC2B8dn200100IJS6_ELi0EEEDpOT_, symObjAddr: 0x6878, symBinAddr: 0x7040, symSize: 0x34 }
  - { offset: 0xDB33, size: 0x8, addend: 0x0, symName: __ZNSt3__112__tuple_implINS_15__tuple_indicesIJLm0EEEEJONS_12basic_stringIcNS_11char_traitsIcEENS_9allocatorIcEEEEEEC1B8dn200100IJLm0EEJS9_EJEJEJS8_EEENS1_IJXspT_EEEENS_13__tuple_typesIJDpT0_EEENS1_IJXspT1_EEEENSD_IJDpT2_EEEDpOT3_, symObjAddr: 0x68AC, symBinAddr: 0x7074, symSize: 0x34 }
  - { offset: 0xDBC8, size: 0x8, addend: 0x0, symName: __ZNSt3__112__tuple_implINS_15__tuple_indicesIJLm0EEEEJONS_12basic_stringIcNS_11char_traitsIcEENS_9allocatorIcEEEEEEC2B8dn200100IJLm0EEJS9_EJEJEJS8_EEENS1_IJXspT_EEEENS_13__tuple_typesIJDpT0_EEENS1_IJXspT1_EEEENSD_IJDpT2_EEEDpOT3_, symObjAddr: 0x68E0, symBinAddr: 0x70A8, symSize: 0x34 }
  - { offset: 0xDC5D, size: 0x8, addend: 0x0, symName: __ZNSt3__112__tuple_leafILm0EONS_12basic_stringIcNS_11char_traitsIcEENS_9allocatorIcEEEELb0EEC2B8dn200100IS6_Li0EEEOT_, symObjAddr: 0x6914, symBinAddr: 0x70DC, symSize: 0x20 }
  - { offset: 0xDCA5, size: 0x8, addend: 0x0, symName: __ZNSt3__114pointer_traitsIPNS_12__value_typeINS_12basic_stringIcNS_11char_traitsIcEENS_9allocatorIcEEEEP3zipEEE10pointer_toB8dn200100ERSA_, symObjAddr: 0x6934, symBinAddr: 0x70FC, symSize: 0x14 }
  - { offset: 0xDCC8, size: 0x8, addend: 0x0, symName: __ZNSt3__16__treeINS_12__value_typeINS_12basic_stringIcNS_11char_traitsIcEENS_9allocatorIcEEEEP3zipEENS_19__map_value_compareIS7_SA_NS_4lessIS7_EELb1EEENS5_ISA_EEE14__erase_uniqueIS7_EEmRKT_, symObjAddr: 0x6948, symBinAddr: 0x7110, symSize: 0xA0 }
  - { offset: 0xDD15, size: 0x8, addend: 0x0, symName: __ZNSt3__16__treeINS_12__value_typeINS_12basic_stringIcNS_11char_traitsIcEENS_9allocatorIcEEEEP3zipEENS_19__map_value_compareIS7_SA_NS_4lessIS7_EELb1EEENS5_ISA_EEE5eraseENS_21__tree_const_iteratorISA_PNS_11__tree_nodeISA_PvEElEE, symObjAddr: 0x69E8, symBinAddr: 0x71B0, symSize: 0x98 }
  - { offset: 0xDD79, size: 0x8, addend: 0x0, symName: __ZNSt3__16__treeINS_12__value_typeINS_12basic_stringIcNS_11char_traitsIcEENS_9allocatorIcEEEEP3zipEENS_19__map_value_compareIS7_SA_NS_4lessIS7_EELb1EEENS5_ISA_EEE21__remove_node_pointerEPNS_11__tree_nodeISA_PvEE, symObjAddr: 0x6A80, symBinAddr: 0x7248, symSize: 0xA8 }
  - { offset: 0xDDBF, size: 0x8, addend: 0x0, symName: __ZNKSt3__121__tree_const_iteratorINS_12__value_typeINS_12basic_stringIcNS_11char_traitsIcEENS_9allocatorIcEEEEP3zipEEPNS_11__tree_nodeISA_PvEElEdeB8dn200100Ev, symObjAddr: 0x6B28, symBinAddr: 0x72F0, symSize: 0x28 }
  - { offset: 0xDDE5, size: 0x8, addend: 0x0, symName: __ZNSt3__115__tree_iteratorINS_12__value_typeINS_12basic_stringIcNS_11char_traitsIcEENS_9allocatorIcEEEEP3zipEEPNS_11__tree_nodeISA_PvEElEppB8dn200100Ev, symObjAddr: 0x6B50, symBinAddr: 0x7318, symSize: 0x38 }
  - { offset: 0xDE0B, size: 0x8, addend: 0x0, symName: __ZNSt3__112basic_stringIcNS_11char_traitsIcEENS_9allocatorIcEEEC2B8dn200100Ev, symObjAddr: 0x7610, symBinAddr: 0x7DD8, symSize: 0x44 }
  - { offset: 0xDE35, size: 0x8, addend: 0x0, symName: __ZNSt3__16__treeINS_12__value_typeINS_12basic_stringIcNS_11char_traitsIcEENS_9allocatorIcEEEEP3zipEENS_19__map_value_compareIS7_SA_NS_4lessIS7_EELb1EEENS5_ISA_EEE5beginB8dn200100Ev, symObjAddr: 0x7654, symBinAddr: 0x7E1C, symSize: 0x34 }
  - { offset: 0xDE5B, size: 0x8, addend: 0x0, symName: __ZNSt3__121__tree_const_iteratorINS_12__value_typeINS_12basic_stringIcNS_11char_traitsIcEENS_9allocatorIcEEEEP3zipEEPNS_11__tree_nodeISA_PvEElEppB8dn200100Ev, symObjAddr: 0x7688, symBinAddr: 0x7E50, symSize: 0x38 }
  - { offset: 0xDE81, size: 0x8, addend: 0x0, symName: __ZNSt3__112basic_stringIcNS_11char_traitsIcEENS_9allocatorIcEEE6appendB8dn200100ERKS5_, symObjAddr: 0x76C0, symBinAddr: 0x7E88, symSize: 0x4C }
  - { offset: 0xDEB6, size: 0x8, addend: 0x0, symName: __ZNSt3__19basic_iosIcNS_11char_traitsIcEEEC2B8dn200100Ev, symObjAddr: 0x770C, symBinAddr: 0x7ED4, symSize: 0x3C }
  - { offset: 0xDEE0, size: 0x8, addend: 0x0, symName: __ZNSt3__114basic_iostreamIcNS_11char_traitsIcEEEC2B8dn200100EPNS_15basic_streambufIcS2_EE, symObjAddr: 0x7748, symBinAddr: 0x7F10, symSize: 0x7C }
  - { offset: 0xDF26, size: 0x8, addend: 0x0, symName: __ZNSt3__115basic_stringbufIcNS_11char_traitsIcEENS_9allocatorIcEEEC1B8dn200100Ej, symObjAddr: 0x77C4, symBinAddr: 0x7F8C, symSize: 0x34 }
  - { offset: 0xDF5F, size: 0x8, addend: 0x0, symName: __ZNSt3__18ios_baseC2B8dn200100Ev, symObjAddr: 0x77F8, symBinAddr: 0x7FC0, symSize: 0x28 }
  - { offset: 0xDF89, size: 0x8, addend: 0x0, symName: __ZNSt3__113basic_istreamIcNS_11char_traitsIcEEEC2B8dn200100EPNS_15basic_streambufIcS2_EE, symObjAddr: 0x7820, symBinAddr: 0x7FE8, symSize: 0x64 }
  - { offset: 0xDFCE, size: 0x8, addend: 0x0, symName: __ZNSt3__113basic_ostreamIcNS_11char_traitsIcEEEC2B8dn200100Ev, symObjAddr: 0x7884, symBinAddr: 0x804C, symSize: 0x34 }
  - { offset: 0xE005, size: 0x8, addend: 0x0, symName: __ZNSt3__19basic_iosIcNS_11char_traitsIcEEE4initB8dn200100EPNS_15basic_streambufIcS2_EE, symObjAddr: 0x78B8, symBinAddr: 0x8080, symSize: 0x40 }
  - { offset: 0xE03C, size: 0x8, addend: 0x0, symName: __ZNSt3__118_SentinelValueFillINS_11char_traitsIcEEE6__initB8dn200100Ev, symObjAddr: 0x78F8, symBinAddr: 0x80C0, symSize: 0x30 }
  - { offset: 0xE062, size: 0x8, addend: 0x0, symName: __ZNSt3__115basic_stringbufIcNS_11char_traitsIcEENS_9allocatorIcEEEC2B8dn200100Ej, symObjAddr: 0x7928, symBinAddr: 0x80F0, symSize: 0x60 }
  - { offset: 0xE09B, size: 0x8, addend: 0x0, symName: __ZNSt3__115basic_stringbufIcNS_11char_traitsIcEENS_9allocatorIcEEE15__init_buf_ptrsB8dn200100Ev, symObjAddr: 0x7988, symBinAddr: 0x8150, symSize: 0x168 }
  - { offset: 0xE0E1, size: 0x8, addend: 0x0, symName: __ZNSt3__115basic_streambufIcNS_11char_traitsIcEEE5pbumpB8dn200100Ei, symObjAddr: 0x7AF0, symBinAddr: 0x82B8, symSize: 0x28 }
  - { offset: 0xE134, size: 0x8, addend: 0x0, symName: __ZNKSt3__113basic_ostreamIcNS_11char_traitsIcEEE6sentrycvbB8dn200100Ev, symObjAddr: 0x7C60, symBinAddr: 0x8428, symSize: 0x1C }
  - { offset: 0xE15A, size: 0x8, addend: 0x0, symName: __ZNSt3__119ostreambuf_iteratorIcNS_11char_traitsIcEEEC1B8dn200100ERNS_13basic_ostreamIcS2_EE, symObjAddr: 0x7E64, symBinAddr: 0x862C, symSize: 0x34 }
  - { offset: 0xE192, size: 0x8, addend: 0x0, symName: __ZNKSt3__18ios_base5flagsB8dn200100Ev, symObjAddr: 0x7E98, symBinAddr: 0x8660, symSize: 0x18 }
  - { offset: 0xE1BA, size: 0x8, addend: 0x0, symName: __ZNKSt3__19basic_iosIcNS_11char_traitsIcEEE4fillB8dn200100Ev, symObjAddr: 0x7EB0, symBinAddr: 0x8678, symSize: 0x64 }
  - { offset: 0xE1E2, size: 0x8, addend: 0x0, symName: __ZNKSt3__119ostreambuf_iteratorIcNS_11char_traitsIcEEE6failedB8dn200100Ev, symObjAddr: 0x7F14, symBinAddr: 0x86DC, symSize: 0x20 }
  - { offset: 0xE208, size: 0x8, addend: 0x0, symName: __ZNSt3__19basic_iosIcNS_11char_traitsIcEEE8setstateB8dn200100Ej, symObjAddr: 0x7F34, symBinAddr: 0x86FC, symSize: 0x2C }
  - { offset: 0xE23D, size: 0x8, addend: 0x0, symName: __ZNKSt3__18ios_base5widthB8dn200100Ev, symObjAddr: 0x7F60, symBinAddr: 0x8728, symSize: 0x18 }
  - { offset: 0xE265, size: 0x8, addend: 0x0, symName: __ZNSt3__115basic_streambufIcNS_11char_traitsIcEEE5sputnB8dn200100EPKcl, symObjAddr: 0x7F78, symBinAddr: 0x8740, symSize: 0x3C }
  - { offset: 0xE2A7, size: 0x8, addend: 0x0, symName: __ZNSt3__112basic_stringIcNS_11char_traitsIcEENS_9allocatorIcEEEC1B8dn200100Emc, symObjAddr: 0x7FB4, symBinAddr: 0x877C, symSize: 0x3C }
  - { offset: 0xE2EF, size: 0x8, addend: 0x0, symName: __ZNSt3__18ios_base5widthB8dn200100El, symObjAddr: 0x7FF0, symBinAddr: 0x87B8, symSize: 0x2C }
  - { offset: 0xE335, size: 0x8, addend: 0x0, symName: __ZNSt3__112basic_stringIcNS_11char_traitsIcEENS_9allocatorIcEEEC2B8dn200100Emc, symObjAddr: 0x801C, symBinAddr: 0x87E4, symSize: 0x44 }
  - { offset: 0xE37D, size: 0x8, addend: 0x0, symName: __ZNSt3__119ostreambuf_iteratorIcNS_11char_traitsIcEEEC2B8dn200100ERNS_13basic_ostreamIcS2_EE, symObjAddr: 0x8060, symBinAddr: 0x8828, symSize: 0x48 }
  - { offset: 0xE3B5, size: 0x8, addend: 0x0, symName: __ZNKSt3__19basic_iosIcNS_11char_traitsIcEEE5rdbufB8dn200100Ev, symObjAddr: 0x80A8, symBinAddr: 0x8870, symSize: 0x24 }
  - { offset: 0xE3DD, size: 0x8, addend: 0x0, symName: __ZNKSt3__18ios_base5rdbufB8dn200100Ev, symObjAddr: 0x80CC, symBinAddr: 0x8894, symSize: 0x18 }
  - { offset: 0xE403, size: 0x8, addend: 0x0, symName: __ZNKSt3__118_SentinelValueFillINS_11char_traitsIcEEE8__is_setB8dn200100Ev, symObjAddr: 0x80E4, symBinAddr: 0x88AC, symSize: 0x38 }
  - { offset: 0xE429, size: 0x8, addend: 0x0, symName: __ZNKSt3__19basic_iosIcNS_11char_traitsIcEEE5widenB8dn200100Ec, symObjAddr: 0x811C, symBinAddr: 0x88E4, symSize: 0x54 }
  - { offset: 0xE460, size: 0x8, addend: 0x0, symName: __ZNSt3__118_SentinelValueFillINS_11char_traitsIcEEEaSB8dn200100Ei, symObjAddr: 0x8170, symBinAddr: 0x8938, symSize: 0x20 }
  - { offset: 0xE495, size: 0x8, addend: 0x0, symName: __ZNKSt3__118_SentinelValueFillINS_11char_traitsIcEEE5__getB8dn200100Ev, symObjAddr: 0x8190, symBinAddr: 0x8958, symSize: 0x18 }
  - { offset: 0xE4F8, size: 0x8, addend: 0x0, symName: __ZNKSt3__15ctypeIcE5widenB8dn200100Ec, symObjAddr: 0x81D4, symBinAddr: 0x899C, symSize: 0x34 }
  - { offset: 0xE52D, size: 0x8, addend: 0x0, symName: __ZNSt3__18ios_base8setstateB8dn200100Ej, symObjAddr: 0x8208, symBinAddr: 0x89D0, symSize: 0x34 }
  - { offset: 0xE564, size: 0x8, addend: 0x0, symName: __ZNKSt3__115basic_stringbufIcNS_11char_traitsIcEENS_9allocatorIcEEE3strEv, symObjAddr: 0x823C, symBinAddr: 0x8A04, symSize: 0x114 }
  - { offset: 0xE58C, size: 0x8, addend: 0x0, symName: __ZNKSt3__112basic_stringIcNS_11char_traitsIcEENS_9allocatorIcEEE13get_allocatorB8dn200100Ev, symObjAddr: 0x8350, symBinAddr: 0x8B18, symSize: 0x10 }
  - { offset: 0xE5B2, size: 0x8, addend: 0x0, symName: __ZNSt3__112basic_stringIcNS_11char_traitsIcEENS_9allocatorIcEEEC1B8dn200100IPcLi0EEET_S8_RKS4_, symObjAddr: 0x8360, symBinAddr: 0x8B28, symSize: 0x44 }
  - { offset: 0xE618, size: 0x8, addend: 0x0, symName: __ZNSt3__112basic_stringIcNS_11char_traitsIcEENS_9allocatorIcEEEC1B8dn200100ERKS4_, symObjAddr: 0x83A4, symBinAddr: 0x8B6C, symSize: 0x34 }
  - { offset: 0xE651, size: 0x8, addend: 0x0, symName: __ZNSt3__112basic_stringIcNS_11char_traitsIcEENS_9allocatorIcEEEC2B8dn200100IPcLi0EEET_S8_RKS4_, symObjAddr: 0x83D8, symBinAddr: 0x8BA0, symSize: 0x40 }
  - { offset: 0xE6B7, size: 0x8, addend: 0x0, symName: __ZNSt3__112basic_stringIcNS_11char_traitsIcEENS_9allocatorIcEEE6__initIPcLi0EEEvT_S8_, symObjAddr: 0x8418, symBinAddr: 0x8BE0, symSize: 0x54 }
  - { offset: 0xE719, size: 0x8, addend: 0x0, symName: __ZNSt3__112basic_stringIcNS_11char_traitsIcEENS_9allocatorIcEEE16__init_with_sizeB8dn200100IPcS7_EEvT_T0_m, symObjAddr: 0x8498, symBinAddr: 0x8C60, symSize: 0x120 }
  - { offset: 0xE7B9, size: 0x8, addend: 0x0, symName: __ZNKSt3__112basic_stringIcNS_11char_traitsIcEENS_9allocatorIcEEE8max_sizeB8dn200100Ev, symObjAddr: 0x85D8, symBinAddr: 0x8DA0, symSize: 0xA4 }
  - { offset: 0xE80B, size: 0x8, addend: 0x0, symName: __ZNSt3__112basic_stringIcNS_11char_traitsIcEENS_9allocatorIcEEE20__throw_length_errorB8dn200100Ev, symObjAddr: 0x867C, symBinAddr: 0x8E44, symSize: 0x14 }
  - { offset: 0xE81F, size: 0x8, addend: 0x0, symName: __ZNSt3__112basic_stringIcNS_11char_traitsIcEENS_9allocatorIcEEE13__fits_in_ssoB8dn200100Em, symObjAddr: 0x8690, symBinAddr: 0x8E58, symSize: 0x1C }
  - { offset: 0xE843, size: 0x8, addend: 0x0, symName: __ZNSt3__112basic_stringIcNS_11char_traitsIcEENS_9allocatorIcEEE16__set_short_sizeB8dn200100Em, symObjAddr: 0x86AC, symBinAddr: 0x8E74, symSize: 0x78 }
  - { offset: 0xE878, size: 0x8, addend: 0x0, symName: __ZNSt3__112basic_stringIcNS_11char_traitsIcEENS_9allocatorIcEEE19__get_short_pointerB8dn200100Ev, symObjAddr: 0x8724, symBinAddr: 0x8EEC, symSize: 0x24 }
  - { offset: 0xE89E, size: 0x8, addend: 0x0, symName: __ZNSt3__112basic_stringIcNS_11char_traitsIcEENS_9allocatorIcEEE11__recommendB8dn200100Em, symObjAddr: 0x8788, symBinAddr: 0x8F50, symSize: 0xA0 }
  - { offset: 0xE8E0, size: 0x8, addend: 0x0, symName: __ZNSt3__112basic_stringIcNS_11char_traitsIcEENS_9allocatorIcEEE16__begin_lifetimeB8dn200100EPcm, symObjAddr: 0x8828, symBinAddr: 0x8FF0, symSize: 0x14 }
  - { offset: 0xE913, size: 0x8, addend: 0x0, symName: __ZNSt3__112basic_stringIcNS_11char_traitsIcEENS_9allocatorIcEEE18__set_long_pointerB8dn200100EPc, symObjAddr: 0x883C, symBinAddr: 0x9004, symSize: 0x20 }
  - { offset: 0xE948, size: 0x8, addend: 0x0, symName: __ZNSt3__112basic_stringIcNS_11char_traitsIcEENS_9allocatorIcEEE14__set_long_capB8dn200100Em, symObjAddr: 0x885C, symBinAddr: 0x9024, symSize: 0x74 }
  - { offset: 0xE97D, size: 0x8, addend: 0x0, symName: __ZNSt3__112basic_stringIcNS_11char_traitsIcEENS_9allocatorIcEEE15__set_long_sizeB8dn200100Em, symObjAddr: 0x88D0, symBinAddr: 0x9098, symSize: 0x20 }
  - { offset: 0xE9B2, size: 0x8, addend: 0x0, symName: __ZNSt3__112basic_stringIcNS_11char_traitsIcEENS_9allocatorIcEEE28__copy_non_overlapping_rangeB8dn200100IPcS7_EES7_T_T0_S7_, symObjAddr: 0x88F0, symBinAddr: 0x90B8, symSize: 0x94 }
  - { offset: 0xEA06, size: 0x8, addend: 0x0, symName: __ZNSt3__111char_traitsIcE6assignB8dn200100ERcRKc, symObjAddr: 0x8998, symBinAddr: 0x9160, symSize: 0x24 }
  - { offset: 0xEA41, size: 0x8, addend: 0x0, symName: __ZNSt3__116allocator_traitsINS_9allocatorIcEEE8max_sizeB8dn200100IS2_Li0EEEmRKS2_, symObjAddr: 0x89BC, symBinAddr: 0x9184, symSize: 0x24 }
  - { offset: 0xEA74, size: 0x8, addend: 0x0, symName: __ZNSt3__114numeric_limitsImE3maxB8dn200100Ev, symObjAddr: 0x89E0, symBinAddr: 0x91A8, symSize: 0x14 }
  - { offset: 0xEA88, size: 0x8, addend: 0x0, symName: __ZNKSt3__19allocatorIcE8max_sizeB8dn200100Ev, symObjAddr: 0x89F4, symBinAddr: 0x91BC, symSize: 0x14 }
  - { offset: 0xEAAE, size: 0x8, addend: 0x0, symName: __ZNSt3__123__libcpp_numeric_limitsImLb1EE3maxB8dn200100Ev, symObjAddr: 0x8A08, symBinAddr: 0x91D0, symSize: 0x8 }
  - { offset: 0xEAC2, size: 0x8, addend: 0x0, symName: __ZNSt3__114pointer_traitsIPcE10pointer_toB8dn200100ERc, symObjAddr: 0x8A24, symBinAddr: 0x91EC, symSize: 0x14 }
  - { offset: 0xEAE5, size: 0x8, addend: 0x0, symName: __ZNSt3__19allocatorIcE8allocateB8dn200100Em, symObjAddr: 0x8A38, symBinAddr: 0x9200, symSize: 0x50 }
  - { offset: 0xEB19, size: 0x8, addend: 0x0, symName: __ZNSt3__112basic_stringIcNS_11char_traitsIcEENS_9allocatorIcEEE10__align_itB8dn200100ILm8EEEmm, symObjAddr: 0x8AE0, symBinAddr: 0x92A8, symSize: 0x1C }
  - { offset: 0xEB47, size: 0x8, addend: 0x0, symName: __ZNSt3__111char_traitsIcE4copyB8dn200100EPcPKcm, symObjAddr: 0x8B80, symBinAddr: 0x9348, symSize: 0x60 }
  - { offset: 0xEB86, size: 0x8, addend: 0x0, symName: __ZNSt3__112basic_stringIcNS_11char_traitsIcEENS_9allocatorIcEEEC2B8dn200100ERKS4_, symObjAddr: 0x8CC0, symBinAddr: 0x9488, symSize: 0x40 }
  - { offset: 0xEBBF, size: 0x8, addend: 0x0, symName: __GLOBAL__sub_I_revzip.cpp, symObjAddr: 0x8D40, symBinAddr: 0x9508, symSize: 0x14 }
  - { offset: 0x1106D, size: 0x8, addend: 0x0, symName: _setExternalInterfaceVersion, symObjAddr: 0x0, symBinAddr: 0x951C, symSize: 0x1C }
  - { offset: 0x11095, size: 0x8, addend: 0x0, symName: _s_external_interface_version, symObjAddr: 0x71D8, symBinAddr: 0x28688, symSize: 0x0 }
  - { offset: 0x110B2, size: 0x8, addend: 0x0, symName: _s_operations, symObjAddr: 0x71E0, symBinAddr: 0x28690, symSize: 0x0 }
  - { offset: 0x11119, size: 0x8, addend: 0x0, symName: _s_delete, symObjAddr: 0x71E8, symBinAddr: 0x28698, symSize: 0x0 }
  - { offset: 0x1114C, size: 0x8, addend: 0x0, symName: _s_security_handlers, symObjAddr: 0x71F0, symBinAddr: 0x286A0, symSize: 0x0 }
  - { offset: 0x11187, size: 0x8, addend: 0x0, symName: _setExternalInterfaceVersion, symObjAddr: 0x0, symBinAddr: 0x951C, symSize: 0x1C }
  - { offset: 0x111AD, size: 0x8, addend: 0x0, symName: _getXtable, symObjAddr: 0x1C, symBinAddr: 0x9538, symSize: 0x6C }
  - { offset: 0x1120F, size: 0x8, addend: 0x0, symName: _configureSecurity, symObjAddr: 0x88, symBinAddr: 0x95A4, symSize: 0x1C }
  - { offset: 0x11235, size: 0x8, addend: 0x0, symName: _SendCardMessage, symObjAddr: 0xA4, symBinAddr: 0x95C0, symSize: 0x64 }
  - { offset: 0x11279, size: 0x8, addend: 0x0, symName: _EvalExpr, symObjAddr: 0x108, symBinAddr: 0x9624, symSize: 0x4C }
  - { offset: 0x112C1, size: 0x8, addend: 0x0, symName: _retstr, symObjAddr: 0x154, symBinAddr: 0x9670, symSize: 0x5C }
  - { offset: 0x11308, size: 0x8, addend: 0x0, symName: _GetGlobal, symObjAddr: 0x1B0, symBinAddr: 0x96CC, symSize: 0x4C }
  - { offset: 0x11350, size: 0x8, addend: 0x0, symName: _SetGlobal, symObjAddr: 0x1FC, symBinAddr: 0x9718, symSize: 0x68 }
  - { offset: 0x113A3, size: 0x8, addend: 0x0, symName: _GetFieldByName, symObjAddr: 0x264, symBinAddr: 0x9780, symSize: 0x50 }
  - { offset: 0x113FA, size: 0x8, addend: 0x0, symName: _GetFieldByNum, symObjAddr: 0x2B4, symBinAddr: 0x97D0, symSize: 0xB0 }
  - { offset: 0x11460, size: 0x8, addend: 0x0, symName: _GetFieldById, symObjAddr: 0x364, symBinAddr: 0x9880, symSize: 0xB0 }
  - { offset: 0x114C6, size: 0x8, addend: 0x0, symName: _SetFieldByName, symObjAddr: 0x414, symBinAddr: 0x9930, symSize: 0x6C }
  - { offset: 0x11528, size: 0x8, addend: 0x0, symName: _SetFieldByNum, symObjAddr: 0x480, symBinAddr: 0x999C, symSize: 0xC4 }
  - { offset: 0x11599, size: 0x8, addend: 0x0, symName: _SetFieldById, symObjAddr: 0x544, symBinAddr: 0x9A60, symSize: 0xC4 }
  - { offset: 0x11611, size: 0x8, addend: 0x0, symName: _ShowImageByName, symObjAddr: 0x608, symBinAddr: 0x9B24, symSize: 0x68 }
  - { offset: 0x11669, size: 0x8, addend: 0x0, symName: _ShowImageByNum, symObjAddr: 0x670, symBinAddr: 0x9B8C, symSize: 0xC0 }
  - { offset: 0x116D1, size: 0x8, addend: 0x0, symName: _ShowImageById, symObjAddr: 0x730, symBinAddr: 0x9C4C, symSize: 0xC0 }
  - { offset: 0x11739, size: 0x8, addend: 0x0, symName: _ShowImageByLongId, symObjAddr: 0x7F0, symBinAddr: 0x9D0C, symSize: 0x68 }
  - { offset: 0x11781, size: 0x8, addend: 0x0, symName: _GetVariable, symObjAddr: 0x858, symBinAddr: 0x9D74, symSize: 0x4C }
  - { offset: 0x117CD, size: 0x8, addend: 0x0, symName: _SetVariable, symObjAddr: 0x8A4, symBinAddr: 0x9DC0, symSize: 0x68 }
  - { offset: 0x11825, size: 0x8, addend: 0x0, symName: _GetVariableEx, symObjAddr: 0x90C, symBinAddr: 0x9E28, symSize: 0x6C }
  - { offset: 0x1188D, size: 0x8, addend: 0x0, symName: _SetVariableEx, symObjAddr: 0x978, symBinAddr: 0x9E94, symSize: 0x6C }
  - { offset: 0x118F5, size: 0x8, addend: 0x0, symName: _GetArray, symObjAddr: 0x9E4, symBinAddr: 0x9F00, symSize: 0xAC }
  - { offset: 0x1197D, size: 0x8, addend: 0x0, symName: _SetArray, symObjAddr: 0xA90, symBinAddr: 0x9FAC, symSize: 0x88 }
  - { offset: 0x11A05, size: 0x8, addend: 0x0, symName: _SecurityCanAccessFile, symObjAddr: 0xB18, symBinAddr: 0xA034, symSize: 0x58 }
  - { offset: 0x11A31, size: 0x8, addend: 0x0, symName: _SecurityCanAccessHost, symObjAddr: 0xB70, symBinAddr: 0xA08C, symSize: 0x58 }
  - { offset: 0x11A5D, size: 0x8, addend: 0x0, symName: _SecurityCanAccessLibrary, symObjAddr: 0xBC8, symBinAddr: 0xA0E4, symSize: 0x58 }
  - { offset: 0x11A89, size: 0x8, addend: 0x0, symName: _AddRunloopAction, symObjAddr: 0xC20, symBinAddr: 0xA13C, symSize: 0x90 }
  - { offset: 0x11AF1, size: 0x8, addend: 0x0, symName: _RemoveRunloopAction, symObjAddr: 0xCB0, symBinAddr: 0xA1CC, symSize: 0x88 }
  - { offset: 0x11B39, size: 0x8, addend: 0x0, symName: _RunloopWait, symObjAddr: 0xD38, symBinAddr: 0xA254, symSize: 0x84 }
  - { offset: 0x11B71, size: 0x8, addend: 0x0, symName: _StackToWindowRect, symObjAddr: 0xDBC, symBinAddr: 0xA2D8, symSize: 0x8C }
  - { offset: 0x11BC9, size: 0x8, addend: 0x0, symName: _WindowToStackRect, symObjAddr: 0xE48, symBinAddr: 0xA364, symSize: 0x8C }
  - { offset: 0x11C21, size: 0x8, addend: 0x0, symName: _SendCardMessageUTF8, symObjAddr: 0xED4, symBinAddr: 0xA3F0, symSize: 0x9C }
  - { offset: 0x11C69, size: 0x8, addend: 0x0, symName: _EvalExprUTF8, symObjAddr: 0xF70, symBinAddr: 0xA48C, symSize: 0x94 }
  - { offset: 0x11CB5, size: 0x8, addend: 0x0, symName: _GetGlobalUTF8, symObjAddr: 0x1004, symBinAddr: 0xA520, symSize: 0x94 }
  - { offset: 0x11D01, size: 0x8, addend: 0x0, symName: _SetGlobalUTF8, symObjAddr: 0x1098, symBinAddr: 0xA5B4, symSize: 0xA0 }
  - { offset: 0x11D59, size: 0x8, addend: 0x0, symName: _GetFieldByNameUTF8, symObjAddr: 0x1138, symBinAddr: 0xA654, symSize: 0x98 }
  - { offset: 0x11DB5, size: 0x8, addend: 0x0, symName: _GetFieldByNumUTF8, symObjAddr: 0x11D0, symBinAddr: 0xA6EC, symSize: 0xF8 }
  - { offset: 0x11E21, size: 0x8, addend: 0x0, symName: _GetFieldByIdUTF8, symObjAddr: 0x12C8, symBinAddr: 0xA7E4, symSize: 0xF8 }
  - { offset: 0x11E8D, size: 0x8, addend: 0x0, symName: _SetFieldByNameUTF8, symObjAddr: 0x13C0, symBinAddr: 0xA8DC, symSize: 0xA4 }
  - { offset: 0x11EF5, size: 0x8, addend: 0x0, symName: _SetFieldByNumUTF8, symObjAddr: 0x1464, symBinAddr: 0xA980, symSize: 0xFC }
  - { offset: 0x11F6D, size: 0x8, addend: 0x0, symName: _SetFieldByIdUTF8, symObjAddr: 0x1560, symBinAddr: 0xAA7C, symSize: 0xFC }
  - { offset: 0x11FE5, size: 0x8, addend: 0x0, symName: _ShowImageByNameUTF8, symObjAddr: 0x165C, symBinAddr: 0xAB78, symSize: 0xA0 }
  - { offset: 0x1203D, size: 0x8, addend: 0x0, symName: _ShowImageByNumUTF8, symObjAddr: 0x16FC, symBinAddr: 0xAC18, symSize: 0xF8 }
  - { offset: 0x120A5, size: 0x8, addend: 0x0, symName: _ShowImageByIdUTF8, symObjAddr: 0x17F4, symBinAddr: 0xAD10, symSize: 0xF8 }
  - { offset: 0x1210D, size: 0x8, addend: 0x0, symName: _GetVariableUTF8, symObjAddr: 0x18EC, symBinAddr: 0xAE08, symSize: 0x94 }
  - { offset: 0x12159, size: 0x8, addend: 0x0, symName: _SetVariableUTF8, symObjAddr: 0x1980, symBinAddr: 0xAE9C, symSize: 0xA0 }
  - { offset: 0x121B1, size: 0x8, addend: 0x0, symName: _GetVariableExUTF8, symObjAddr: 0x1A20, symBinAddr: 0xAF3C, symSize: 0xD4 }
  - { offset: 0x12239, size: 0x8, addend: 0x0, symName: _SetVariableExUTF8, symObjAddr: 0x1AF4, symBinAddr: 0xB010, symSize: 0xD4 }
  - { offset: 0x122C1, size: 0x8, addend: 0x0, symName: _GetArrayUTF8, symObjAddr: 0x1BC8, symBinAddr: 0xB0E4, symSize: 0x114 }
  - { offset: 0x12369, size: 0x8, addend: 0x0, symName: _SetArrayUTF8, symObjAddr: 0x1CDC, symBinAddr: 0xB1F8, symSize: 0xF0 }
  - { offset: 0x12411, size: 0x8, addend: 0x0, symName: _SecurityCanAccessFileUTF8, symObjAddr: 0x1DCC, symBinAddr: 0xB2E8, symSize: 0x88 }
  - { offset: 0x1243D, size: 0x8, addend: 0x0, symName: _SecurityCanAccessHostUTF8, symObjAddr: 0x1E54, symBinAddr: 0xB370, symSize: 0x88 }
  - { offset: 0x12469, size: 0x8, addend: 0x0, symName: _SecurityCanAccessLibraryUTF8, symObjAddr: 0x1EDC, symBinAddr: 0xB3F8, symSize: 0x88 }
  - { offset: 0x12495, size: 0x8, addend: 0x0, symName: _LoadModuleByName, symObjAddr: 0x1F64, symBinAddr: 0xB480, symSize: 0x8C }
  - { offset: 0x124ED, size: 0x8, addend: 0x0, symName: _UnloadModule, symObjAddr: 0x1FF0, symBinAddr: 0xB50C, symSize: 0x88 }
  - { offset: 0x12535, size: 0x8, addend: 0x0, symName: _ResolveSymbolInModule, symObjAddr: 0x2078, symBinAddr: 0xB594, symSize: 0x90 }
  - { offset: 0x1259D, size: 0x8, addend: 0x0, symName: _CopyNativePathOfModule, symObjAddr: 0x2108, symBinAddr: 0xB624, symSize: 0x80 }
  - { offset: 0x125E9, size: 0x8, addend: 0x0, symName: _GetXDisplayHandle, symObjAddr: 0x2188, symBinAddr: 0xB6A4, symSize: 0x9C }
  - { offset: 0x12631, size: 0x8, addend: 0x0, symName: _ConvertCStringFromNativeToUTF8, symObjAddr: 0x2224, symBinAddr: 0xB740, symSize: 0x7C }
  - { offset: 0x1267D, size: 0x8, addend: 0x0, symName: _ConvertCStringToNativeFromUTF8, symObjAddr: 0x22A0, symBinAddr: 0xB7BC, symSize: 0x7C }
  - { offset: 0x126C9, size: 0x8, addend: 0x0, symName: _MCSupportLibraryLoad, symObjAddr: 0x231C, symBinAddr: 0xB838, symSize: 0x5C }
  - { offset: 0x12715, size: 0x8, addend: 0x0, symName: _MCSupportLibraryUnload, symObjAddr: 0x2378, symBinAddr: 0xB894, symSize: 0x2C }
  - { offset: 0x1274D, size: 0x8, addend: 0x0, symName: _MCSupportLibraryLookupSymbol, symObjAddr: 0x23A4, symBinAddr: 0xB8C0, symSize: 0x64 }
  - { offset: 0x1298D, size: 0x8, addend: 0x0, symName: __Z14string_to_utf8PKc, symObjAddr: 0x0, symBinAddr: 0xB924, symSize: 0x138 }
  - { offset: 0x1299A, size: 0x8, addend: 0x0, symName: __Z14string_to_utf8PKc, symObjAddr: 0x0, symBinAddr: 0xB924, symSize: 0x138 }
  - { offset: 0x129C4, size: 0x8, addend: 0x0, symName: __ZZ14string_to_utf8PKcE22s_text_to_unicode_info, symObjAddr: 0x4890, symBinAddr: 0x286A8, symSize: 0x0 }
  - { offset: 0x12A53, size: 0x8, addend: 0x0, symName: __Z16string_from_utf8PKc, symObjAddr: 0x138, symBinAddr: 0xBA5C, symSize: 0x12C }
  - { offset: 0x12A7D, size: 0x8, addend: 0x0, symName: __ZZ16string_from_utf8PKcE22s_unicode_to_text_info, symObjAddr: 0x4898, symBinAddr: 0x286B0, symSize: 0x0 }
  - { offset: 0x12B0C, size: 0x8, addend: 0x0, symName: __Z17string_from_utf16PKti, symObjAddr: 0x264, symBinAddr: 0xBB88, symSize: 0x16C }
  - { offset: 0x12B36, size: 0x8, addend: 0x0, symName: __ZZ17string_from_utf16PKtiE19s_unicode_converter, symObjAddr: 0x48A0, symBinAddr: 0x286B8, symSize: 0x0 }
  - { offset: 0x12C23, size: 0x8, addend: 0x0, symName: __Z17os_path_to_nativePKc, symObjAddr: 0x3D0, symBinAddr: 0xBCF4, symSize: 0x24 }
  - { offset: 0x12C4F, size: 0x8, addend: 0x0, symName: __Z22os_path_to_native_utf8PKc, symObjAddr: 0x3F4, symBinAddr: 0xBD18, symSize: 0x24 }
  - { offset: 0x12C7B, size: 0x8, addend: 0x0, symName: __Z19os_path_from_nativePKc, symObjAddr: 0x418, symBinAddr: 0xBD3C, symSize: 0x24 }
  - { offset: 0x12CA7, size: 0x8, addend: 0x0, symName: __Z15os_path_resolvePKc, symObjAddr: 0x43C, symBinAddr: 0xBD60, symSize: 0x35C }
  - { offset: 0x12D8D, size: 0x8, addend: 0x0, symName: __ZL21get_current_directoryv, symObjAddr: 0x798, symBinAddr: 0xC0BC, symSize: 0x9C }
  - { offset: 0x12DD6, size: 0x8, addend: 0x0, symName: __ZL8strclonePKc, symObjAddr: 0x834, symBinAddr: 0xC158, symSize: 0x54 }
  - { offset: 0x12E10, size: 0x8, addend: 0x0, symName: __Z6strchrB8dn200100Ua9enable_ifIXLb1EEEPci, symObjAddr: 0x888, symBinAddr: 0xC1AC, symSize: 0x2C }
  - { offset: 0x12E4A, size: 0x8, addend: 0x0, symName: __Z7strrchrB8dn200100Ua9enable_ifIXLb1EEEPci, symObjAddr: 0x8B4, symBinAddr: 0xC1D8, symSize: 0x2C }
  - { offset: 0x13349, size: 0x8, addend: 0x0, symName: _zip_add, symObjAddr: 0x0, symBinAddr: 0xC204, symSize: 0x7C }
  - { offset: 0x133BE, size: 0x8, addend: 0x0, symName: _zip_add, symObjAddr: 0x0, symBinAddr: 0xC204, symSize: 0x7C }
  - { offset: 0x13C37, size: 0x8, addend: 0x0, symName: _zip_close, symObjAddr: 0x0, symBinAddr: 0xC280, symSize: 0xC9C }
  - { offset: 0x13D07, size: 0x8, addend: 0x0, symName: _zip_close, symObjAddr: 0x0, symBinAddr: 0xC280, symSize: 0xC9C }
  - { offset: 0x13E3A, size: 0x8, addend: 0x0, symName: _add_data, symObjAddr: 0xC9C, symBinAddr: 0xCF1C, symSize: 0x3F4 }
  - { offset: 0x13F3C, size: 0x8, addend: 0x0, symName: _copy_data, symObjAddr: 0x1090, symBinAddr: 0xD310, symSize: 0x1C8 }
  - { offset: 0x13FCB, size: 0x8, addend: 0x0, symName: _ch_set_error, symObjAddr: 0x1258, symBinAddr: 0xD4D8, symSize: 0xAC }
  - { offset: 0x14023, size: 0x8, addend: 0x0, symName: _add_data_store, symObjAddr: 0x1304, symBinAddr: 0xD584, symSize: 0x2D8 }
  - { offset: 0x14116, size: 0x8, addend: 0x0, symName: _add_data_copy, symObjAddr: 0x15DC, symBinAddr: 0xD85C, symSize: 0x270 }
  - { offset: 0x14209, size: 0x8, addend: 0x0, symName: _add_data_deflate, symObjAddr: 0x184C, symBinAddr: 0xDACC, symSize: 0x444 }
  - { offset: 0x14BFD, size: 0x8, addend: 0x0, symName: _zip_delete, symObjAddr: 0x0, symBinAddr: 0xDF10, symSize: 0xB0 }
  - { offset: 0x14C70, size: 0x8, addend: 0x0, symName: _zip_delete, symObjAddr: 0x0, symBinAddr: 0xDF10, symSize: 0xB0 }
  - { offset: 0x154DC, size: 0x8, addend: 0x0, symName: __zip_cdir_free, symObjAddr: 0x0, symBinAddr: 0xDFC0, symSize: 0xA0 }
  - { offset: 0x15500, size: 0x8, addend: 0x0, symName: __zip_cdir_free, symObjAddr: 0x0, symBinAddr: 0xDFC0, symSize: 0xA0 }
  - { offset: 0x15535, size: 0x8, addend: 0x0, symName: __zip_dirent_finalize, symObjAddr: 0xA0, symBinAddr: 0xE060, symSize: 0x58 }
  - { offset: 0x1555B, size: 0x8, addend: 0x0, symName: __zip_cdir_new, symObjAddr: 0xF8, symBinAddr: 0xE0B8, symSize: 0xCC }
  - { offset: 0x155A3, size: 0x8, addend: 0x0, symName: __zip_cdir_write, symObjAddr: 0x1C4, symBinAddr: 0xE184, symSize: 0x1AC }
  - { offset: 0x155FA, size: 0x8, addend: 0x0, symName: __zip_dirent_write, symObjAddr: 0x370, symBinAddr: 0xE330, symSize: 0x27C }
  - { offset: 0x15676, size: 0x8, addend: 0x0, symName: __zip_write4, symObjAddr: 0x5EC, symBinAddr: 0xE5AC, symSize: 0x68 }
  - { offset: 0x156AE, size: 0x8, addend: 0x0, symName: __zip_write2, symObjAddr: 0x654, symBinAddr: 0xE614, symSize: 0x40 }
  - { offset: 0x156E6, size: 0x8, addend: 0x0, symName: __zip_dirent_init, symObjAddr: 0x694, symBinAddr: 0xE654, symSize: 0xA4 }
  - { offset: 0x1570C, size: 0x8, addend: 0x0, symName: __zip_dirent_read, symObjAddr: 0x738, symBinAddr: 0xE6F8, symSize: 0x5BC }
  - { offset: 0x157D1, size: 0x8, addend: 0x0, symName: __zip_read2, symObjAddr: 0xCF4, symBinAddr: 0xECB4, symSize: 0x44 }
  - { offset: 0x1580D, size: 0x8, addend: 0x0, symName: __zip_d2u_time, symObjAddr: 0xD38, symBinAddr: 0xECF8, symSize: 0xC4 }
  - { offset: 0x15869, size: 0x8, addend: 0x0, symName: __zip_read4, symObjAddr: 0xDFC, symBinAddr: 0xEDBC, symSize: 0x64 }
  - { offset: 0x158A5, size: 0x8, addend: 0x0, symName: __zip_readstr, symObjAddr: 0xE60, symBinAddr: 0xEE20, symSize: 0x140 }
  - { offset: 0x15921, size: 0x8, addend: 0x0, symName: __zip_readfpstr, symObjAddr: 0xFA0, symBinAddr: 0xEF60, symSize: 0x16C }
  - { offset: 0x1599D, size: 0x8, addend: 0x0, symName: __zip_u2d_time, symObjAddr: 0x110C, symBinAddr: 0xF0CC, symSize: 0x98 }
  - { offset: 0x15EBD, size: 0x8, addend: 0x0, symName: __zip_entry_free, symObjAddr: 0x0, symBinAddr: 0xF164, symSize: 0x38 }
  - { offset: 0x15F30, size: 0x8, addend: 0x0, symName: __zip_entry_free, symObjAddr: 0x0, symBinAddr: 0xF164, symSize: 0x38 }
  - { offset: 0x16090, size: 0x8, addend: 0x0, symName: __zip_entry_new, symObjAddr: 0x0, symBinAddr: 0xF19C, symSize: 0x16C }
  - { offset: 0x16217, size: 0x8, addend: 0x0, symName: __zip_entry_new, symObjAddr: 0x0, symBinAddr: 0xF19C, symSize: 0x16C }
  - { offset: 0x1698B, size: 0x8, addend: 0x0, symName: __zip_err_str, symObjAddr: 0x1E0, symBinAddr: 0x242C0, symSize: 0x0 }
  - { offset: 0x169C1, size: 0x8, addend: 0x0, symName: __zip_nerr_str, symObjAddr: 0x2A0, symBinAddr: 0x1E444, symSize: 0x0 }
  - { offset: 0x169E4, size: 0x8, addend: 0x0, symName: __zip_err_type, symObjAddr: 0x2A4, symBinAddr: 0x1E448, symSize: 0x0 }
  - { offset: 0x16A22, size: 0x8, addend: 0x0, symName: _zip_error_get_sys_type, symObjAddr: 0x0, symBinAddr: 0xF308, symSize: 0x5C }
  - { offset: 0x16A30, size: 0x8, addend: 0x0, symName: _zip_error_get_sys_type, symObjAddr: 0x0, symBinAddr: 0xF308, symSize: 0x5C }
  - { offset: 0x16A87, size: 0x8, addend: 0x0, symName: __zip_error_strerror, symObjAddr: 0x0, symBinAddr: 0xF364, symSize: 0x26C }
  - { offset: 0x16AA3, size: 0x8, addend: 0x0, symName: __zip_error_strerror, symObjAddr: 0x0, symBinAddr: 0xF364, symSize: 0x26C }
  - { offset: 0x16B92, size: 0x8, addend: 0x0, symName: _zip_error_to_str, symObjAddr: 0x0, symBinAddr: 0xF5D0, symSize: 0x190 }
  - { offset: 0x16BAE, size: 0x8, addend: 0x0, symName: _zip_error_to_str, symObjAddr: 0x0, symBinAddr: 0xF5D0, symSize: 0x190 }
  - { offset: 0x16C81, size: 0x8, addend: 0x0, symName: __zip_error_copy, symObjAddr: 0x0, symBinAddr: 0xF760, symSize: 0x34 }
  - { offset: 0x16C8F, size: 0x8, addend: 0x0, symName: __zip_error_copy, symObjAddr: 0x0, symBinAddr: 0xF760, symSize: 0x34 }
  - { offset: 0x16CC4, size: 0x8, addend: 0x0, symName: __zip_error_fini, symObjAddr: 0x34, symBinAddr: 0xF794, symSize: 0x30 }
  - { offset: 0x16CEA, size: 0x8, addend: 0x0, symName: __zip_error_get, symObjAddr: 0x64, symBinAddr: 0xF7C4, symSize: 0x88 }
  - { offset: 0x16D2E, size: 0x8, addend: 0x0, symName: __zip_error_init, symObjAddr: 0xEC, symBinAddr: 0xF84C, symSize: 0x28 }
  - { offset: 0x16D54, size: 0x8, addend: 0x0, symName: __zip_error_set, symObjAddr: 0x114, symBinAddr: 0xF874, symSize: 0x40 }
  - { offset: 0x16E0F, size: 0x8, addend: 0x0, symName: _zip_fclose, symObjAddr: 0x0, symBinAddr: 0xF8B4, symSize: 0x17C }
  - { offset: 0x16E82, size: 0x8, addend: 0x0, symName: _zip_fclose, symObjAddr: 0x0, symBinAddr: 0xF8B4, symSize: 0x17C }
  - { offset: 0x176FD, size: 0x8, addend: 0x0, symName: __zip_file_get_offset, symObjAddr: 0x0, symBinAddr: 0xFA30, symSize: 0xF8 }
  - { offset: 0x17770, size: 0x8, addend: 0x0, symName: __zip_file_get_offset, symObjAddr: 0x0, symBinAddr: 0xFA30, symSize: 0xF8 }
  - { offset: 0x17FFA, size: 0x8, addend: 0x0, symName: _zip_fopen_index, symObjAddr: 0x0, symBinAddr: 0xFB28, symSize: 0x488 }
  - { offset: 0x1887A, size: 0x8, addend: 0x0, symName: _zip_fopen_index, symObjAddr: 0x0, symBinAddr: 0xFB28, symSize: 0x488 }
  - { offset: 0x188FE, size: 0x8, addend: 0x0, symName: __zip_file_new, symObjAddr: 0x488, symBinAddr: 0xFFB0, symSize: 0x198 }
  - { offset: 0x18955, size: 0x8, addend: 0x0, symName: __zip_file_fillbuf, symObjAddr: 0x620, symBinAddr: 0x10148, symSize: 0x1C8 }
  - { offset: 0x189E1, size: 0x8, addend: 0x0, symName: _zip_fread, symObjAddr: 0x0, symBinAddr: 0x10310, symSize: 0x5A0 }
  - { offset: 0x18A7D, size: 0x8, addend: 0x0, symName: _zip_fread, symObjAddr: 0x0, symBinAddr: 0x10310, symSize: 0x5A0 }
  - { offset: 0x192FC, size: 0x8, addend: 0x0, symName: __zip_free, symObjAddr: 0x0, symBinAddr: 0x108B0, symSize: 0x188 }
  - { offset: 0x19371, size: 0x8, addend: 0x0, symName: __zip_free, symObjAddr: 0x0, symBinAddr: 0x108B0, symSize: 0x188 }
  - { offset: 0x19BD7, size: 0x8, addend: 0x0, symName: _zip_get_attributes, symObjAddr: 0x0, symBinAddr: 0x10A38, symSize: 0xBC }
  - { offset: 0x19C4A, size: 0x8, addend: 0x0, symName: _zip_get_attributes, symObjAddr: 0x0, symBinAddr: 0x10A38, symSize: 0xBC }
  - { offset: 0x1A4F8, size: 0x8, addend: 0x0, symName: _zip_get_name, symObjAddr: 0x0, symBinAddr: 0x10AF4, symSize: 0x3C }
  - { offset: 0x1A56D, size: 0x8, addend: 0x0, symName: _zip_get_name, symObjAddr: 0x0, symBinAddr: 0x10AF4, symSize: 0x3C }
  - { offset: 0x1A5B5, size: 0x8, addend: 0x0, symName: __zip_get_name, symObjAddr: 0x3C, symBinAddr: 0x10B30, symSize: 0x168 }
  - { offset: 0x1AE43, size: 0x8, addend: 0x0, symName: _zip_get_num_files, symObjAddr: 0x0, symBinAddr: 0x10C98, symSize: 0x3C }
  - { offset: 0x1AEB8, size: 0x8, addend: 0x0, symName: _zip_get_num_files, symObjAddr: 0x0, symBinAddr: 0x10C98, symSize: 0x3C }
  - { offset: 0x1B713, size: 0x8, addend: 0x0, symName: _zip_get_path, symObjAddr: 0x0, symBinAddr: 0x10CD4, symSize: 0x38 }
  - { offset: 0x1B788, size: 0x8, addend: 0x0, symName: _zip_get_path, symObjAddr: 0x0, symBinAddr: 0x10CD4, symSize: 0x38 }
  - { offset: 0x1BFEF, size: 0x8, addend: 0x0, symName: _zip_name_locate, symObjAddr: 0x0, symBinAddr: 0x10D0C, symSize: 0x3C }
  - { offset: 0x1C064, size: 0x8, addend: 0x0, symName: _zip_name_locate, symObjAddr: 0x0, symBinAddr: 0x10D0C, symSize: 0x3C }
  - { offset: 0x1C0AC, size: 0x8, addend: 0x0, symName: __zip_name_locate, symObjAddr: 0x3C, symBinAddr: 0x10D48, symSize: 0x1B8 }
  - { offset: 0x1C99E, size: 0x8, addend: 0x0, symName: __zip_new, symObjAddr: 0x0, symBinAddr: 0x10F00, symSize: 0xB0 }
  - { offset: 0x1D21E, size: 0x8, addend: 0x0, symName: __zip_new, symObjAddr: 0x0, symBinAddr: 0x10F00, symSize: 0xB0 }
  - { offset: 0x1D283, size: 0x8, addend: 0x0, symName: _zip_open, symObjAddr: 0x0, symBinAddr: 0x10FB0, symSize: 0x5B4 }
  - { offset: 0x1D31A, size: 0x8, addend: 0x0, symName: _zip_open, symObjAddr: 0x0, symBinAddr: 0x10FB0, symSize: 0x5B4 }
  - { offset: 0x1D45B, size: 0x8, addend: 0x0, symName: _set_error, symObjAddr: 0x5B4, symBinAddr: 0x11564, symSize: 0x8C }
  - { offset: 0x1D4B3, size: 0x8, addend: 0x0, symName: __zip_memmem, symObjAddr: 0x640, symBinAddr: 0x115F0, symSize: 0xEC }
  - { offset: 0x1D51F, size: 0x8, addend: 0x0, symName: __zip_readcdir, symObjAddr: 0x72C, symBinAddr: 0x116DC, symSize: 0x3D8 }
  - { offset: 0x1D5EB, size: 0x8, addend: 0x0, symName: __zip_checkcons, symObjAddr: 0xB04, symBinAddr: 0x11AB4, symSize: 0x2B8 }
  - { offset: 0x1D687, size: 0x8, addend: 0x0, symName: __zip_memdup, symObjAddr: 0xDBC, symBinAddr: 0x11D6C, symSize: 0x78 }
  - { offset: 0x1D6E3, size: 0x8, addend: 0x0, symName: __zip_headercomp, symObjAddr: 0xE34, symBinAddr: 0x11DE4, symSize: 0x2E0 }
  - { offset: 0x1E184, size: 0x8, addend: 0x0, symName: _zip_recompress, symObjAddr: 0x0, symBinAddr: 0x120C4, symSize: 0x11C }
  - { offset: 0x1E1F7, size: 0x8, addend: 0x0, symName: _zip_recompress, symObjAddr: 0x0, symBinAddr: 0x120C4, symSize: 0x11C }
  - { offset: 0x1EA72, size: 0x8, addend: 0x0, symName: _zip_rename, symObjAddr: 0x0, symBinAddr: 0x121E0, symSize: 0x84 }
  - { offset: 0x1EAE5, size: 0x8, addend: 0x0, symName: _zip_rename, symObjAddr: 0x0, symBinAddr: 0x121E0, symSize: 0x84 }
  - { offset: 0x1F360, size: 0x8, addend: 0x0, symName: _zip_replace, symObjAddr: 0x0, symBinAddr: 0x12264, symSize: 0x94 }
  - { offset: 0x1F3D5, size: 0x8, addend: 0x0, symName: _zip_replace, symObjAddr: 0x0, symBinAddr: 0x12264, symSize: 0x94 }
  - { offset: 0x1F41D, size: 0x8, addend: 0x0, symName: __zip_replace, symObjAddr: 0x94, symBinAddr: 0x122F8, symSize: 0x154 }
  - { offset: 0x1FCA5, size: 0x8, addend: 0x0, symName: _zip_set_attributes, symObjAddr: 0x0, symBinAddr: 0x1244C, symSize: 0xF4 }
  - { offset: 0x1FD18, size: 0x8, addend: 0x0, symName: _zip_set_attributes, symObjAddr: 0x0, symBinAddr: 0x1244C, symSize: 0xF4 }
  - { offset: 0x205C0, size: 0x8, addend: 0x0, symName: __zip_set_name, symObjAddr: 0x0, symBinAddr: 0x12540, symSize: 0x1AC }
  - { offset: 0x20635, size: 0x8, addend: 0x0, symName: __zip_set_name, symObjAddr: 0x0, symBinAddr: 0x12540, symSize: 0x1AC }
  - { offset: 0x20ECC, size: 0x8, addend: 0x0, symName: _zip_set_progress_callback, symObjAddr: 0x0, symBinAddr: 0x126EC, symSize: 0x54 }
  - { offset: 0x20F41, size: 0x8, addend: 0x0, symName: _zip_set_progress_callback, symObjAddr: 0x0, symBinAddr: 0x126EC, symSize: 0x54 }
  - { offset: 0x217BA, size: 0x8, addend: 0x0, symName: _zip_source_buffer, symObjAddr: 0x0, symBinAddr: 0x12740, symSize: 0x12C }
  - { offset: 0x2196F, size: 0x8, addend: 0x0, symName: _zip_source_buffer, symObjAddr: 0x0, symBinAddr: 0x12740, symSize: 0x12C }
  - { offset: 0x219E4, size: 0x8, addend: 0x0, symName: _read_data, symObjAddr: 0x12C, symBinAddr: 0x1286C, symSize: 0x250 }
  - { offset: 0x22275, size: 0x8, addend: 0x0, symName: _zip_source_filename, symObjAddr: 0x0, symBinAddr: 0x12ABC, symSize: 0x19C }
  - { offset: 0x22641, size: 0x8, addend: 0x0, symName: _zip_source_filename, symObjAddr: 0x0, symBinAddr: 0x12ABC, symSize: 0x19C }
  - { offset: 0x226C5, size: 0x8, addend: 0x0, symName: _read_filename, symObjAddr: 0x19C, symBinAddr: 0x12C58, symSize: 0x494 }
  - { offset: 0x22F57, size: 0x8, addend: 0x0, symName: _zip_source_free, symObjAddr: 0x0, symBinAddr: 0x130EC, symSize: 0x58 }
  - { offset: 0x22FA0, size: 0x8, addend: 0x0, symName: _zip_source_free, symObjAddr: 0x0, symBinAddr: 0x130EC, symSize: 0x58 }
  - { offset: 0x23085, size: 0x8, addend: 0x0, symName: _zip_source_function, symObjAddr: 0x0, symBinAddr: 0x13144, symSize: 0x90 }
  - { offset: 0x230FA, size: 0x8, addend: 0x0, symName: _zip_source_function, symObjAddr: 0x0, symBinAddr: 0x13144, symSize: 0x90 }
  - { offset: 0x23982, size: 0x8, addend: 0x0, symName: _zip_stat_index, symObjAddr: 0x0, symBinAddr: 0x131D4, symSize: 0x2B0 }
  - { offset: 0x239F7, size: 0x8, addend: 0x0, symName: _zip_stat_index, symObjAddr: 0x0, symBinAddr: 0x131D4, symSize: 0x2B0 }
  - { offset: 0x24312, size: 0x8, addend: 0x0, symName: _zip_strerror, symObjAddr: 0x0, symBinAddr: 0x13484, symSize: 0x28 }
  - { offset: 0x24385, size: 0x8, addend: 0x0, symName: _zip_strerror, symObjAddr: 0x0, symBinAddr: 0x13484, symSize: 0x28 }
  - { offset: 0x24BE2, size: 0x8, addend: 0x0, symName: __zip_unchange_data, symObjAddr: 0x0, symBinAddr: 0x134AC, symSize: 0x8C }
  - { offset: 0x24C57, size: 0x8, addend: 0x0, symName: __zip_unchange_data, symObjAddr: 0x0, symBinAddr: 0x134AC, symSize: 0x8C }
  - { offset: 0x24DB5, size: 0x8, addend: 0x0, symName: _zip_unchange, symObjAddr: 0x0, symBinAddr: 0x13538, symSize: 0x30 }
  - { offset: 0x24E28, size: 0x8, addend: 0x0, symName: _zip_unchange, symObjAddr: 0x0, symBinAddr: 0x13538, symSize: 0x30 }
  - { offset: 0x24E61, size: 0x8, addend: 0x0, symName: __zip_unchange, symObjAddr: 0x30, symBinAddr: 0x13568, symSize: 0x190 }
...
