---
triple:          'arm64-apple-darwin'
binary-path:     '/Users/emily-elizabethhoward/Developer/HyperXTalk/_build/mac/Debug/dbsqlite.bundle/Contents/MacOS/dbsqlite'
relocations:
  - { offset: 0x53, size: 0x8, addend: 0x0, symName: __ZL11dbcallbacks, symObjAddr: 0x10208, symBinAddr: 0x164B50, symSize: 0x0 }
  - { offset: 0x2294, size: 0x8, addend: 0x0, symName: __ZN7DBFieldC2Ev, symObjAddr: 0x0, symBinAddr: 0x758, symSize: 0x74 }
  - { offset: 0x22BE, size: 0x8, addend: 0x0, symName: __ZN7DBFieldC1Ev, symObjAddr: 0x74, symBinAddr: 0x7CC, symSize: 0x2C }
  - { offset: 0x22E8, size: 0x8, addend: 0x0, symName: __ZN7DBFieldD2Ev, symObjAddr: 0xA0, symBinAddr: 0x7F8, symSize: 0x78 }
  - { offset: 0x2312, size: 0x8, addend: 0x0, symName: __ZN7DBFieldD1Ev, symObjAddr: 0x118, symBinAddr: 0x870, symSize: 0x2C }
  - { offset: 0x233C, size: 0x8, addend: 0x0, symName: __ZN7DBFieldD0Ev, symObjAddr: 0x144, symBinAddr: 0x89C, symSize: 0x30 }
  - { offset: 0x26CF, size: 0x8, addend: 0x0, symName: __ZN13CDBConnectionC2Ev, symObjAddr: 0x174, symBinAddr: 0x8CC, symSize: 0x54 }
  - { offset: 0x26F9, size: 0x8, addend: 0x0, symName: __ZN13DBConnection2C2Ev, symObjAddr: 0x1C8, symBinAddr: 0x920, symSize: 0x3C }
  - { offset: 0x2723, size: 0x8, addend: 0x0, symName: __ZN6DBListC1Ev, symObjAddr: 0x204, symBinAddr: 0x95C, symSize: 0x2C }
  - { offset: 0x274D, size: 0x8, addend: 0x0, symName: __ZN13CDBConnectionD2Ev, symObjAddr: 0x230, symBinAddr: 0x988, symSize: 0x5C }
  - { offset: 0x2777, size: 0x8, addend: 0x0, symName: __ZN13CDBConnection15errorMessageSetEPKc, symObjAddr: 0x28C, symBinAddr: 0x9E4, symSize: 0x70 }
  - { offset: 0x27AB, size: 0x8, addend: 0x0, symName: __ZN13DBConnection2D2Ev, symObjAddr: 0x30C, symBinAddr: 0xA64, symSize: 0x2C }
  - { offset: 0x27D5, size: 0x8, addend: 0x0, symName: __ZN13CDBConnectionD1Ev, symObjAddr: 0x338, symBinAddr: 0xA90, symSize: 0x14 }
  - { offset: 0x27FF, size: 0x8, addend: 0x0, symName: __ZN13CDBConnectionD0Ev, symObjAddr: 0x34C, symBinAddr: 0xAA4, symSize: 0xC }
  - { offset: 0x2829, size: 0x8, addend: 0x0, symName: __ZN13CDBConnection13getCursorListEv, symObjAddr: 0x358, symBinAddr: 0xAB0, symSize: 0x18 }
  - { offset: 0x284F, size: 0x8, addend: 0x0, symName: __ZN13CDBConnection17getConnectionTypeEv, symObjAddr: 0x370, symBinAddr: 0xAC8, symSize: 0x20 }
  - { offset: 0x2875, size: 0x8, addend: 0x0, symName: __ZN13CDBConnection14getIsConnectedEv, symObjAddr: 0x390, symBinAddr: 0xAE8, symSize: 0x18 }
  - { offset: 0x289B, size: 0x8, addend: 0x0, symName: __ZN13CDBConnection12deleteCursorEi, symObjAddr: 0x3A8, symBinAddr: 0xB00, symSize: 0x30 }
  - { offset: 0x28CF, size: 0x8, addend: 0x0, symName: __ZN13CDBConnection10findCursorEi, symObjAddr: 0x3D8, symBinAddr: 0xB30, symSize: 0x30 }
  - { offset: 0x2903, size: 0x8, addend: 0x0, symName: __ZN13CDBConnection12countCursorsEv, symObjAddr: 0x408, symBinAddr: 0xB60, symSize: 0x28 }
  - { offset: 0x2929, size: 0x8, addend: 0x0, symName: __ZN13CDBConnection15findCursorIndexEi, symObjAddr: 0x430, symBinAddr: 0xB88, symSize: 0x30 }
  - { offset: 0x295D, size: 0x8, addend: 0x0, symName: __ZN13CDBConnection9addCursorEP8DBCursor, symObjAddr: 0x460, symBinAddr: 0xBB8, symSize: 0x30 }
  - { offset: 0x2991, size: 0x8, addend: 0x0, symName: __ZN13CDBConnection12closeCursorsEv, symObjAddr: 0x490, symBinAddr: 0xBE8, symSize: 0x28 }
  - { offset: 0x29B7, size: 0x8, addend: 0x0, symName: __ZN13CDBConnection8isLegacyEv, symObjAddr: 0x4B8, symBinAddr: 0xC10, symSize: 0x34 }
  - { offset: 0x29DD, size: 0x8, addend: 0x0, symName: __ZN13CDBConnection12processQueryEPKcR8DBBufferPFbPviS3_ES4_, symObjAddr: 0x4EC, symBinAddr: 0xC44, symSize: 0x390 }
  - { offset: 0x2AA9, size: 0x8, addend: 0x0, symName: __ZN8DBBuffer6ensureEi, symObjAddr: 0x87C, symBinAddr: 0xFD4, symSize: 0xEC }
  - { offset: 0x2AF8, size: 0x8, addend: 0x0, symName: __ZN8DBBuffer11getFrontierEv, symObjAddr: 0x968, symBinAddr: 0x10C0, symSize: 0x18 }
  - { offset: 0x2B1D, size: 0x8, addend: 0x0, symName: __ZN8DBBuffer7advanceEi, symObjAddr: 0x980, symBinAddr: 0x10D8, symSize: 0x28 }
  - { offset: 0x2F14, size: 0x8, addend: 0x0, symName: __ZN9CDBCursorC2Ev, symObjAddr: 0x9A8, symBinAddr: 0x1100, symSize: 0x64 }
  - { offset: 0x2F3F, size: 0x8, addend: 0x0, symName: __ZN9DBCursor3C2Ev, symObjAddr: 0xA0C, symBinAddr: 0x1164, symSize: 0x3C }
  - { offset: 0x2F69, size: 0x8, addend: 0x0, symName: __ZN9CDBCursor9getIsOpenEv, symObjAddr: 0xA48, symBinAddr: 0x11A0, symSize: 0x20 }
  - { offset: 0x2F90, size: 0x8, addend: 0x0, symName: __ZN9CDBCursor13getFieldCountEv, symObjAddr: 0xA68, symBinAddr: 0x11C0, symSize: 0x18 }
  - { offset: 0x2FB7, size: 0x8, addend: 0x0, symName: __ZN9CDBCursor14getRecordCountEv, symObjAddr: 0xA80, symBinAddr: 0x11D8, symSize: 0x18 }
  - { offset: 0x2FDE, size: 0x8, addend: 0x0, symName: __ZN9CDBCursor15getRecordNumberEv, symObjAddr: 0xA98, symBinAddr: 0x11F0, symSize: 0x18 }
  - { offset: 0x3005, size: 0x8, addend: 0x0, symName: __ZN9CDBCursor6getEOFEv, symObjAddr: 0xAB0, symBinAddr: 0x1208, symSize: 0x18 }
  - { offset: 0x302C, size: 0x8, addend: 0x0, symName: __ZN9CDBCursor6getBOFEv, symObjAddr: 0xAC8, symBinAddr: 0x1220, symSize: 0x18 }
  - { offset: 0x3053, size: 0x8, addend: 0x0, symName: __ZN9CDBCursor13getConnectionEv, symObjAddr: 0xAE0, symBinAddr: 0x1238, symSize: 0x18 }
  - { offset: 0x307A, size: 0x8, addend: 0x0, symName: __ZN9CDBCursor15getErrorMessageEv, symObjAddr: 0xAF8, symBinAddr: 0x1250, symSize: 0x34 }
  - { offset: 0x30A1, size: 0x8, addend: 0x0, symName: __ZN9CDBCursor7IsErrorEv, symObjAddr: 0xB2C, symBinAddr: 0x1284, symSize: 0x30 }
  - { offset: 0x30C8, size: 0x8, addend: 0x0, symName: __ZN9CDBCursor4moveEi, symObjAddr: 0xB5C, symBinAddr: 0x12B4, symSize: 0x138 }
  - { offset: 0x3147, size: 0x8, addend: 0x0, symName: __ZN9CDBCursor14getFieldLengthEj, symObjAddr: 0xC94, symBinAddr: 0x13EC, symSize: 0x64 }
  - { offset: 0x317D, size: 0x8, addend: 0x0, symName: __ZN9CDBCursor12getFieldNameEj, symObjAddr: 0xCF8, symBinAddr: 0x1450, symSize: 0x64 }
  - { offset: 0x31B3, size: 0x8, addend: 0x0, symName: __ZN9CDBCursor12getFieldTypeEj, symObjAddr: 0xD5C, symBinAddr: 0x14B4, symSize: 0x64 }
  - { offset: 0x31E9, size: 0x8, addend: 0x0, symName: __ZN9CDBCursor18getFieldDataBinaryEjRj, symObjAddr: 0xDC0, symBinAddr: 0x1518, symSize: 0xD8 }
  - { offset: 0x322E, size: 0x8, addend: 0x0, symName: __ZN9CDBCursor18getFieldDataStringEj, symObjAddr: 0xE98, symBinAddr: 0x15F0, symSize: 0x90 }
  - { offset: 0x3282, size: 0x8, addend: 0x0, symName: __ZN9CDBCursor14getFieldIsNullEj, symObjAddr: 0xF28, symBinAddr: 0x1680, symSize: 0x7C }
  - { offset: 0x32B8, size: 0x8, addend: 0x0, symName: __ZN9CDBCursor10FreeFieldsEv, symObjAddr: 0xFA4, symBinAddr: 0x16FC, symSize: 0xC0 }
  - { offset: 0x32FC, size: 0x8, addend: 0x0, symName: _setcallbacksref, symObjAddr: 0x1064, symBinAddr: 0x17BC, symSize: 0x1C }
  - { offset: 0x3322, size: 0x8, addend: 0x0, symName: _MCSupportLibraryLoad, symObjAddr: 0x1080, symBinAddr: 0x17D8, symSize: 0x54 }
  - { offset: 0x334C, size: 0x8, addend: 0x0, symName: _MCSupportLibraryUnload, symObjAddr: 0x10D4, symBinAddr: 0x182C, symSize: 0x48 }
  - { offset: 0x3372, size: 0x8, addend: 0x0, symName: _MCSupportLibraryLookupSymbol, symObjAddr: 0x111C, symBinAddr: 0x1874, symSize: 0x5C }
  - { offset: 0x33AB, size: 0x8, addend: 0x0, symName: __ZN9CDBCursorD1Ev, symObjAddr: 0x1178, symBinAddr: 0x18D0, symSize: 0x14 }
  - { offset: 0x33D5, size: 0x8, addend: 0x0, symName: __ZN9CDBCursorD0Ev, symObjAddr: 0x118C, symBinAddr: 0x18E4, symSize: 0xC }
  - { offset: 0x33FF, size: 0x8, addend: 0x0, symName: __ZN9CDBCursor10getVersionEv, symObjAddr: 0x1198, symBinAddr: 0x18F0, symSize: 0x14 }
  - { offset: 0x3423, size: 0x8, addend: 0x0, symName: __ZN12DBConnectionC2Ev, symObjAddr: 0x11AC, symBinAddr: 0x1904, symSize: 0x3C }
  - { offset: 0x344D, size: 0x8, addend: 0x0, symName: __ZN13DBConnection2D1Ev, symObjAddr: 0x11E8, symBinAddr: 0x1940, symSize: 0x14 }
  - { offset: 0x3477, size: 0x8, addend: 0x0, symName: __ZN13DBConnection2D0Ev, symObjAddr: 0x11FC, symBinAddr: 0x1954, symSize: 0xC }
  - { offset: 0x34A1, size: 0x8, addend: 0x0, symName: __ZN8DBObjectC2Ev, symObjAddr: 0x1208, symBinAddr: 0x1960, symSize: 0x40 }
  - { offset: 0x34C9, size: 0x8, addend: 0x0, symName: __ZN12DBConnectionD1Ev, symObjAddr: 0x1248, symBinAddr: 0x19A0, symSize: 0x14 }
  - { offset: 0x34F1, size: 0x8, addend: 0x0, symName: __ZN12DBConnectionD0Ev, symObjAddr: 0x125C, symBinAddr: 0x19B4, symSize: 0xC }
  - { offset: 0x3519, size: 0x8, addend: 0x0, symName: __ZN8DBObjectD1Ev, symObjAddr: 0x1268, symBinAddr: 0x19C0, symSize: 0x2C }
  - { offset: 0x3541, size: 0x8, addend: 0x0, symName: __ZN8DBObjectD0Ev, symObjAddr: 0x1294, symBinAddr: 0x19EC, symSize: 0x30 }
  - { offset: 0x3569, size: 0x8, addend: 0x0, symName: __ZN8DBObjectD2Ev, symObjAddr: 0x12C4, symBinAddr: 0x1A1C, symSize: 0x14 }
  - { offset: 0x3591, size: 0x8, addend: 0x0, symName: __ZN6DBListC2Ev, symObjAddr: 0x12D8, symBinAddr: 0x1A30, symSize: 0x2C }
  - { offset: 0x35BB, size: 0x8, addend: 0x0, symName: __ZNSt3__16vectorIP8DBObjectNS_9allocatorIS2_EEEC1B8de200100Ev, symObjAddr: 0x1304, symBinAddr: 0x1A5C, symSize: 0x2C }
  - { offset: 0x35E3, size: 0x8, addend: 0x0, symName: __ZNSt3__16vectorIP8DBObjectNS_9allocatorIS2_EEEC2B8de200100Ev, symObjAddr: 0x1330, symBinAddr: 0x1A88, symSize: 0x3C }
  - { offset: 0x360B, size: 0x8, addend: 0x0, symName: __ZNSt3__19allocatorIP8DBObjectEC1B8de200100Ev, symObjAddr: 0x136C, symBinAddr: 0x1AC4, symSize: 0x2C }
  - { offset: 0x3633, size: 0x8, addend: 0x0, symName: __ZNSt3__19allocatorIP8DBObjectEC2B8de200100Ev, symObjAddr: 0x1398, symBinAddr: 0x1AF0, symSize: 0x2C }
  - { offset: 0x365B, size: 0x8, addend: 0x0, symName: __ZNSt3__116__non_trivial_ifILb1ENS_9allocatorIP8DBObjectEEEC2B8de200100Ev, symObjAddr: 0x13C4, symBinAddr: 0x1B1C, symSize: 0x14 }
  - { offset: 0x3683, size: 0x8, addend: 0x0, symName: __ZN12DBConnectionD2Ev, symObjAddr: 0x13D8, symBinAddr: 0x1B30, symSize: 0x2C }
  - { offset: 0x36AB, size: 0x8, addend: 0x0, symName: __ZN9DBCursor2C2Ev, symObjAddr: 0x1404, symBinAddr: 0x1B5C, symSize: 0x3C }
  - { offset: 0x36D5, size: 0x8, addend: 0x0, symName: __ZN9DBCursor3D1Ev, symObjAddr: 0x1440, symBinAddr: 0x1B98, symSize: 0x14 }
  - { offset: 0x36FF, size: 0x8, addend: 0x0, symName: __ZN9DBCursor3D0Ev, symObjAddr: 0x1454, symBinAddr: 0x1BAC, symSize: 0xC }
  - { offset: 0x3729, size: 0x8, addend: 0x0, symName: __ZN8DBCursorC2Ev, symObjAddr: 0x1460, symBinAddr: 0x1BB8, symSize: 0x3C }
  - { offset: 0x3753, size: 0x8, addend: 0x0, symName: __ZN9DBCursor2D1Ev, symObjAddr: 0x149C, symBinAddr: 0x1BF4, symSize: 0x14 }
  - { offset: 0x377D, size: 0x8, addend: 0x0, symName: __ZN9DBCursor2D0Ev, symObjAddr: 0x14B0, symBinAddr: 0x1C08, symSize: 0xC }
  - { offset: 0x37A7, size: 0x8, addend: 0x0, symName: __ZN8DBCursorD1Ev, symObjAddr: 0x14BC, symBinAddr: 0x1C14, symSize: 0x14 }
  - { offset: 0x37CF, size: 0x8, addend: 0x0, symName: __ZN8DBCursorD0Ev, symObjAddr: 0x14D0, symBinAddr: 0x1C28, symSize: 0xC }
  - { offset: 0x5AD5, size: 0x8, addend: 0x0, symName: _DBNullValue, symObjAddr: 0x1F88, symBinAddr: 0x152220, symSize: 0x0 }
  - { offset: 0x5AFD, size: 0x8, addend: 0x0, symName: __Z12longtostringl, symObjAddr: 0x0, symBinAddr: 0x1C34, symSize: 0x44 }
  - { offset: 0x5B26, size: 0x8, addend: 0x0, symName: __ZZ12longtostringlE9numstring, symObjAddr: 0x1D608, symBinAddr: 0x164B58, symSize: 0x0 }
  - { offset: 0x9501, size: 0x8, addend: 0x0, symName: __ZNSt3__1neB8de200100IPP8DBObjectEEbRKNS_11__wrap_iterIT_EES8_, symObjAddr: 0x248, symBinAddr: 0x1E7C, symSize: 0x30 }
  - { offset: 0x9544, size: 0x8, addend: 0x0, symName: __ZNSt3__1eqB8de200100IPP8DBObjectEEbRKNS_11__wrap_iterIT_EES8_, symObjAddr: 0x77C, symBinAddr: 0x23B0, symSize: 0x44 }
  - { offset: 0x9588, size: 0x8, addend: 0x0, symName: __ZNSt3__112__to_addressB8de200100IP8DBObjectEEPT_S4_, symObjAddr: 0xA28, symBinAddr: 0x265C, symSize: 0x14 }
  - { offset: 0x95BD, size: 0x8, addend: 0x0, symName: __ZNSt3__13maxB8de200100ImEERKT_S3_S3_, symObjAddr: 0xDB0, symBinAddr: 0x29E4, symSize: 0x2C }
  - { offset: 0x9600, size: 0x8, addend: 0x0, symName: __ZNSt3__13minB8de200100ImEERKT_S3_S3_, symObjAddr: 0xDDC, symBinAddr: 0x2A10, symSize: 0x2C }
  - { offset: 0x984D, size: 0x8, addend: 0x0, symName: __ZNSt3__13minB8de200100ImNS_6__lessIvvEEEERKT_S5_S5_T0_, symObjAddr: 0xE50, symBinAddr: 0x2A74, symSize: 0x54 }
  - { offset: 0x98EF, size: 0x8, addend: 0x0, symName: __ZNSt3__120__throw_length_errorB8de200100EPKc, symObjAddr: 0xEF0, symBinAddr: 0x2B14, symSize: 0x64 }
  - { offset: 0x9917, size: 0x8, addend: 0x0, symName: __ZNSt3__13maxB8de200100ImNS_6__lessIvvEEEERKT_S5_S5_T0_, symObjAddr: 0xFCC, symBinAddr: 0x2BF0, symSize: 0x54 }
  - { offset: 0x9971, size: 0x8, addend: 0x0, symName: __ZNSt3__119__allocate_at_leastB8de200100INS_9allocatorIP8DBObjectEEEENS_19__allocation_resultINS_16allocator_traitsIT_E7pointerEEERS7_m, symObjAddr: 0x10D8, symBinAddr: 0x2CFC, symSize: 0x40 }
  - { offset: 0x99B4, size: 0x8, addend: 0x0, symName: __ZNSt3__117__libcpp_allocateB8de200100IP8DBObjectEEPT_NS_15__element_countEm, symObjAddr: 0x119C, symBinAddr: 0x2DC0, symSize: 0x34 }
  - { offset: 0x9A05, size: 0x8, addend: 0x0, symName: __ZNSt3__121__libcpp_operator_newB8de200100IP8DBObjectEEPvm, symObjAddr: 0x11D0, symBinAddr: 0x2DF4, symSize: 0x24 }
  - { offset: 0x9A3B, size: 0x8, addend: 0x0, symName: __ZNSt3__134__uninitialized_allocator_relocateB8de200100INS_9allocatorIP8DBObjectEEPS3_EEvRT_T0_S8_S8_, symObjAddr: 0x1204, symBinAddr: 0x2E28, symSize: 0x60 }
  - { offset: 0x9AA5, size: 0x8, addend: 0x0, symName: __ZNSt3__14swapB8de200100IPP8DBObjectEENS_9enable_ifIXaasr21is_move_constructibleIT_EE5valuesr18is_move_assignableIS5_EE5valueEvE4typeERS5_S8_, symObjAddr: 0x1264, symBinAddr: 0x2E88, symSize: 0x3C }
  - { offset: 0x9AF7, size: 0x8, addend: 0x0, symName: __ZNSt3__119__libcpp_deallocateB8de200100IP8DBObjectEEvPNS_15__type_identityIT_E4typeENS_15__element_countEm, symObjAddr: 0x14CC, symBinAddr: 0x30F0, symSize: 0x38 }
  - { offset: 0x9B53, size: 0x8, addend: 0x0, symName: __ZNSt3__124__libcpp_operator_deleteB8de200100IJPP8DBObjectEEEvDpT_, symObjAddr: 0x1504, symBinAddr: 0x3128, symSize: 0x24 }
  - { offset: 0x9B86, size: 0x8, addend: 0x0, symName: __ZNSt3__1neB8de200100IPKP8DBObjectPS2_EEbRKNS_11__wrap_iterIT_EERKNS6_IT0_EE, symObjAddr: 0x1694, symBinAddr: 0x32B8, symSize: 0x30 }
  - { offset: 0x9BD2, size: 0x8, addend: 0x0, symName: __ZNSt3__1miB8de200100IPKP8DBObjectS4_EEDTmicldtfp_4baseEcldtfp0_4baseEERKNS_11__wrap_iterIT_EERKNS6_IT0_EE, symObjAddr: 0x16C4, symBinAddr: 0x32E8, symSize: 0x48 }
  - { offset: 0x9C1E, size: 0x8, addend: 0x0, symName: __ZNSt3__14moveB8de200100IPP8DBObjectS3_EET0_T_S5_S4_, symObjAddr: 0x1784, symBinAddr: 0x33A8, symSize: 0x40 }
  - { offset: 0x9C78, size: 0x8, addend: 0x0, symName: __ZNSt3__1eqB8de200100IPKP8DBObjectPS2_EEbRKNS_11__wrap_iterIT_EERKNS6_IT0_EE, symObjAddr: 0x17C4, symBinAddr: 0x33E8, symSize: 0x44 }
  - { offset: 0x9CC4, size: 0x8, addend: 0x0, symName: __ZNSt3__16__moveB8de200100INS_17_ClassicAlgPolicyEPP8DBObjectS4_S4_EENS_4pairIT0_T2_EES6_T1_S7_, symObjAddr: 0x18E4, symBinAddr: 0x3508, symSize: 0x44 }
  - { offset: 0x9D30, size: 0x8, addend: 0x0, symName: __ZNSt3__124__copy_move_unwrap_itersB8de200100INS_11__move_implINS_17_ClassicAlgPolicyEEEPP8DBObjectS6_S6_Li0EEENS_4pairIT0_T2_EES8_T1_S9_, symObjAddr: 0x1928, symBinAddr: 0x354C, symSize: 0xB4 }
  - { offset: 0x9DBE, size: 0x8, addend: 0x0, symName: __ZNSt3__114__unwrap_rangeB8de200100IPP8DBObjectS3_EENS_4pairIT0_S5_EET_S7_, symObjAddr: 0x19DC, symBinAddr: 0x3600, symSize: 0x60 }
  - { offset: 0x9F64, size: 0x8, addend: 0x0, symName: __ZNSt3__113__unwrap_iterB8de200100IPP8DBObjectNS_18__unwrap_iter_implIS3_Lb1EEELi0EEEDTclsrT0_8__unwrapclsr3stdE7declvalIT_EEEES7_, symObjAddr: 0x1A84, symBinAddr: 0x36A8, symSize: 0x24 }
  - { offset: 0x9FA9, size: 0x8, addend: 0x0, symName: __ZNSt3__19make_pairB8de200100IPP8DBObjectS3_EENS_4pairINS_18__unwrap_referenceIu7__decayIT_EE4typeENS5_Iu7__decayIT0_EE4typeEEEOS6_OSA_, symObjAddr: 0x1AA8, symBinAddr: 0x36CC, symSize: 0x38 }
  - { offset: 0x9FF8, size: 0x8, addend: 0x0, symName: __ZNSt3__114__rewrap_rangeB8de200100IPP8DBObjectS3_EET_S4_T0_, symObjAddr: 0x1AE0, symBinAddr: 0x3704, symSize: 0x2C }
  - { offset: 0xA044, size: 0x8, addend: 0x0, symName: __ZNSt3__113__rewrap_iterB8de200100IPP8DBObjectS3_NS_18__unwrap_iter_implIS3_Lb1EEEEET_S6_T0_, symObjAddr: 0x1B0C, symBinAddr: 0x3730, symSize: 0x3C }
  - { offset: 0xA099, size: 0x8, addend: 0x0, symName: __ZNSt3__119__copy_trivial_implB8de200100IP8DBObjectS2_EENS_4pairIPT_PT0_EES5_S5_S7_, symObjAddr: 0x1B48, symBinAddr: 0x376C, symSize: 0x80 }
  - { offset: 0xA101, size: 0x8, addend: 0x0, symName: __ZNSt3__119__constexpr_memmoveB8de200100IP8DBObjectS2_Li0EEEPT_S4_PT0_NS_15__element_countE, symObjAddr: 0x1BC8, symBinAddr: 0x37EC, symSize: 0x60 }
  - { offset: 0xA170, size: 0x8, addend: 0x0, symName: __ZNSt3__19make_pairB8de200100IRPP8DBObjectS3_EENS_4pairINS_18__unwrap_referenceIu7__decayIT_EE4typeENS6_Iu7__decayIT0_EE4typeEEEOS7_OSB_, symObjAddr: 0x1C28, symBinAddr: 0x384C, symSize: 0x38 }
  - { offset: 0xAFFE, size: 0x8, addend: 0x0, symName: __ZSt28__throw_bad_array_new_lengthB8de200100v, symObjAddr: 0x1168, symBinAddr: 0x2D8C, symSize: 0x34 }
  - { offset: 0xB3A1, size: 0x8, addend: 0x0, symName: __ZN6DBList3addEP8DBObject, symObjAddr: 0x44, symBinAddr: 0x1C78, symSize: 0x30 }
  - { offset: 0xB3D6, size: 0x8, addend: 0x0, symName: __ZNSt3__16vectorIP8DBObjectNS_9allocatorIS2_EEE9push_backB8de200100ERKS2_, symObjAddr: 0x74, symBinAddr: 0x1CA8, symSize: 0x2C }
  - { offset: 0xB409, size: 0x8, addend: 0x0, symName: __ZN6DBList7getsizeEv, symObjAddr: 0xA0, symBinAddr: 0x1CD4, symSize: 0x24 }
  - { offset: 0xB42F, size: 0x8, addend: 0x0, symName: __ZNKSt3__16vectorIP8DBObjectNS_9allocatorIS2_EEE4sizeB8de200100Ev, symObjAddr: 0xC4, symBinAddr: 0x1CF8, symSize: 0x28 }
  - { offset: 0xB453, size: 0x8, addend: 0x0, symName: __ZN6DBList5clearEv, symObjAddr: 0xEC, symBinAddr: 0x1D20, symSize: 0xCC }
  - { offset: 0xB4A3, size: 0x8, addend: 0x0, symName: __ZNKSt3__16vectorIP8DBObjectNS_9allocatorIS2_EEE5emptyB8de200100Ev, symObjAddr: 0x1B8, symBinAddr: 0x1DEC, symSize: 0x24 }
  - { offset: 0xB4C7, size: 0x8, addend: 0x0, symName: __ZNSt3__111__wrap_iterIPP8DBObjectEC1B8de200100Ev, symObjAddr: 0x1DC, symBinAddr: 0x1E10, symSize: 0x2C }
  - { offset: 0xB4F0, size: 0x8, addend: 0x0, symName: __ZNSt3__16vectorIP8DBObjectNS_9allocatorIS2_EEE5beginB8de200100Ev, symObjAddr: 0x208, symBinAddr: 0x1E3C, symSize: 0x40 }
  - { offset: 0xB515, size: 0x8, addend: 0x0, symName: __ZNSt3__16vectorIP8DBObjectNS_9allocatorIS2_EEE3endB8de200100Ev, symObjAddr: 0x278, symBinAddr: 0x1EAC, symSize: 0x40 }
  - { offset: 0xB539, size: 0x8, addend: 0x0, symName: __ZNKSt3__111__wrap_iterIPP8DBObjectEdeB8de200100Ev, symObjAddr: 0x2B8, symBinAddr: 0x1EEC, symSize: 0x18 }
  - { offset: 0xB55E, size: 0x8, addend: 0x0, symName: __ZNSt3__111__wrap_iterIPP8DBObjectEppB8de200100Ei, symObjAddr: 0x2D0, symBinAddr: 0x1F04, symSize: 0x34 }
  - { offset: 0xB59C, size: 0x8, addend: 0x0, symName: __ZNSt3__16vectorIP8DBObjectNS_9allocatorIS2_EEE5clearB8de200100Ev, symObjAddr: 0x304, symBinAddr: 0x1F38, symSize: 0x48 }
  - { offset: 0xB5CF, size: 0x8, addend: 0x0, symName: __ZN6DBList5eraseEj, symObjAddr: 0x34C, symBinAddr: 0x1F80, symSize: 0x100 }
  - { offset: 0xB62D, size: 0x8, addend: 0x0, symName: __ZN8DBObject5GetIDEv, symObjAddr: 0x44C, symBinAddr: 0x2080, symSize: 0x18 }
  - { offset: 0xB652, size: 0x8, addend: 0x0, symName: __ZNSt3__16vectorIP8DBObjectNS_9allocatorIS2_EEE5eraseB8de200100ENS_11__wrap_iterIPKS2_EE, symObjAddr: 0x464, symBinAddr: 0x2098, symSize: 0xBC }
  - { offset: 0xB6AA, size: 0x8, addend: 0x0, symName: __ZNSt3__111__wrap_iterIPKP8DBObjectEC1B8de200100IPS2_Li0EEERKNS0_IT_EE, symObjAddr: 0x520, symBinAddr: 0x2154, symSize: 0x34 }
  - { offset: 0xB6EF, size: 0x8, addend: 0x0, symName: __ZN6DBList9findIndexEi, symObjAddr: 0x554, symBinAddr: 0x2188, symSize: 0xC8 }
  - { offset: 0xB75B, size: 0x8, addend: 0x0, symName: __ZN6DBList4findEj, symObjAddr: 0x61C, symBinAddr: 0x2250, symSize: 0xC0 }
  - { offset: 0xB7B9, size: 0x8, addend: 0x0, symName: __ZN6DBListD2Ev, symObjAddr: 0x6DC, symBinAddr: 0x2310, symSize: 0x34 }
  - { offset: 0xB7E3, size: 0x8, addend: 0x0, symName: __ZNSt3__16vectorIP8DBObjectNS_9allocatorIS2_EEED1B8de200100Ev, symObjAddr: 0x710, symBinAddr: 0x2344, symSize: 0x2C }
  - { offset: 0xB80B, size: 0x8, addend: 0x0, symName: __ZN6DBListD1Ev, symObjAddr: 0x73C, symBinAddr: 0x2370, symSize: 0x2C }
  - { offset: 0xB835, size: 0x8, addend: 0x0, symName: __ZN6DBList7getListEv, symObjAddr: 0x768, symBinAddr: 0x239C, symSize: 0x14 }
  - { offset: 0xB85B, size: 0x8, addend: 0x0, symName: __ZNKSt3__111__wrap_iterIPP8DBObjectE4baseB8de200100Ev, symObjAddr: 0x7C0, symBinAddr: 0x23F4, symSize: 0x18 }
  - { offset: 0xB880, size: 0x8, addend: 0x0, symName: __ZNSt3__16vectorIP8DBObjectNS_9allocatorIS2_EEE12emplace_backIJRKS2_EEEvDpOT_, symObjAddr: 0x7D8, symBinAddr: 0x240C, symSize: 0x80 }
  - { offset: 0xB8CE, size: 0x8, addend: 0x0, symName: __ZNSt3__16vectorIP8DBObjectNS_9allocatorIS2_EEE22__construct_one_at_endB8de200100IJRKS2_EEEvDpOT_, symObjAddr: 0x858, symBinAddr: 0x248C, symSize: 0x88 }
  - { offset: 0xB91C, size: 0x8, addend: 0x0, symName: __ZNSt3__16vectorIP8DBObjectNS_9allocatorIS2_EEE24__emplace_back_slow_pathIJRKS2_EEEPS2_DpOT_, symObjAddr: 0x8E0, symBinAddr: 0x2514, symSize: 0xD8 }
  - { offset: 0xB982, size: 0x8, addend: 0x0, symName: __ZNSt3__16vectorIP8DBObjectNS_9allocatorIS2_EEE21_ConstructTransactionC1B8de200100ERS5_m, symObjAddr: 0x9B8, symBinAddr: 0x25EC, symSize: 0x3C }
  - { offset: 0xB9C9, size: 0x8, addend: 0x0, symName: __ZNSt3__116allocator_traitsINS_9allocatorIP8DBObjectEEE9constructB8de200100IS3_JRKS3_ELi0EEEvRS4_PT_DpOT0_, symObjAddr: 0x9F4, symBinAddr: 0x2628, symSize: 0x34 }
  - { offset: 0xBA24, size: 0x8, addend: 0x0, symName: __ZNSt3__16vectorIP8DBObjectNS_9allocatorIS2_EEE21_ConstructTransactionD1B8de200100Ev, symObjAddr: 0xA3C, symBinAddr: 0x2670, symSize: 0x2C }
  - { offset: 0xBA4C, size: 0x8, addend: 0x0, symName: __ZNSt3__16vectorIP8DBObjectNS_9allocatorIS2_EEE21_ConstructTransactionC2B8de200100ERS5_m, symObjAddr: 0xA68, symBinAddr: 0x269C, symSize: 0x44 }
  - { offset: 0xBA92, size: 0x8, addend: 0x0, symName: __ZNSt3__19allocatorIP8DBObjectE9constructB8de200100IS2_JRKS2_EEEvPT_DpOT0_, symObjAddr: 0xAAC, symBinAddr: 0x26E0, symSize: 0x28 }
  - { offset: 0xBAE6, size: 0x8, addend: 0x0, symName: __ZNSt3__16vectorIP8DBObjectNS_9allocatorIS2_EEE21_ConstructTransactionD2B8de200100Ev, symObjAddr: 0xAD4, symBinAddr: 0x2708, symSize: 0x20 }
  - { offset: 0xBB0F, size: 0x8, addend: 0x0, symName: __ZNKSt3__16vectorIP8DBObjectNS_9allocatorIS2_EEE11__recommendB8de200100Em, symObjAddr: 0xAF4, symBinAddr: 0x2728, symSize: 0xA8 }
  - { offset: 0xBB63, size: 0x8, addend: 0x0, symName: __ZNSt3__114__split_bufferIP8DBObjectRNS_9allocatorIS2_EEEC1EmmS5_, symObjAddr: 0xB9C, symBinAddr: 0x27D0, symSize: 0x44 }
  - { offset: 0xBBB8, size: 0x8, addend: 0x0, symName: __ZNSt3__16vectorIP8DBObjectNS_9allocatorIS2_EEE26__swap_out_circular_bufferERNS_14__split_bufferIS2_RS4_EE, symObjAddr: 0xBE0, symBinAddr: 0x2814, symSize: 0x108 }
  - { offset: 0xBBFD, size: 0x8, addend: 0x0, symName: __ZNSt3__114__split_bufferIP8DBObjectRNS_9allocatorIS2_EEED1Ev, symObjAddr: 0xCE8, symBinAddr: 0x291C, symSize: 0x2C }
  - { offset: 0xBC28, size: 0x8, addend: 0x0, symName: __ZNKSt3__16vectorIP8DBObjectNS_9allocatorIS2_EEE8max_sizeB8de200100Ev, symObjAddr: 0xD14, symBinAddr: 0x2948, symSize: 0x60 }
  - { offset: 0xBC4D, size: 0x8, addend: 0x0, symName: __ZNSt3__16vectorIP8DBObjectNS_9allocatorIS2_EEE20__throw_length_errorB8de200100Ev, symObjAddr: 0xD74, symBinAddr: 0x29A8, symSize: 0x14 }
  - { offset: 0xBC60, size: 0x8, addend: 0x0, symName: __ZNKSt3__16vectorIP8DBObjectNS_9allocatorIS2_EEE8capacityB8de200100Ev, symObjAddr: 0xD88, symBinAddr: 0x29BC, symSize: 0x28 }
  - { offset: 0xBC8F, size: 0x8, addend: 0x0, symName: __ZNSt3__116allocator_traitsINS_9allocatorIP8DBObjectEEE8max_sizeB8de200100IS4_Li0EEEmRKS4_, symObjAddr: 0xE08, symBinAddr: 0x2A3C, symSize: 0x24 }
  - { offset: 0xBCC2, size: 0x8, addend: 0x0, symName: __ZNSt3__114numeric_limitsIlE3maxB8de200100Ev, symObjAddr: 0xE2C, symBinAddr: 0x2A60, symSize: 0x14 }
  - { offset: 0xBCE9, size: 0x8, addend: 0x0, symName: __ZNKSt3__16__lessIvvEclB8de200100ImmEEbRKT_RKT0_, symObjAddr: 0xEA4, symBinAddr: 0x2AC8, symSize: 0x30 }
  - { offset: 0xBD3B, size: 0x8, addend: 0x0, symName: __ZNKSt3__19allocatorIP8DBObjectE8max_sizeB8de200100Ev, symObjAddr: 0xED4, symBinAddr: 0x2AF8, symSize: 0x14 }
  - { offset: 0xBD60, size: 0x8, addend: 0x0, symName: __ZNSt3__123__libcpp_numeric_limitsIlLb1EE3maxB8de200100Ev, symObjAddr: 0xEE8, symBinAddr: 0x2B0C, symSize: 0x8 }
  - { offset: 0xBD73, size: 0x8, addend: 0x0, symName: __ZNSt12length_errorC1B8de200100EPKc, symObjAddr: 0xF54, symBinAddr: 0x2B78, symSize: 0x34 }
  - { offset: 0xBDA9, size: 0x8, addend: 0x0, symName: __ZNSt12length_errorC2B8de200100EPKc, symObjAddr: 0xF88, symBinAddr: 0x2BAC, symSize: 0x44 }
  - { offset: 0xBDE0, size: 0x8, addend: 0x0, symName: __ZNSt3__114__split_bufferIP8DBObjectRNS_9allocatorIS2_EEEC2EmmS5_, symObjAddr: 0x1020, symBinAddr: 0x2C44, symSize: 0xB8 }
  - { offset: 0xBE52, size: 0x8, addend: 0x0, symName: __ZNSt3__19allocatorIP8DBObjectE8allocateB8de200100Em, symObjAddr: 0x1118, symBinAddr: 0x2D3C, symSize: 0x50 }
  - { offset: 0xBE84, size: 0x8, addend: 0x0, symName: __ZNKSt3__16vectorIP8DBObjectNS_9allocatorIS2_EEE17__annotate_deleteB8de200100Ev, symObjAddr: 0x11F4, symBinAddr: 0x2E18, symSize: 0x10 }
  - { offset: 0xBEA8, size: 0x8, addend: 0x0, symName: __ZNKSt3__16vectorIP8DBObjectNS_9allocatorIS2_EEE14__annotate_newB8de200100Em, symObjAddr: 0x12A0, symBinAddr: 0x2EC4, symSize: 0x14 }
  - { offset: 0xBEDC, size: 0x8, addend: 0x0, symName: __ZNSt3__114__split_bufferIP8DBObjectRNS_9allocatorIS2_EEED2Ev, symObjAddr: 0x12B4, symBinAddr: 0x2ED8, symSize: 0x7C }
  - { offset: 0xBF07, size: 0x8, addend: 0x0, symName: __ZNSt3__114__split_bufferIP8DBObjectRNS_9allocatorIS2_EEE5clearB8de200100Ev, symObjAddr: 0x1330, symBinAddr: 0x2F54, symSize: 0x28 }
  - { offset: 0xBF2C, size: 0x8, addend: 0x0, symName: __ZNSt3__116allocator_traitsINS_9allocatorIP8DBObjectEEE10deallocateB8de200100ERS4_PS3_m, symObjAddr: 0x1358, symBinAddr: 0x2F7C, symSize: 0x34 }
  - { offset: 0xBF6D, size: 0x8, addend: 0x0, symName: __ZNKSt3__114__split_bufferIP8DBObjectRNS_9allocatorIS2_EEE8capacityB8de200100Ev, symObjAddr: 0x138C, symBinAddr: 0x2FB0, symSize: 0x28 }
  - { offset: 0xBF92, size: 0x8, addend: 0x0, symName: __ZNSt3__114__split_bufferIP8DBObjectRNS_9allocatorIS2_EEE17__destruct_at_endB8de200100EPS2_, symObjAddr: 0x13B4, symBinAddr: 0x2FD8, symSize: 0x2C }
  - { offset: 0xBFC5, size: 0x8, addend: 0x0, symName: __ZNSt3__114__split_bufferIP8DBObjectRNS_9allocatorIS2_EEE17__destruct_at_endB8de200100EPS2_NS_17integral_constantIbLb0EEE, symObjAddr: 0x13E0, symBinAddr: 0x3004, symSize: 0x78 }
  - { offset: 0xC005, size: 0x8, addend: 0x0, symName: __ZNSt3__116allocator_traitsINS_9allocatorIP8DBObjectEEE7destroyB8de200100IS3_Li0EEEvRS4_PT_, symObjAddr: 0x1458, symBinAddr: 0x307C, symSize: 0x2C }
  - { offset: 0xC046, size: 0x8, addend: 0x0, symName: __ZNSt3__19allocatorIP8DBObjectE7destroyB8de200100EPS2_, symObjAddr: 0x1484, symBinAddr: 0x30A8, symSize: 0x14 }
  - { offset: 0xC079, size: 0x8, addend: 0x0, symName: __ZNSt3__19allocatorIP8DBObjectE10deallocateB8de200100EPS2_m, symObjAddr: 0x1498, symBinAddr: 0x30BC, symSize: 0x34 }
  - { offset: 0xC0B9, size: 0x8, addend: 0x0, symName: __ZNSt3__111__wrap_iterIPP8DBObjectEC2B8de200100Ev, symObjAddr: 0x1528, symBinAddr: 0x314C, symSize: 0x18 }
  - { offset: 0xC0E2, size: 0x8, addend: 0x0, symName: __ZNSt3__16vectorIP8DBObjectNS_9allocatorIS2_EEE11__make_iterB8de200100EPS2_, symObjAddr: 0x1540, symBinAddr: 0x3164, symSize: 0x30 }
  - { offset: 0xC116, size: 0x8, addend: 0x0, symName: __ZNSt3__16vectorIP8DBObjectNS_9allocatorIS2_EEE26__add_alignment_assumptionB8de200100IPS2_Li0EEES7_T_, symObjAddr: 0x1570, symBinAddr: 0x3194, symSize: 0x14 }
  - { offset: 0xC148, size: 0x8, addend: 0x0, symName: __ZNSt3__111__wrap_iterIPP8DBObjectEC1B8de200100ES3_, symObjAddr: 0x1584, symBinAddr: 0x31A8, symSize: 0x34 }
  - { offset: 0xC17E, size: 0x8, addend: 0x0, symName: __ZNSt3__111__wrap_iterIPP8DBObjectEC2B8de200100ES3_, symObjAddr: 0x15B8, symBinAddr: 0x31DC, symSize: 0x20 }
  - { offset: 0xC1B4, size: 0x8, addend: 0x0, symName: __ZNSt3__111__wrap_iterIPP8DBObjectEppB8de200100Ev, symObjAddr: 0x15D8, symBinAddr: 0x31FC, symSize: 0x20 }
  - { offset: 0xC1D9, size: 0x8, addend: 0x0, symName: __ZNSt3__16vectorIP8DBObjectNS_9allocatorIS2_EEE22__base_destruct_at_endB8de200100EPS2_, symObjAddr: 0x15F8, symBinAddr: 0x321C, symSize: 0x88 }
  - { offset: 0xC21B, size: 0x8, addend: 0x0, symName: __ZNKSt3__16vectorIP8DBObjectNS_9allocatorIS2_EEE17__annotate_shrinkB8de200100Em, symObjAddr: 0x1680, symBinAddr: 0x32A4, symSize: 0x14 }
  - { offset: 0xC24F, size: 0x8, addend: 0x0, symName: __ZNKSt3__16vectorIP8DBObjectNS_9allocatorIS2_EEE6cbeginB8de200100Ev, symObjAddr: 0x170C, symBinAddr: 0x3330, symSize: 0x2C }
  - { offset: 0xC274, size: 0x8, addend: 0x0, symName: __ZNSt3__16vectorIP8DBObjectNS_9allocatorIS2_EEE17__destruct_at_endB8de200100EPS2_, symObjAddr: 0x1738, symBinAddr: 0x335C, symSize: 0x4C }
  - { offset: 0xC2B6, size: 0x8, addend: 0x0, symName: __ZNKSt3__111__wrap_iterIPKP8DBObjectE4baseB8de200100Ev, symObjAddr: 0x1808, symBinAddr: 0x342C, symSize: 0x18 }
  - { offset: 0xC2DB, size: 0x8, addend: 0x0, symName: __ZNKSt3__16vectorIP8DBObjectNS_9allocatorIS2_EEE5beginB8de200100Ev, symObjAddr: 0x1820, symBinAddr: 0x3444, symSize: 0x40 }
  - { offset: 0xC300, size: 0x8, addend: 0x0, symName: __ZNKSt3__16vectorIP8DBObjectNS_9allocatorIS2_EEE11__make_iterB8de200100EPKS2_, symObjAddr: 0x1860, symBinAddr: 0x3484, symSize: 0x30 }
  - { offset: 0xC333, size: 0x8, addend: 0x0, symName: __ZNSt3__111__wrap_iterIPKP8DBObjectEC1B8de200100ES4_, symObjAddr: 0x1890, symBinAddr: 0x34B4, symSize: 0x34 }
  - { offset: 0xC369, size: 0x8, addend: 0x0, symName: __ZNSt3__111__wrap_iterIPKP8DBObjectEC2B8de200100ES4_, symObjAddr: 0x18C4, symBinAddr: 0x34E8, symSize: 0x20 }
  - { offset: 0xC3C3, size: 0x8, addend: 0x0, symName: __ZNKSt3__111__move_implINS_17_ClassicAlgPolicyEEclB8de200100IP8DBObjectS5_Li0EEENS_4pairIPT_PT0_EES8_S8_SA_, symObjAddr: 0x1A3C, symBinAddr: 0x3660, symSize: 0x48 }
  - { offset: 0xC433, size: 0x8, addend: 0x0, symName: __ZNSt3__14pairIPP8DBObjectS3_EC1B8de200100IRS3_S3_Li0EEEOT_OT0_, symObjAddr: 0x1C60, symBinAddr: 0x3884, symSize: 0x3C }
  - { offset: 0xC48F, size: 0x8, addend: 0x0, symName: __ZNSt3__14pairIPP8DBObjectS3_EC2B8de200100IRS3_S3_Li0EEEOT_OT0_, symObjAddr: 0x1C9C, symBinAddr: 0x38C0, symSize: 0x34 }
  - { offset: 0xC4EC, size: 0x8, addend: 0x0, symName: __ZNSt3__118__unwrap_iter_implIPP8DBObjectLb1EE8__unwrapB8de200100ES3_, symObjAddr: 0x1CD0, symBinAddr: 0x38F4, symSize: 0x24 }
  - { offset: 0xC50E, size: 0x8, addend: 0x0, symName: __ZNSt3__14pairIPP8DBObjectS3_EC1B8de200100IS3_S3_Li0EEEOT_OT0_, symObjAddr: 0x1CF4, symBinAddr: 0x3918, symSize: 0x3C }
  - { offset: 0xC56A, size: 0x8, addend: 0x0, symName: __ZNSt3__14pairIPP8DBObjectS3_EC2B8de200100IS3_S3_Li0EEEOT_OT0_, symObjAddr: 0x1D30, symBinAddr: 0x3954, symSize: 0x34 }
  - { offset: 0xC5C7, size: 0x8, addend: 0x0, symName: __ZNSt3__118__unwrap_iter_implIPP8DBObjectLb1EE8__rewrapB8de200100ES3_S3_, symObjAddr: 0x1D64, symBinAddr: 0x3988, symSize: 0x50 }
  - { offset: 0xC5F7, size: 0x8, addend: 0x0, symName: __ZNSt3__111__wrap_iterIPKP8DBObjectEC2B8de200100IPS2_Li0EEERKNS0_IT_EE, symObjAddr: 0x1DB4, symBinAddr: 0x39D8, symSize: 0x24 }
  - { offset: 0xC63C, size: 0x8, addend: 0x0, symName: __ZNSt3__16vectorIP8DBObjectNS_9allocatorIS2_EEED2B8de200100Ev, symObjAddr: 0x1DD8, symBinAddr: 0x39FC, symSize: 0x44 }
  - { offset: 0xC664, size: 0x8, addend: 0x0, symName: __ZNSt3__16vectorIP8DBObjectNS_9allocatorIS2_EEE16__destroy_vectorC1B8de200100ERS5_, symObjAddr: 0x1E1C, symBinAddr: 0x3A40, symSize: 0x34 }
  - { offset: 0xC69B, size: 0x8, addend: 0x0, symName: __ZNSt3__16vectorIP8DBObjectNS_9allocatorIS2_EEE16__destroy_vectorclB8de200100Ev, symObjAddr: 0x1E50, symBinAddr: 0x3A74, symSize: 0x84 }
  - { offset: 0xC6BF, size: 0x8, addend: 0x0, symName: __ZNSt3__16vectorIP8DBObjectNS_9allocatorIS2_EEE16__destroy_vectorC2B8de200100ERS5_, symObjAddr: 0x1ED4, symBinAddr: 0x3AF8, symSize: 0x20 }
  - { offset: 0xE51B, size: 0x8, addend: 0x0, symName: _newdbconnectionref, symObjAddr: 0x0, symBinAddr: 0x3B18, symSize: 0xB8 }
  - { offset: 0xE52F, size: 0x8, addend: 0x0, symName: __ZN8DBObject9idcounterE, symObjAddr: 0xA2F8, symBinAddr: 0x165048, symSize: 0x0 }
  - { offset: 0xE550, size: 0x8, addend: 0x0, symName: _newdbconnectionref, symObjAddr: 0x0, symBinAddr: 0x3B18, symSize: 0xB8 }
  - { offset: 0xE579, size: 0x8, addend: 0x0, symName: _releasedbconnectionref, symObjAddr: 0xB8, symBinAddr: 0x3BD0, symSize: 0x50 }
  - { offset: 0xE59E, size: 0x8, addend: 0x0, symName: _setidcounterref, symObjAddr: 0x108, symBinAddr: 0x3C20, symSize: 0x1C }
  - { offset: 0x1875E, size: 0x8, addend: 0x0, symName: __ZN19DBConnection_SQLITEC2Ev, symObjAddr: 0x0, symBinAddr: 0x3C3C, symSize: 0xA4 }
  - { offset: 0x18788, size: 0x8, addend: 0x0, symName: __ZN19DBConnection_SQLITEC1Ev, symObjAddr: 0xA4, symBinAddr: 0x3CE0, symSize: 0x2C }
  - { offset: 0x187B2, size: 0x8, addend: 0x0, symName: __ZN19DBConnection_SQLITED2Ev, symObjAddr: 0xD0, symBinAddr: 0x3D0C, symSize: 0x70 }
  - { offset: 0x187DC, size: 0x8, addend: 0x0, symName: __ZN19DBConnection_SQLITE11setErrorStrEPKc, symObjAddr: 0x140, symBinAddr: 0x3D7C, symSize: 0x6C }
  - { offset: 0x18812, size: 0x8, addend: 0x0, symName: __ZN19DBConnection_SQLITED1Ev, symObjAddr: 0x1BC, symBinAddr: 0x3DE8, symSize: 0x2C }
  - { offset: 0x1883C, size: 0x8, addend: 0x0, symName: __ZN19DBConnection_SQLITED0Ev, symObjAddr: 0x1E8, symBinAddr: 0x3E14, symSize: 0x30 }
  - { offset: 0x18866, size: 0x8, addend: 0x0, symName: __ZN19DBConnection_SQLITE15IsBinaryEnabledEv, symObjAddr: 0x218, symBinAddr: 0x3E44, symSize: 0x24 }
  - { offset: 0x1888C, size: 0x8, addend: 0x0, symName: __ZN19DBConnection_SQLITE7connectEPPci, symObjAddr: 0x23C, symBinAddr: 0x3E68, symSize: 0x370 }
  - { offset: 0x18958, size: 0x8, addend: 0x0, symName: __ZNSt3__112basic_stringIcNS_11char_traitsIcEENS_9allocatorIcEEEC1B8de200100Ev, symObjAddr: 0x5AC, symBinAddr: 0x41D8, symSize: 0x2C }
  - { offset: 0x18980, size: 0x8, addend: 0x0, symName: __Z6strchrB8de200100Ua9enable_ifIXLb1EEEPKci, symObjAddr: 0x5D8, symBinAddr: 0x4204, symSize: 0x2C }
  - { offset: 0x189BB, size: 0x8, addend: 0x0, symName: __ZN8Database11setDatabaseEPKc, symObjAddr: 0x604, symBinAddr: 0x4230, symSize: 0x30 }
  - { offset: 0x189ED, size: 0x8, addend: 0x0, symName: __ZN14SqliteDatabase9getHandleEv, symObjAddr: 0x634, symBinAddr: 0x4260, symSize: 0x18 }
  - { offset: 0x18A11, size: 0x8, addend: 0x0, symName: __ZN19DBConnection_SQLITE19getconnectionstringEv, symObjAddr: 0x64C, symBinAddr: 0x4278, symSize: 0x18 }
  - { offset: 0x18A37, size: 0x8, addend: 0x0, symName: __ZN19DBConnection_SQLITE10disconnectEv, symObjAddr: 0x664, symBinAddr: 0x4290, symSize: 0x58 }
  - { offset: 0x18A5D, size: 0x8, addend: 0x0, symName: __ZN19DBConnection_SQLITE10sqlExecuteEPcP8DBStringiRj, symObjAddr: 0x6BC, symBinAddr: 0x42E8, symSize: 0x138 }
  - { offset: 0x18B1D, size: 0x8, addend: 0x0, symName: __ZN19DBConnection_SQLITE13BindVariablesEPciP8DBStringiRi, symObjAddr: 0x7F4, symBinAddr: 0x4420, symSize: 0x15C }
  - { offset: 0x18BE3, size: 0x8, addend: 0x0, symName: __ZN19DBConnection_SQLITE9basicExecEPKcPj, symObjAddr: 0x950, symBinAddr: 0x457C, symSize: 0x148 }
  - { offset: 0x18C73, size: 0x8, addend: 0x0, symName: __Z14query_callbackPviPPcS1_, symObjAddr: 0xA98, symBinAddr: 0x46C4, symSize: 0x34 }
  - { offset: 0x18CD7, size: 0x8, addend: 0x0, symName: __ZN19DBConnection_SQLITE8sqlQueryEPcP8DBStringii, symObjAddr: 0xACC, symBinAddr: 0x46F8, symSize: 0x308 }
  - { offset: 0x18F49, size: 0x8, addend: 0x0, symName: __ZN15DBCursor_SQLITE10getDatasetEv, symObjAddr: 0xDD4, symBinAddr: 0x4A00, symSize: 0x18 }
  - { offset: 0x18F6D, size: 0x8, addend: 0x0, symName: __ZN19DBConnection_SQLITE7IsErrorEv, symObjAddr: 0xDEC, symBinAddr: 0x4A18, symSize: 0x1C }
  - { offset: 0x18F94, size: 0x8, addend: 0x0, symName: __ZN19DBConnection_SQLITE15getErrorMessageEi, symObjAddr: 0xE08, symBinAddr: 0x4A34, symSize: 0x74 }
  - { offset: 0x18FCB, size: 0x8, addend: 0x0, symName: __Z13replaceStringPcS_S_, symObjAddr: 0xE7C, symBinAddr: 0x4AA8, symSize: 0x238 }
  - { offset: 0x19081, size: 0x8, addend: 0x0, symName: __Z6strstrB8de200100Ua9enable_ifIXLb1EEEPcPKc, symObjAddr: 0x10B4, symBinAddr: 0x4CE0, symSize: 0x2C }
  - { offset: 0x190BC, size: 0x8, addend: 0x0, symName: __Z13queryCallbackPviR8DBBuffer, symObjAddr: 0x10E0, symBinAddr: 0x4D0C, symSize: 0x34C }
  - { offset: 0x191F5, size: 0x8, addend: 0x0, symName: __ZN8DBStringC1Ev, symObjAddr: 0x142C, symBinAddr: 0x5058, symSize: 0x2C }
  - { offset: 0x19220, size: 0x8, addend: 0x0, symName: __ZL10num2nibblei, symObjAddr: 0x1458, symBinAddr: 0x5084, symSize: 0x48 }
  - { offset: 0x1924F, size: 0x8, addend: 0x0, symName: __ZN8DBBufferC1Ei, symObjAddr: 0x15CC, symBinAddr: 0x50CC, symSize: 0x34 }
  - { offset: 0x19286, size: 0x8, addend: 0x0, symName: __ZN8DBBuffer7getSizeEv, symObjAddr: 0x1600, symBinAddr: 0x5100, symSize: 0x24 }
  - { offset: 0x192AB, size: 0x8, addend: 0x0, symName: __ZN8DBBuffer4grabEv, symObjAddr: 0x1624, symBinAddr: 0x5124, symSize: 0x50 }
  - { offset: 0x192DF, size: 0x8, addend: 0x0, symName: __ZN8DBBufferD1Ev, symObjAddr: 0x1674, symBinAddr: 0x5174, symSize: 0x2C }
  - { offset: 0x19308, size: 0x8, addend: 0x0, symName: __ZN19DBConnection_SQLITE9getTablesEPcPi, symObjAddr: 0x16A0, symBinAddr: 0x51A0, symSize: 0x288 }
  - { offset: 0x1940F, size: 0x8, addend: 0x0, symName: __Z13exec_callbackPviPPcS1_, symObjAddr: 0x1928, symBinAddr: 0x5428, symSize: 0x4C }
  - { offset: 0x19488, size: 0x8, addend: 0x0, symName: __Z18dataChangeCallbackPviPKcS1_x, symObjAddr: 0x1974, symBinAddr: 0x5474, symSize: 0x3C }
  - { offset: 0x194FD, size: 0x8, addend: 0x0, symName: __ZN19DBConnection_SQLITE10transBeginEv, symObjAddr: 0x19B0, symBinAddr: 0x54B0, symSize: 0x48 }
  - { offset: 0x19524, size: 0x8, addend: 0x0, symName: __ZN19DBConnection_SQLITE11transCommitEv, symObjAddr: 0x19F8, symBinAddr: 0x54F8, symSize: 0x48 }
  - { offset: 0x1954B, size: 0x8, addend: 0x0, symName: __ZN19DBConnection_SQLITE13transRollbackEv, symObjAddr: 0x1A40, symBinAddr: 0x5540, symSize: 0x48 }
  - { offset: 0x19572, size: 0x8, addend: 0x0, symName: __ZN19DBConnection_SQLITE17getConnectionTypeEv, symObjAddr: 0x1A88, symBinAddr: 0x5588, symSize: 0x14 }
  - { offset: 0x19596, size: 0x8, addend: 0x0, symName: __ZN19DBConnection_SQLITE10getVersionEv, symObjAddr: 0x1A9C, symBinAddr: 0x559C, symSize: 0x14 }
  - { offset: 0x195BB, size: 0x8, addend: 0x0, symName: __ZNSt3__112basic_stringIcNS_11char_traitsIcEENS_9allocatorIcEEEaSB8de200100EPKc, symObjAddr: 0x1AB0, symBinAddr: 0x55B0, symSize: 0x2C }
  - { offset: 0x195EF, size: 0x8, addend: 0x0, symName: __ZN8DBStringC2Ev, symObjAddr: 0x1ADC, symBinAddr: 0x55DC, symSize: 0x20 }
  - { offset: 0x1961A, size: 0x8, addend: 0x0, symName: __ZN8DBBufferC2Ei, symObjAddr: 0x1AFC, symBinAddr: 0x55FC, symSize: 0x40 }
  - { offset: 0x19652, size: 0x8, addend: 0x0, symName: __ZN8DBBufferD2Ev, symObjAddr: 0x1B3C, symBinAddr: 0x563C, symSize: 0x54 }
  - { offset: 0x1967B, size: 0x8, addend: 0x0, symName: __ZNSt3__112basic_stringIcNS_11char_traitsIcEENS_9allocatorIcEEEC2B8de200100Ev, symObjAddr: 0x1B90, symBinAddr: 0x5690, symSize: 0x44 }
  - { offset: 0x196A3, size: 0x8, addend: 0x0, symName: __ZNSt3__19allocatorIcEC1B8de200100Ev, symObjAddr: 0x1BD4, symBinAddr: 0x56D4, symSize: 0x2C }
  - { offset: 0x196CB, size: 0x8, addend: 0x0, symName: __ZNKSt3__112basic_stringIcNS_11char_traitsIcEENS_9allocatorIcEEE14__annotate_newB8de200100Em, symObjAddr: 0x1C00, symBinAddr: 0x5700, symSize: 0x14 }
  - { offset: 0x196FE, size: 0x8, addend: 0x0, symName: __ZNSt3__19allocatorIcEC2B8de200100Ev, symObjAddr: 0x1C14, symBinAddr: 0x5714, symSize: 0x2C }
  - { offset: 0x19726, size: 0x8, addend: 0x0, symName: __ZNSt3__116__non_trivial_ifILb1ENS_9allocatorIcEEEC2B8de200100Ev, symObjAddr: 0x1C40, symBinAddr: 0x5740, symSize: 0x14 }
  - { offset: 0x1B575, size: 0x8, addend: 0x0, symName: __ZNSt3__1L19piecewise_constructE, symObjAddr: 0x2F02, symBinAddr: 0x152288, symSize: 0x0 }
  - { offset: 0x218C5, size: 0x8, addend: 0x0, symName: __ZNSt3__116forward_as_tupleB8de200100IJRKiEEENS_5tupleIJDpOT_EEES6_, symObjAddr: 0x1548, symBinAddr: 0x6B74, symSize: 0x2C }
  - { offset: 0x218FF, size: 0x8, addend: 0x0, symName: __ZNSt3__116forward_as_tupleB8de200100IJEEENS_5tupleIJDpOT_EEES4_, symObjAddr: 0x1574, symBinAddr: 0x6BA0, symSize: 0x4 }
  - { offset: 0x21975, size: 0x8, addend: 0x0, symName: __ZNSt3__117__libcpp_allocateB8de200100INS_11__tree_nodeINS_12__value_typeIi5fieldEEPvEEEEPT_NS_15__element_countEm, symObjAddr: 0x1D7C, symBinAddr: 0x7374, symSize: 0x38 }
  - { offset: 0x219C6, size: 0x8, addend: 0x0, symName: __ZNSt3__121__libcpp_operator_newB8de200100INS_11__tree_nodeINS_12__value_typeIi5fieldEEPvEEEES5_m, symObjAddr: 0x1DCC, symBinAddr: 0x73C4, symSize: 0x24 }
  - { offset: 0x21A08, size: 0x8, addend: 0x0, symName: __ZNSt3__13getB8de200100ILm0EJRKiEEERNS_13tuple_elementIXT_ENS_5tupleIJDpT0_EEEE4typeERS7_, symObjAddr: 0x2000, symBinAddr: 0x75F8, symSize: 0x24 }
  - { offset: 0x21A4B, size: 0x8, addend: 0x0, symName: __ZNSt3__127__tree_balance_after_insertB8de200100IPNS_16__tree_node_baseIPvEEEEvT_S5_, symObjAddr: 0x20DC, symBinAddr: 0x76D4, symSize: 0x334 }
  - { offset: 0x21AC8, size: 0x8, addend: 0x0, symName: __ZNSt3__120__tree_is_left_childB8de200100IPNS_16__tree_node_baseIPvEEEEbT_, symObjAddr: 0x2440, symBinAddr: 0x7A38, symSize: 0x28 }
  - { offset: 0x21AFE, size: 0x8, addend: 0x0, symName: __ZNSt3__118__tree_left_rotateB8de200100IPNS_16__tree_node_baseIPvEEEEvT_, symObjAddr: 0x2468, symBinAddr: 0x7A60, symSize: 0xFC }
  - { offset: 0x21B3E, size: 0x8, addend: 0x0, symName: __ZNSt3__119__tree_right_rotateB8de200100IPNS_16__tree_node_baseIPvEEEEvT_, symObjAddr: 0x2564, symBinAddr: 0x7B5C, symSize: 0xF0 }
  - { offset: 0x21B7F, size: 0x8, addend: 0x0, symName: __ZNSt3__112__destroy_atB8de200100INS_4pairIKi5fieldEELi0EEEvPT_, symObjAddr: 0x27E8, symBinAddr: 0x7DE0, symSize: 0x38 }
  - { offset: 0x21BB7, size: 0x8, addend: 0x0, symName: __ZNSt3__119__libcpp_deallocateB8de200100INS_11__tree_nodeINS_12__value_typeIi5fieldEEPvEEEEvPNS_15__type_identityIT_E4typeENS_15__element_countEm, symObjAddr: 0x2914, symBinAddr: 0x7F0C, symSize: 0x3C }
  - { offset: 0x21C13, size: 0x8, addend: 0x0, symName: __ZNSt3__124__libcpp_operator_deleteB8de200100IJPNS_11__tree_nodeINS_12__value_typeIi5fieldEEPvEEEEEvDpT_, symObjAddr: 0x2950, symBinAddr: 0x7F48, symSize: 0x24 }
  - { offset: 0x21C9F, size: 0x8, addend: 0x0, symName: __ZNSt3__112__to_addressB8de200100IKcEEPT_S3_, symObjAddr: 0x2BA0, symBinAddr: 0x8198, symSize: 0x14 }
  - { offset: 0x24A2F, size: 0x8, addend: 0x0, symName: __ZN15DBCursor_SQLITEC2ER14SqliteDatabaseb, symObjAddr: 0x0, symBinAddr: 0x5754, symSize: 0xAC }
  - { offset: 0x24A74, size: 0x8, addend: 0x0, symName: __ZN9CDBCursorD2Ev, symObjAddr: 0xAC, symBinAddr: 0x5800, symSize: 0x2C }
  - { offset: 0x24A9F, size: 0x8, addend: 0x0, symName: __ZN15DBCursor_SQLITEC1ER14SqliteDatabaseb, symObjAddr: 0xD8, symBinAddr: 0x582C, symSize: 0x40 }
  - { offset: 0x24AE4, size: 0x8, addend: 0x0, symName: __ZN15DBCursor_SQLITED2Ev, symObjAddr: 0x118, symBinAddr: 0x586C, symSize: 0x84 }
  - { offset: 0x24B0E, size: 0x8, addend: 0x0, symName: __ZN15DBCursor_SQLITED1Ev, symObjAddr: 0x1AC, symBinAddr: 0x58F0, symSize: 0x2C }
  - { offset: 0x24B38, size: 0x8, addend: 0x0, symName: __ZN15DBCursor_SQLITED0Ev, symObjAddr: 0x1D8, symBinAddr: 0x591C, symSize: 0x30 }
  - { offset: 0x24B62, size: 0x8, addend: 0x0, symName: __ZN15DBCursor_SQLITE4openEP12DBConnection, symObjAddr: 0x208, symBinAddr: 0x594C, symSize: 0x138 }
  - { offset: 0x24BA4, size: 0x8, addend: 0x0, symName: __ZN15DBCursor_SQLITE20getFieldsInformationEv, symObjAddr: 0x340, symBinAddr: 0x5A84, symSize: 0x3D0 }
  - { offset: 0x24C46, size: 0x8, addend: 0x0, symName: __ZN15DBCursor_SQLITE5closeEv, symObjAddr: 0x710, symBinAddr: 0x5E54, symSize: 0x4C }
  - { offset: 0x24C6C, size: 0x8, addend: 0x0, symName: __ZN15DBCursor_SQLITE5firstEv, symObjAddr: 0x75C, symBinAddr: 0x5EA0, symSize: 0xDC }
  - { offset: 0x24CA0, size: 0x8, addend: 0x0, symName: __ZN15DBCursor_SQLITE10getRowDataEv, symObjAddr: 0x838, symBinAddr: 0x5F7C, symSize: 0x3B4 }
  - { offset: 0x24D75, size: 0x8, addend: 0x0, symName: __ZN15DBCursor_SQLITE4lastEv, symObjAddr: 0xBEC, symBinAddr: 0x6330, symSize: 0xE4 }
  - { offset: 0x24DA9, size: 0x8, addend: 0x0, symName: __ZN15DBCursor_SQLITE4nextEv, symObjAddr: 0xCD0, symBinAddr: 0x6414, symSize: 0x10C }
  - { offset: 0x24DDD, size: 0x8, addend: 0x0, symName: __ZN15DBCursor_SQLITE4prevEv, symObjAddr: 0xDDC, symBinAddr: 0x6520, symSize: 0x104 }
  - { offset: 0x24E11, size: 0x8, addend: 0x0, symName: __ZN15DBCursor_SQLITE4moveEi, symObjAddr: 0xEE0, symBinAddr: 0x6624, symSize: 0xC8 }
  - { offset: 0x24E45, size: 0x8, addend: 0x0, symName: __ZN7Dataset17get_fields_objectEv, symObjAddr: 0xFA8, symBinAddr: 0x66EC, symSize: 0x18 }
  - { offset: 0x24E6E, size: 0x8, addend: 0x0, symName: __ZN10field_propC1Ev, symObjAddr: 0xFC0, symBinAddr: 0x6704, symSize: 0x2C }
  - { offset: 0x24E99, size: 0x8, addend: 0x0, symName: __ZNSt3__13mapIi5fieldNS_4lessIiEENS_9allocatorINS_4pairIKiS1_EEEEEixERS6_, symObjAddr: 0xFEC, symBinAddr: 0x6730, symSize: 0xC4 }
  - { offset: 0x24EDD, size: 0x8, addend: 0x0, symName: __ZN10field_propaSERKS_, symObjAddr: 0x10B0, symBinAddr: 0x67F4, symSize: 0x7C }
  - { offset: 0x24F0C, size: 0x8, addend: 0x0, symName: __ZN10field_propD1Ev, symObjAddr: 0x112C, symBinAddr: 0x6870, symSize: 0x2C }
  - { offset: 0x24F36, size: 0x8, addend: 0x0, symName: __ZNK11field_value10get_isNullEv, symObjAddr: 0x1158, symBinAddr: 0x689C, symSize: 0x1C }
  - { offset: 0x24F5A, size: 0x8, addend: 0x0, symName: __ZNK11field_value9get_fTypeEv, symObjAddr: 0x1174, symBinAddr: 0x68B8, symSize: 0x18 }
  - { offset: 0x24F7F, size: 0x8, addend: 0x0, symName: __ZNKSt3__112basic_stringIcNS_11char_traitsIcEENS_9allocatorIcEEE4sizeB8de200100Ev, symObjAddr: 0x118C, symBinAddr: 0x68D0, symSize: 0x54 }
  - { offset: 0x24FA4, size: 0x8, addend: 0x0, symName: __ZNKSt3__112basic_stringIcNS_11char_traitsIcEENS_9allocatorIcEEE5c_strB8de200100Ev, symObjAddr: 0x11E0, symBinAddr: 0x6924, symSize: 0x24 }
  - { offset: 0x24FC9, size: 0x8, addend: 0x0, symName: __ZNKSt3__112basic_stringIcNS_11char_traitsIcEENS_9allocatorIcEEE4dataB8de200100Ev, symObjAddr: 0x1204, symBinAddr: 0x6948, symSize: 0x28 }
  - { offset: 0x24FED, size: 0x8, addend: 0x0, symName: __ZN9DBCursor3D2Ev, symObjAddr: 0x1240, symBinAddr: 0x6970, symSize: 0x2C }
  - { offset: 0x25017, size: 0x8, addend: 0x0, symName: __ZN9DBCursor2D2Ev, symObjAddr: 0x126C, symBinAddr: 0x699C, symSize: 0x2C }
  - { offset: 0x25041, size: 0x8, addend: 0x0, symName: __ZN8DBCursorD2Ev, symObjAddr: 0x1298, symBinAddr: 0x69C8, symSize: 0x2C }
  - { offset: 0x25069, size: 0x8, addend: 0x0, symName: __ZN10field_propC2Ev, symObjAddr: 0x12D8, symBinAddr: 0x69F4, symSize: 0x44 }
  - { offset: 0x25093, size: 0x8, addend: 0x0, symName: __ZN10field_propD2Ev, symObjAddr: 0x140C, symBinAddr: 0x6A38, symSize: 0x44 }
  - { offset: 0x250D2, size: 0x8, addend: 0x0, symName: __ZNSt3__16__treeINS_12__value_typeIi5fieldEENS_19__map_value_compareIiS3_NS_4lessIiEELb1EEENS_9allocatorIS3_EEE25__emplace_unique_key_argsIiJRKNS_21piecewise_construct_tENS_5tupleIJRKiEEENSF_IJEEEEEENS_4pairINS_15__tree_iteratorIS3_PNS_11__tree_nodeIS3_PvEElEEbEERKT_DpOT0_, symObjAddr: 0x1450, symBinAddr: 0x6A7C, symSize: 0xF8 }
  - { offset: 0x251A6, size: 0x8, addend: 0x0, symName: __ZNKSt3__115__tree_iteratorINS_12__value_typeIi5fieldEEPNS_11__tree_nodeIS3_PvEElEptB8de200100Ev, symObjAddr: 0x1578, symBinAddr: 0x6BA4, symSize: 0x2C }
  - { offset: 0x251CA, size: 0x8, addend: 0x0, symName: __ZNSt3__112__value_typeIi5fieldE11__get_valueB8de200100Ev, symObjAddr: 0x15A4, symBinAddr: 0x6BD0, symSize: 0x14 }
  - { offset: 0x251EF, size: 0x8, addend: 0x0, symName: __ZNSt3__16__treeINS_12__value_typeIi5fieldEENS_19__map_value_compareIiS3_NS_4lessIiEELb1EEENS_9allocatorIS3_EEE12__find_equalIiEERPNS_16__tree_node_baseIPvEERPNS_15__tree_end_nodeISF_EERKT_, symObjAddr: 0x15B8, symBinAddr: 0x6BE4, symSize: 0x16C }
  - { offset: 0x25259, size: 0x8, addend: 0x0, symName: __ZNSt3__16__treeINS_12__value_typeIi5fieldEENS_19__map_value_compareIiS3_NS_4lessIiEELb1EEENS_9allocatorIS3_EEE16__construct_nodeIJRKNS_21piecewise_construct_tENS_5tupleIJRKiEEENSF_IJEEEEEENS_10unique_ptrINS_11__tree_nodeIS3_PvEENS_22__tree_node_destructorINS8_ISN_EEEEEEDpOT_, symObjAddr: 0x1724, symBinAddr: 0x6D50, symSize: 0x120 }
  - { offset: 0x252DF, size: 0x8, addend: 0x0, symName: __ZNSt3__16__treeINS_12__value_typeIi5fieldEENS_19__map_value_compareIiS3_NS_4lessIiEELb1EEENS_9allocatorIS3_EEE16__insert_node_atEPNS_15__tree_end_nodeIPNS_16__tree_node_baseIPvEEEERSF_SF_, symObjAddr: 0x1844, symBinAddr: 0x6E70, symSize: 0xC4 }
  - { offset: 0x25332, size: 0x8, addend: 0x0, symName: __ZNKSt3__110unique_ptrINS_11__tree_nodeINS_12__value_typeIi5fieldEEPvEENS_22__tree_node_destructorINS_9allocatorIS6_EEEEE3getB8de200100Ev, symObjAddr: 0x1908, symBinAddr: 0x6F34, symSize: 0x18 }
  - { offset: 0x25356, size: 0x8, addend: 0x0, symName: __ZNSt3__110unique_ptrINS_11__tree_nodeINS_12__value_typeIi5fieldEEPvEENS_22__tree_node_destructorINS_9allocatorIS6_EEEEE7releaseB8de200100Ev, symObjAddr: 0x1920, symBinAddr: 0x6F4C, symSize: 0x24 }
  - { offset: 0x25389, size: 0x8, addend: 0x0, symName: __ZNSt3__110unique_ptrINS_11__tree_nodeINS_12__value_typeIi5fieldEEPvEENS_22__tree_node_destructorINS_9allocatorIS6_EEEEED1B8de200100Ev, symObjAddr: 0x1944, symBinAddr: 0x6F70, symSize: 0x2C }
  - { offset: 0x253B1, size: 0x8, addend: 0x0, symName: __ZNSt3__115__tree_iteratorINS_12__value_typeIi5fieldEEPNS_11__tree_nodeIS3_PvEElEC1B8de200100ES7_, symObjAddr: 0x1970, symBinAddr: 0x6F9C, symSize: 0x34 }
  - { offset: 0x253F2, size: 0x8, addend: 0x0, symName: __ZNSt3__14pairINS_15__tree_iteratorINS_12__value_typeIi5fieldEEPNS_11__tree_nodeIS4_PvEElEEbEC1B8de200100IS9_RbLi0EEEOT_OT0_, symObjAddr: 0x19A4, symBinAddr: 0x6FD0, symSize: 0x3C }
  - { offset: 0x2544F, size: 0x8, addend: 0x0, symName: __ZNKSt3__16__treeINS_12__value_typeIi5fieldEENS_19__map_value_compareIiS3_NS_4lessIiEELb1EEENS_9allocatorIS3_EEE6__rootB8de200100Ev, symObjAddr: 0x19E0, symBinAddr: 0x700C, symSize: 0x28 }
  - { offset: 0x25474, size: 0x8, addend: 0x0, symName: __ZNKSt3__16__treeINS_12__value_typeIi5fieldEENS_19__map_value_compareIiS3_NS_4lessIiEELb1EEENS_9allocatorIS3_EEE10__root_ptrB8de200100Ev, symObjAddr: 0x1A08, symBinAddr: 0x7034, symSize: 0x24 }
  - { offset: 0x25498, size: 0x8, addend: 0x0, symName: __ZNSt3__16__treeINS_12__value_typeIi5fieldEENS_19__map_value_compareIiS3_NS_4lessIiEELb1EEENS_9allocatorIS3_EEE10value_compB8de200100Ev, symObjAddr: 0x1A2C, symBinAddr: 0x7058, symSize: 0x18 }
  - { offset: 0x254BD, size: 0x8, addend: 0x0, symName: __ZNKSt3__119__map_value_compareIiNS_12__value_typeIi5fieldEENS_4lessIiEELb1EEclB8de200100ERKiRKS3_, symObjAddr: 0x1A44, symBinAddr: 0x7070, symSize: 0x4C }
  - { offset: 0x25500, size: 0x8, addend: 0x0, symName: __ZNKSt3__119__map_value_compareIiNS_12__value_typeIi5fieldEENS_4lessIiEELb1EEclB8de200100ERKS3_RKi, symObjAddr: 0x1A90, symBinAddr: 0x70BC, symSize: 0x44 }
  - { offset: 0x25543, size: 0x8, addend: 0x0, symName: __ZNSt3__16__treeINS_12__value_typeIi5fieldEENS_19__map_value_compareIiS3_NS_4lessIiEELb1EEENS_9allocatorIS3_EEE10__end_nodeB8de200100Ev, symObjAddr: 0x1AD4, symBinAddr: 0x7100, symSize: 0x28 }
  - { offset: 0x25568, size: 0x8, addend: 0x0, symName: __ZNKSt3__16__treeINS_12__value_typeIi5fieldEENS_19__map_value_compareIiS3_NS_4lessIiEELb1EEENS_9allocatorIS3_EEE10__end_nodeB8de200100Ev, symObjAddr: 0x1AFC, symBinAddr: 0x7128, symSize: 0x28 }
  - { offset: 0x25592, size: 0x8, addend: 0x0, symName: __ZNSt3__114pointer_traitsIPNS_15__tree_end_nodeIPNS_16__tree_node_baseIPvEEEEE10pointer_toB8de200100ERS6_, symObjAddr: 0x1B24, symBinAddr: 0x7150, symSize: 0x14 }
  - { offset: 0x255B4, size: 0x8, addend: 0x0, symName: __ZNKSt3__14lessIiEclB8de200100ERKiS3_, symObjAddr: 0x1B38, symBinAddr: 0x7164, symSize: 0x30 }
  - { offset: 0x255F6, size: 0x8, addend: 0x0, symName: __ZNKSt3__112__value_typeIi5fieldE11__get_valueB8de200100Ev, symObjAddr: 0x1B68, symBinAddr: 0x7194, symSize: 0x14 }
  - { offset: 0x2561A, size: 0x8, addend: 0x0, symName: __ZNSt3__16__treeINS_12__value_typeIi5fieldEENS_19__map_value_compareIiS3_NS_4lessIiEELb1EEENS_9allocatorIS3_EEE12__node_allocB8de200100Ev, symObjAddr: 0x1B7C, symBinAddr: 0x71A8, symSize: 0x18 }
  - { offset: 0x2563F, size: 0x8, addend: 0x0, symName: __ZNSt3__116allocator_traitsINS_9allocatorINS_11__tree_nodeINS_12__value_typeIi5fieldEEPvEEEEE8allocateB8de200100ERS8_m, symObjAddr: 0x1B94, symBinAddr: 0x71C0, symSize: 0x2C }
  - { offset: 0x25671, size: 0x8, addend: 0x0, symName: __ZNSt3__122__tree_node_destructorINS_9allocatorINS_11__tree_nodeINS_12__value_typeIi5fieldEEPvEEEEEC1B8de200100ERS8_b, symObjAddr: 0x1BC0, symBinAddr: 0x71EC, symSize: 0x40 }
  - { offset: 0x256BC, size: 0x8, addend: 0x0, symName: __ZNSt3__110unique_ptrINS_11__tree_nodeINS_12__value_typeIi5fieldEEPvEENS_22__tree_node_destructorINS_9allocatorIS6_EEEEEC1B8de200100ILb1EvEEPS6_NS_16__dependent_typeINS_27__unique_ptr_deleter_sfinaeISA_EEXT_EE20__good_rval_ref_typeE, symObjAddr: 0x1C00, symBinAddr: 0x722C, symSize: 0x3C }
  - { offset: 0x2570D, size: 0x8, addend: 0x0, symName: __ZNSt3__116allocator_traitsINS_9allocatorINS_11__tree_nodeINS_12__value_typeIi5fieldEEPvEEEEE9constructB8de200100INS_4pairIKiS4_EEJRKNS_21piecewise_construct_tENS_5tupleIJRSC_EEENSH_IJEEEELi0EEEvRS8_PT_DpOT0_, symObjAddr: 0x1C3C, symBinAddr: 0x7268, symSize: 0x44 }
  - { offset: 0x25791, size: 0x8, addend: 0x0, symName: __ZNSt3__122__tree_key_value_typesINS_12__value_typeIi5fieldEEE9__get_ptrB8de200100ERS3_, symObjAddr: 0x1C80, symBinAddr: 0x72AC, symSize: 0x24 }
  - { offset: 0x257B4, size: 0x8, addend: 0x0, symName: __ZNKSt3__110unique_ptrINS_11__tree_nodeINS_12__value_typeIi5fieldEEPvEENS_22__tree_node_destructorINS_9allocatorIS6_EEEEEptB8de200100Ev, symObjAddr: 0x1CA4, symBinAddr: 0x72D0, symSize: 0x18 }
  - { offset: 0x257D8, size: 0x8, addend: 0x0, symName: __ZNSt3__110unique_ptrINS_11__tree_nodeINS_12__value_typeIi5fieldEEPvEENS_22__tree_node_destructorINS_9allocatorIS6_EEEEE11get_deleterB8de200100Ev, symObjAddr: 0x1CBC, symBinAddr: 0x72E8, symSize: 0x18 }
  - { offset: 0x257FD, size: 0x8, addend: 0x0, symName: __ZNSt3__19allocatorINS_11__tree_nodeINS_12__value_typeIi5fieldEEPvEEE8allocateB8de200100Em, symObjAddr: 0x1CD4, symBinAddr: 0x7300, symSize: 0x50 }
  - { offset: 0x2583A, size: 0x8, addend: 0x0, symName: __ZNSt3__116allocator_traitsINS_9allocatorINS_11__tree_nodeINS_12__value_typeIi5fieldEEPvEEEEE8max_sizeB8de200100IS8_Li0EEEmRKS8_, symObjAddr: 0x1D24, symBinAddr: 0x7350, symSize: 0x24 }
  - { offset: 0x2586C, size: 0x8, addend: 0x0, symName: __ZNKSt3__19allocatorINS_11__tree_nodeINS_12__value_typeIi5fieldEEPvEEE8max_sizeB8de200100Ev, symObjAddr: 0x1DB4, symBinAddr: 0x73AC, symSize: 0x18 }
  - { offset: 0x25890, size: 0x8, addend: 0x0, symName: __ZNSt3__122__tree_node_destructorINS_9allocatorINS_11__tree_nodeINS_12__value_typeIi5fieldEEPvEEEEEC2B8de200100ERS8_b, symObjAddr: 0x1DF0, symBinAddr: 0x73E8, symSize: 0x30 }
  - { offset: 0x258D6, size: 0x8, addend: 0x0, symName: __ZNSt3__110unique_ptrINS_11__tree_nodeINS_12__value_typeIi5fieldEEPvEENS_22__tree_node_destructorINS_9allocatorIS6_EEEEEC2B8de200100ILb1EvEEPS6_NS_16__dependent_typeINS_27__unique_ptr_deleter_sfinaeISA_EEXT_EE20__good_rval_ref_typeE, symObjAddr: 0x1E20, symBinAddr: 0x7418, symSize: 0x4C }
  - { offset: 0x2592B, size: 0x8, addend: 0x0, symName: __ZNSt3__125__compressed_pair_paddingINS_22__tree_node_destructorINS_9allocatorINS_11__tree_nodeINS_12__value_typeIi5fieldEEPvEEEEEELb0EEC1Ev, symObjAddr: 0x1E6C, symBinAddr: 0x7464, symSize: 0x2C }
  - { offset: 0x25955, size: 0x8, addend: 0x0, symName: __ZNSt3__125__compressed_pair_paddingINS_22__tree_node_destructorINS_9allocatorINS_11__tree_nodeINS_12__value_typeIi5fieldEEPvEEEEEELb0EEC2Ev, symObjAddr: 0x1E98, symBinAddr: 0x7490, symSize: 0x4C }
  - { offset: 0x25980, size: 0x8, addend: 0x0, symName: __ZNSt3__19allocatorINS_11__tree_nodeINS_12__value_typeIi5fieldEEPvEEE9constructB8de200100INS_4pairIKiS3_EEJRKNS_21piecewise_construct_tENS_5tupleIJRSA_EEENSF_IJEEEEEEvPT_DpOT0_, symObjAddr: 0x1EE4, symBinAddr: 0x74DC, symSize: 0x44 }
  - { offset: 0x259FA, size: 0x8, addend: 0x0, symName: __ZNSt3__14pairIKi5fieldEC1B8de200100IJRS1_EJEEENS_21piecewise_construct_tENS_5tupleIJDpT_EEENS7_IJDpT0_EEE, symObjAddr: 0x1F28, symBinAddr: 0x7520, symSize: 0x3C }
  - { offset: 0x25A5D, size: 0x8, addend: 0x0, symName: __ZNSt3__14pairIKi5fieldEC1B8de200100IJRS1_EJEJLm0EEJEEENS_21piecewise_construct_tERNS_5tupleIJDpT_EEERNS7_IJDpT0_EEENS_15__tuple_indicesIJXspT1_EEEENSG_IJXspT2_EEEE, symObjAddr: 0x1F64, symBinAddr: 0x755C, symSize: 0x3C }
  - { offset: 0x25AEB, size: 0x8, addend: 0x0, symName: __ZNSt3__14pairIKi5fieldEC2B8de200100IJRS1_EJEJLm0EEJEEENS_21piecewise_construct_tERNS_5tupleIJDpT_EEERNS7_IJDpT0_EEENS_15__tuple_indicesIJXspT1_EEEENSG_IJXspT2_EEEE, symObjAddr: 0x1FA0, symBinAddr: 0x7598, symSize: 0x60 }
  - { offset: 0x25B7E, size: 0x8, addend: 0x0, symName: __ZN5fieldC1Ev, symObjAddr: 0x2024, symBinAddr: 0x761C, symSize: 0x2C }
  - { offset: 0x25BA8, size: 0x8, addend: 0x0, symName: __ZNSt3__112__tuple_leafILm0ERKiLb0EE3getB8de200100Ev, symObjAddr: 0x2050, symBinAddr: 0x7648, symSize: 0x18 }
  - { offset: 0x25BCC, size: 0x8, addend: 0x0, symName: __ZN5fieldC2Ev, symObjAddr: 0x2068, symBinAddr: 0x7660, symSize: 0x60 }
  - { offset: 0x25BF6, size: 0x8, addend: 0x0, symName: __ZNSt3__16__treeINS_12__value_typeIi5fieldEENS_19__map_value_compareIiS3_NS_4lessIiEELb1EEENS_9allocatorIS3_EEE12__begin_nodeB8de200100Ev, symObjAddr: 0x20C8, symBinAddr: 0x76C0, symSize: 0x14 }
  - { offset: 0x25C1A, size: 0x8, addend: 0x0, symName: __ZNSt3__16__treeINS_12__value_typeIi5fieldEENS_19__map_value_compareIiS3_NS_4lessIiEELb1EEENS_9allocatorIS3_EEE4sizeB8de200100Ev, symObjAddr: 0x2410, symBinAddr: 0x7A08, symSize: 0x18 }
  - { offset: 0x25C3E, size: 0x8, addend: 0x0, symName: __ZNKSt3__116__tree_node_baseIPvE15__parent_unsafeB8de200100Ev, symObjAddr: 0x2428, symBinAddr: 0x7A20, symSize: 0x18 }
  - { offset: 0x25C62, size: 0x8, addend: 0x0, symName: __ZNSt3__116__tree_node_baseIPvE12__set_parentB8de200100EPS2_, symObjAddr: 0x2654, symBinAddr: 0x7C4C, symSize: 0x20 }
  - { offset: 0x25C95, size: 0x8, addend: 0x0, symName: __ZNSt3__110unique_ptrINS_11__tree_nodeINS_12__value_typeIi5fieldEEPvEENS_22__tree_node_destructorINS_9allocatorIS6_EEEEED2B8de200100Ev, symObjAddr: 0x2674, symBinAddr: 0x7C6C, symSize: 0x30 }
  - { offset: 0x25CBE, size: 0x8, addend: 0x0, symName: __ZNSt3__110unique_ptrINS_11__tree_nodeINS_12__value_typeIi5fieldEEPvEENS_22__tree_node_destructorINS_9allocatorIS6_EEEEE5resetB8de200100EPS6_, symObjAddr: 0x26A4, symBinAddr: 0x7C9C, symSize: 0x58 }
  - { offset: 0x25D01, size: 0x8, addend: 0x0, symName: __ZNSt3__122__tree_node_destructorINS_9allocatorINS_11__tree_nodeINS_12__value_typeIi5fieldEEPvEEEEEclB8de200100EPS7_, symObjAddr: 0x26FC, symBinAddr: 0x7CF4, symSize: 0x90 }
  - { offset: 0x25D35, size: 0x8, addend: 0x0, symName: __ZNSt3__116allocator_traitsINS_9allocatorINS_11__tree_nodeINS_12__value_typeIi5fieldEEPvEEEEE7destroyB8de200100INS_4pairIKiS4_EEvLi0EEEvRS8_PT_, symObjAddr: 0x278C, symBinAddr: 0x7D84, symSize: 0x28 }
  - { offset: 0x25D76, size: 0x8, addend: 0x0, symName: __ZNSt3__116allocator_traitsINS_9allocatorINS_11__tree_nodeINS_12__value_typeIi5fieldEEPvEEEEE10deallocateB8de200100ERS8_PS7_m, symObjAddr: 0x27B4, symBinAddr: 0x7DAC, symSize: 0x34 }
  - { offset: 0x25DB7, size: 0x8, addend: 0x0, symName: __ZNSt3__14pairIKi5fieldED1Ev, symObjAddr: 0x2820, symBinAddr: 0x7E18, symSize: 0x2C }
  - { offset: 0x25DE1, size: 0x8, addend: 0x0, symName: __ZNSt3__14pairIKi5fieldED2Ev, symObjAddr: 0x284C, symBinAddr: 0x7E44, symSize: 0x30 }
  - { offset: 0x25E0B, size: 0x8, addend: 0x0, symName: __ZN5fieldD1Ev, symObjAddr: 0x287C, symBinAddr: 0x7E74, symSize: 0x2C }
  - { offset: 0x25E35, size: 0x8, addend: 0x0, symName: __ZN5fieldD2Ev, symObjAddr: 0x28A8, symBinAddr: 0x7EA0, symSize: 0x38 }
  - { offset: 0x25E60, size: 0x8, addend: 0x0, symName: __ZNSt3__19allocatorINS_11__tree_nodeINS_12__value_typeIi5fieldEEPvEEE10deallocateB8de200100EPS6_m, symObjAddr: 0x28E0, symBinAddr: 0x7ED8, symSize: 0x34 }
  - { offset: 0x25EA0, size: 0x8, addend: 0x0, symName: __ZNSt3__115__tree_iteratorINS_12__value_typeIi5fieldEEPNS_11__tree_nodeIS3_PvEElEC2B8de200100ES7_, symObjAddr: 0x2974, symBinAddr: 0x7F6C, symSize: 0x20 }
  - { offset: 0x25ED7, size: 0x8, addend: 0x0, symName: __ZNSt3__14pairINS_15__tree_iteratorINS_12__value_typeIi5fieldEEPNS_11__tree_nodeIS4_PvEElEEbEC2B8de200100IS9_RbLi0EEEOT_OT0_, symObjAddr: 0x2994, symBinAddr: 0x7F8C, symSize: 0x38 }
  - { offset: 0x25F33, size: 0x8, addend: 0x0, symName: __ZNSt3__15tupleIJRKiEEC1B8de200100INS_4_AndELi0EEES2_, symObjAddr: 0x29CC, symBinAddr: 0x7FC4, symSize: 0x34 }
  - { offset: 0x25F7A, size: 0x8, addend: 0x0, symName: __ZNSt3__15tupleIJRKiEEC2B8de200100INS_4_AndELi0EEES2_, symObjAddr: 0x2A00, symBinAddr: 0x7FF8, symSize: 0x34 }
  - { offset: 0x25FC1, size: 0x8, addend: 0x0, symName: __ZNSt3__112__tuple_implINS_15__tuple_indicesIJLm0EEEEJRKiEEC1B8de200100IJLm0EEJS4_EJEJEJS4_EEENS1_IJXspT_EEEENS_13__tuple_typesIJDpT0_EEENS1_IJXspT1_EEEENS8_IJDpT2_EEEDpOT3_, symObjAddr: 0x2A34, symBinAddr: 0x802C, symSize: 0x34 }
  - { offset: 0x26057, size: 0x8, addend: 0x0, symName: __ZNSt3__112__tuple_implINS_15__tuple_indicesIJLm0EEEEJRKiEEC2B8de200100IJLm0EEJS4_EJEJEJS4_EEENS1_IJXspT_EEEENS_13__tuple_typesIJDpT0_EEENS1_IJXspT1_EEEENS8_IJDpT2_EEEDpOT3_, symObjAddr: 0x2A68, symBinAddr: 0x8060, symSize: 0x34 }
  - { offset: 0x260ED, size: 0x8, addend: 0x0, symName: __ZNSt3__112__tuple_leafILm0ERKiLb0EEC2B8de200100IS2_Li0EEEOT_, symObjAddr: 0x2A9C, symBinAddr: 0x8094, symSize: 0x20 }
  - { offset: 0x26134, size: 0x8, addend: 0x0, symName: __ZNSt3__114pointer_traitsIPNS_12__value_typeIi5fieldEEE10pointer_toB8de200100ERS3_, symObjAddr: 0x2ABC, symBinAddr: 0x80B4, symSize: 0x14 }
  - { offset: 0x26156, size: 0x8, addend: 0x0, symName: __ZNKSt3__115__tree_iteratorINS_12__value_typeIi5fieldEEPNS_11__tree_nodeIS3_PvEElE8__get_npB8de200100Ev, symObjAddr: 0x2AD0, symBinAddr: 0x80C8, symSize: 0x18 }
  - { offset: 0x2617A, size: 0x8, addend: 0x0, symName: __ZNKSt3__112basic_stringIcNS_11char_traitsIcEENS_9allocatorIcEEE9__is_longB8de200100Ev, symObjAddr: 0x2AE8, symBinAddr: 0x80E0, symSize: 0x24 }
  - { offset: 0x2619F, size: 0x8, addend: 0x0, symName: __ZNKSt3__112basic_stringIcNS_11char_traitsIcEENS_9allocatorIcEEE15__get_long_sizeB8de200100Ev, symObjAddr: 0x2B0C, symBinAddr: 0x8104, symSize: 0x44 }
  - { offset: 0x261C4, size: 0x8, addend: 0x0, symName: __ZNKSt3__112basic_stringIcNS_11char_traitsIcEENS_9allocatorIcEEE16__get_short_sizeB8de200100Ev, symObjAddr: 0x2B50, symBinAddr: 0x8148, symSize: 0x50 }
  - { offset: 0x261E9, size: 0x8, addend: 0x0, symName: __ZNKSt3__112basic_stringIcNS_11char_traitsIcEENS_9allocatorIcEEE13__get_pointerB8de200100Ev, symObjAddr: 0x2BB4, symBinAddr: 0x81AC, symSize: 0x54 }
  - { offset: 0x2620E, size: 0x8, addend: 0x0, symName: __ZNKSt3__112basic_stringIcNS_11char_traitsIcEENS_9allocatorIcEEE18__get_long_pointerB8de200100Ev, symObjAddr: 0x2C08, symBinAddr: 0x8200, symSize: 0x44 }
  - { offset: 0x26233, size: 0x8, addend: 0x0, symName: __ZNKSt3__112basic_stringIcNS_11char_traitsIcEENS_9allocatorIcEEE19__get_short_pointerB8de200100Ev, symObjAddr: 0x2C4C, symBinAddr: 0x8244, symSize: 0x24 }
  - { offset: 0x26258, size: 0x8, addend: 0x0, symName: __ZNSt3__114pointer_traitsIPKcE10pointer_toB8de200100ERS1_, symObjAddr: 0x2C70, symBinAddr: 0x8268, symSize: 0x14 }
  - { offset: 0x280E9, size: 0x8, addend: 0x0, symName: __Z14string_to_utf8PKc, symObjAddr: 0x0, symBinAddr: 0x827C, symSize: 0x138 }
  - { offset: 0x280F6, size: 0x8, addend: 0x0, symName: __Z14string_to_utf8PKc, symObjAddr: 0x0, symBinAddr: 0x827C, symSize: 0x138 }
  - { offset: 0x2811F, size: 0x8, addend: 0x0, symName: __ZZ14string_to_utf8PKcE22s_text_to_unicode_info, symObjAddr: 0x4890, symBinAddr: 0x164B78, symSize: 0x0 }
  - { offset: 0x281AE, size: 0x8, addend: 0x0, symName: __Z16string_from_utf8PKc, symObjAddr: 0x138, symBinAddr: 0x83B4, symSize: 0x12C }
  - { offset: 0x281D7, size: 0x8, addend: 0x0, symName: __ZZ16string_from_utf8PKcE22s_unicode_to_text_info, symObjAddr: 0x4898, symBinAddr: 0x164B80, symSize: 0x0 }
  - { offset: 0x28266, size: 0x8, addend: 0x0, symName: __Z17string_from_utf16PKti, symObjAddr: 0x264, symBinAddr: 0x84E0, symSize: 0x16C }
  - { offset: 0x2828F, size: 0x8, addend: 0x0, symName: __ZZ17string_from_utf16PKtiE19s_unicode_converter, symObjAddr: 0x48A0, symBinAddr: 0x164B88, symSize: 0x0 }
  - { offset: 0x2837C, size: 0x8, addend: 0x0, symName: __Z17os_path_to_nativePKc, symObjAddr: 0x3D0, symBinAddr: 0x864C, symSize: 0x24 }
  - { offset: 0x283A8, size: 0x8, addend: 0x0, symName: __Z22os_path_to_native_utf8PKc, symObjAddr: 0x3F4, symBinAddr: 0x8670, symSize: 0x24 }
  - { offset: 0x283D4, size: 0x8, addend: 0x0, symName: __Z19os_path_from_nativePKc, symObjAddr: 0x418, symBinAddr: 0x8694, symSize: 0x24 }
  - { offset: 0x28400, size: 0x8, addend: 0x0, symName: __Z15os_path_resolvePKc, symObjAddr: 0x43C, symBinAddr: 0x86B8, symSize: 0x35C }
  - { offset: 0x284E6, size: 0x8, addend: 0x0, symName: __ZL21get_current_directoryv, symObjAddr: 0x798, symBinAddr: 0x8A14, symSize: 0x9C }
  - { offset: 0x2852F, size: 0x8, addend: 0x0, symName: __ZL8strclonePKc, symObjAddr: 0x834, symBinAddr: 0x8AB0, symSize: 0x54 }
  - { offset: 0x28569, size: 0x8, addend: 0x0, symName: __Z6strchrB8dn200100Ua9enable_ifIXLb1EEEPci, symObjAddr: 0x888, symBinAddr: 0x8B04, symSize: 0x2C }
  - { offset: 0x285A3, size: 0x8, addend: 0x0, symName: __Z7strrchrB8dn200100Ua9enable_ifIXLb1EEEPci, symObjAddr: 0x8B4, symBinAddr: 0x8B30, symSize: 0x2C }
  - { offset: 0x28AE3, size: 0x8, addend: 0x0, symName: __ZNSt3__1L19piecewise_constructE, symObjAddr: 0x94CB, symBinAddr: 0x152289, symSize: 0x0 }
  - { offset: 0x2FE91, size: 0x8, addend: 0x0, symName: __ZNSt3__1plB8de200100IcNS_11char_traitsIcEENS_9allocatorIcEEEENS_12basic_stringIT_T0_T1_EEOS9_PKS6_, symObjAddr: 0x117C, symBinAddr: 0x9BAC, symSize: 0x40 }
  - { offset: 0x2FEEA, size: 0x8, addend: 0x0, symName: __ZNSt3__1plB8de200100IcNS_11char_traitsIcEENS_9allocatorIcEEEENS_12basic_stringIT_T0_T1_EEPKS6_OS9_, symObjAddr: 0x11BC, symBinAddr: 0x9BEC, symSize: 0x44 }
  - { offset: 0x2FF43, size: 0x8, addend: 0x0, symName: __ZNSt3__1eqB8de200100IcNS_11char_traitsIcEENS_9allocatorIcEEEEbRKNS_12basic_stringIT_T0_T1_EEPKS6_, symObjAddr: 0x2428, symBinAddr: 0xADE0, symSize: 0xBC }
  - { offset: 0x2FFAA, size: 0x8, addend: 0x0, symName: __ZNSt3__1neB8de200100IPKcPcEEbRKNS_11__wrap_iterIT_EERKNS4_IT0_EE, symObjAddr: 0x27D0, symBinAddr: 0xB188, symSize: 0x30 }
  - { offset: 0x2FFF7, size: 0x8, addend: 0x0, symName: __ZNSt3__1neB8de200100ERKNS_20__map_const_iteratorINS_21__tree_const_iteratorINS_12__value_typeINS_12basic_stringIcNS_11char_traitsIcEENS_9allocatorIcEEEE11field_valueEEPNS_11__tree_nodeISA_PvEElEEEESI_, symObjAddr: 0x2BFC, symBinAddr: 0xB5B4, symSize: 0x2C }
  - { offset: 0x30035, size: 0x8, addend: 0x0, symName: __ZNSt3__1eqB8de200100IcNS_11char_traitsIcEENS_9allocatorIcEEEEbRKNS_12basic_stringIT_T0_T1_EESB_, symObjAddr: 0x2C60, symBinAddr: 0xB618, symSize: 0x90 }
  - { offset: 0x300D0, size: 0x8, addend: 0x0, symName: __ZNSt3__112__destroy_atB8de200100INS_11__list_nodeINS_12basic_stringIcNS_11char_traitsIcEENS_9allocatorIcEEEEPvEELi0EEEvPT_, symObjAddr: 0x39F4, symBinAddr: 0xC3AC, symSize: 0x38 }
  - { offset: 0x30108, size: 0x8, addend: 0x0, symName: __ZNSt3__112__destroy_atB8de200100INS_12basic_stringIcNS_11char_traitsIcEENS_9allocatorIcEEEELi0EEEvPT_, symObjAddr: 0x3A60, symBinAddr: 0xC418, symSize: 0x38 }
  - { offset: 0x30140, size: 0x8, addend: 0x0, symName: __ZNSt3__119__libcpp_deallocateB8de200100INS_11__list_nodeINS_12basic_stringIcNS_11char_traitsIcEENS_9allocatorIcEEEEPvEEEEvPNS_15__type_identityIT_E4typeENS_15__element_countEm, symObjAddr: 0x3B0C, symBinAddr: 0xC4C4, symSize: 0x3C }
  - { offset: 0x3019C, size: 0x8, addend: 0x0, symName: __ZNSt3__124__libcpp_operator_deleteB8de200100IJPNS_11__list_nodeINS_12basic_stringIcNS_11char_traitsIcEENS_9allocatorIcEEEEPvEEEEEvDpT_, symObjAddr: 0x3B48, symBinAddr: 0xC500, symSize: 0x24 }
  - { offset: 0x301CF, size: 0x8, addend: 0x0, symName: __ZNSt3__1eqB8de200100IPKcPcEEbRKNS_11__wrap_iterIT_EERKNS4_IT0_EE, symObjAddr: 0x3C34, symBinAddr: 0xC5EC, symSize: 0x44 }
  - { offset: 0x3021C, size: 0x8, addend: 0x0, symName: __ZNSt3__112__destroy_atB8de200100INS_4pairIKNS_12basic_stringIcNS_11char_traitsIcEENS_9allocatorIcEEEE11field_valueEELi0EEEvPT_, symObjAddr: 0x43F8, symBinAddr: 0xCBA8, symSize: 0x38 }
  - { offset: 0x30254, size: 0x8, addend: 0x0, symName: __ZNSt3__119__libcpp_deallocateB8de200100INS_11__tree_nodeINS_12__value_typeINS_12basic_stringIcNS_11char_traitsIcEENS_9allocatorIcEEEE11field_valueEEPvEEEEvPNS_15__type_identityIT_E4typeENS_15__element_countEm, symObjAddr: 0x44DC, symBinAddr: 0xCC8C, symSize: 0x3C }
  - { offset: 0x302B0, size: 0x8, addend: 0x0, symName: __ZNSt3__124__libcpp_operator_deleteB8de200100IJPNS_11__tree_nodeINS_12__value_typeINS_12basic_stringIcNS_11char_traitsIcEENS_9allocatorIcEEEE11field_valueEEPvEEEEEvDpT_, symObjAddr: 0x4518, symBinAddr: 0xCCC8, symSize: 0x24 }
  - { offset: 0x302E4, size: 0x8, addend: 0x0, symName: __ZNSt3__119__libcpp_deallocateB8de200100IcEEvPNS_15__type_identityIT_E4typeENS_15__element_countEm, symObjAddr: 0x6344, symBinAddr: 0xD340, symSize: 0x38 }
  - { offset: 0x30340, size: 0x8, addend: 0x0, symName: __ZNSt3__124__libcpp_operator_deleteB8de200100IJPcEEEvDpT_, symObjAddr: 0x637C, symBinAddr: 0xD378, symSize: 0x24 }
  - { offset: 0x303A7, size: 0x8, addend: 0x0, symName: __ZNSt3__110__str_findB8de200100IcmNS_11char_traitsIcEELm18446744073709551615EEET0_PKT_S3_S6_S3_S3_, symObjAddr: 0x64F0, symBinAddr: 0xD4EC, symSize: 0xD4 }
  - { offset: 0x3044F, size: 0x8, addend: 0x0, symName: __ZNSt3__118__search_substringB8de200100IcNS_11char_traitsIcEEEEPKT_S5_S5_S5_S5_, symObjAddr: 0x65C4, symBinAddr: 0xD5C0, symSize: 0x134 }
  - { offset: 0x304E9, size: 0x8, addend: 0x0, symName: __ZNSt3__118__constexpr_memchrB8de200100IKccEEPT_S3_T0_m, symObjAddr: 0x6794, symBinAddr: 0xD790, symSize: 0x40 }
  - { offset: 0x30560, size: 0x8, addend: 0x0, symName: __ZNSt3__116forward_as_tupleB8de200100IJiEEENS_5tupleIJDpOT_EEES4_, symObjAddr: 0x6980, symBinAddr: 0xD938, symSize: 0x2C }
  - { offset: 0x3059A, size: 0x8, addend: 0x0, symName: __ZNSt3__13getB8de200100ILm0EJOiEEERNS_13tuple_elementIXT_ENS_5tupleIJDpT0_EEEE4typeERS6_, symObjAddr: 0x6C2C, symBinAddr: 0xDBE4, symSize: 0x24 }
  - { offset: 0x305F1, size: 0x8, addend: 0x0, symName: __ZNSt3__118__constexpr_strlenB8de200100IcEEmPKT_, symObjAddr: 0x6D7C, symBinAddr: 0xDD34, symSize: 0x24 }
  - { offset: 0x30627, size: 0x8, addend: 0x0, symName: __ZNSt3__1neB8de200100ERKNS_21__tree_const_iteratorINS_12__value_typeINS_12basic_stringIcNS_11char_traitsIcEENS_9allocatorIcEEEE11field_valueEEPNS_11__tree_nodeIS9_PvEElEESG_, symObjAddr: 0x71DC, symBinAddr: 0xE194, symSize: 0x30 }
  - { offset: 0x30665, size: 0x8, addend: 0x0, symName: __ZNSt3__1eqB8de200100ERKNS_21__tree_const_iteratorINS_12__value_typeINS_12basic_stringIcNS_11char_traitsIcEENS_9allocatorIcEEEE11field_valueEEPNS_11__tree_nodeIS9_PvEElEESG_, symObjAddr: 0x74F4, symBinAddr: 0xE4AC, symSize: 0x2C }
  - { offset: 0x306A3, size: 0x8, addend: 0x0, symName: __ZNSt3__1ltB8de200100IcNS_11char_traitsIcEENS_9allocatorIcEEEEbRKNS_12basic_stringIT_T0_T1_EESB_, symObjAddr: 0x78E8, symBinAddr: 0xE8A0, symSize: 0x34 }
  - { offset: 0x306FB, size: 0x8, addend: 0x0, symName: __ZNSt3__111__tree_leafB8de200100IPNS_16__tree_node_baseIPvEEEET_S5_, symObjAddr: 0x7D14, symBinAddr: 0xEC1C, symSize: 0x80 }
  - { offset: 0x30730, size: 0x8, addend: 0x0, symName: __ZNSt3__116__tree_next_iterB8de200100IPNS_15__tree_end_nodeIPNS_16__tree_node_baseIPvEEEES5_EET_T0_, symObjAddr: 0x7D94, symBinAddr: 0xEC9C, symSize: 0x8C }
  - { offset: 0x3076E, size: 0x8, addend: 0x0, symName: __ZNSt3__110__tree_minB8de200100IPNS_16__tree_node_baseIPvEEEET_S5_, symObjAddr: 0x7E20, symBinAddr: 0xED28, symSize: 0x58 }
  - { offset: 0x307C1, size: 0x8, addend: 0x0, symName: __ZNSt3__117__libcpp_allocateB8de200100INS_11__tree_nodeINS_12__value_typeINS_12basic_stringIcNS_11char_traitsIcEENS_9allocatorIcEEEE11field_valueEEPvEEEEPT_NS_15__element_countEm, symObjAddr: 0x82D4, symBinAddr: 0xF1DC, symSize: 0x38 }
  - { offset: 0x30812, size: 0x8, addend: 0x0, symName: __ZNSt3__121__libcpp_operator_newB8de200100INS_11__tree_nodeINS_12__value_typeINS_12basic_stringIcNS_11char_traitsIcEENS_9allocatorIcEEEE11field_valueEEPvEEEESB_m, symObjAddr: 0x832C, symBinAddr: 0xF234, symSize: 0x24 }
  - { offset: 0x309A8, size: 0x8, addend: 0x0, symName: __ZNSt3__114__construct_atB8de200100INS_11__list_nodeINS_12basic_stringIcNS_11char_traitsIcEENS_9allocatorIcEEEEPvEEJRPNS_16__list_node_baseIS7_S8_EESD_EPS9_EEPT_SG_DpOT0_, symObjAddr: 0x8AD0, symBinAddr: 0xF9D8, symSize: 0x58 }
  - { offset: 0x30A0E, size: 0x8, addend: 0x0, symName: __ZNSt3__117__libcpp_allocateB8de200100INS_11__list_nodeINS_12basic_stringIcNS_11char_traitsIcEENS_9allocatorIcEEEEPvEEEEPT_NS_15__element_countEm, symObjAddr: 0x8CA8, symBinAddr: 0xFBB0, symSize: 0x38 }
  - { offset: 0x30A5F, size: 0x8, addend: 0x0, symName: __ZNSt3__121__libcpp_operator_newB8de200100INS_11__list_nodeINS_12basic_stringIcNS_11char_traitsIcEENS_9allocatorIcEEEEPvEEEES8_m, symObjAddr: 0x8CF8, symBinAddr: 0xFC00, symSize: 0x24 }
  - { offset: 0x3324D, size: 0x8, addend: 0x0, symName: __ZN8DatabaseC2Ev, symObjAddr: 0x0, symBinAddr: 0x8B5C, symSize: 0x1A0 }
  - { offset: 0x33277, size: 0x8, addend: 0x0, symName: __ZN8DatabaseD2Ev, symObjAddr: 0x1F8, symBinAddr: 0x8CFC, symSize: 0xA0 }
  - { offset: 0x332A1, size: 0x8, addend: 0x0, symName: __ZN8DatabaseD1Ev, symObjAddr: 0x2A8, symBinAddr: 0x8D9C, symSize: 0x14 }
  - { offset: 0x332CB, size: 0x8, addend: 0x0, symName: __ZN8DatabaseD0Ev, symObjAddr: 0x2BC, symBinAddr: 0x8DB0, symSize: 0xC }
  - { offset: 0x332F5, size: 0x8, addend: 0x0, symName: __ZN8Database11connectFullEPKcS1_S1_S1_S1_, symObjAddr: 0x2C8, symBinAddr: 0x8DBC, symSize: 0x9C }
  - { offset: 0x33361, size: 0x8, addend: 0x0, symName: __ZN7DatasetC2Ev, symObjAddr: 0x364, symBinAddr: 0x8E58, symSize: 0x170 }
  - { offset: 0x3338B, size: 0x8, addend: 0x0, symName: __ZNSt3__13mapINS_12basic_stringIcNS_11char_traitsIcEENS_9allocatorIcEEEE11field_valueNS_4lessIS6_EENS4_INS_4pairIKS6_S7_EEEEEC1B8de200100Ev, symObjAddr: 0x4D4, symBinAddr: 0x8FC8, symSize: 0x2C }
  - { offset: 0x333B3, size: 0x8, addend: 0x0, symName: __ZNSt3__14listINS_12basic_stringIcNS_11char_traitsIcEENS_9allocatorIcEEEENS4_IS6_EEEC1B8de200100Ev, symObjAddr: 0x500, symBinAddr: 0x8FF4, symSize: 0x2C }
  - { offset: 0x333DB, size: 0x8, addend: 0x0, symName: __ZNSt3__13mapIi5fieldNS_4lessIiEENS_9allocatorINS_4pairIKiS1_EEEEEC1B8de200100Ev, symObjAddr: 0x52C, symBinAddr: 0x9020, symSize: 0x2C }
  - { offset: 0x33403, size: 0x8, addend: 0x0, symName: __ZNSt3__14listINS_12basic_stringIcNS_11char_traitsIcEENS_9allocatorIcEEEENS4_IS6_EEED1Ev, symObjAddr: 0x558, symBinAddr: 0x904C, symSize: 0x2C }
  - { offset: 0x3342E, size: 0x8, addend: 0x0, symName: __ZNSt3__13mapINS_12basic_stringIcNS_11char_traitsIcEENS_9allocatorIcEEEE11field_valueNS_4lessIS6_EENS4_INS_4pairIKS6_S7_EEEEED1B8de200100Ev, symObjAddr: 0x584, symBinAddr: 0x9078, symSize: 0x2C }
  - { offset: 0x33456, size: 0x8, addend: 0x0, symName: __ZN7DatasetC2EP8Database, symObjAddr: 0x5B0, symBinAddr: 0x90A4, symSize: 0x178 }
  - { offset: 0x3348E, size: 0x8, addend: 0x0, symName: __ZN7DatasetD2Ev, symObjAddr: 0x728, symBinAddr: 0x921C, symSize: 0x104 }
  - { offset: 0x334B9, size: 0x8, addend: 0x0, symName: __ZNSt3__14listINS_12basic_stringIcNS_11char_traitsIcEENS_9allocatorIcEEEENS4_IS6_EEE5clearB8de200100Ev, symObjAddr: 0x82C, symBinAddr: 0x9320, symSize: 0x24 }
  - { offset: 0x334DD, size: 0x8, addend: 0x0, symName: __ZNSt3__13mapIi5fieldNS_4lessIiEENS_9allocatorINS_4pairIKiS1_EEEEED1B8de200100Ev, symObjAddr: 0x850, symBinAddr: 0x9344, symSize: 0x2C }
  - { offset: 0x33505, size: 0x8, addend: 0x0, symName: __ZN7DatasetD1Ev, symObjAddr: 0x87C, symBinAddr: 0x9370, symSize: 0x14 }
  - { offset: 0x3352F, size: 0x8, addend: 0x0, symName: __ZN7DatasetD0Ev, symObjAddr: 0x890, symBinAddr: 0x9384, symSize: 0xC }
  - { offset: 0x33559, size: 0x8, addend: 0x0, symName: __ZN7Dataset12setSqlParamsEPKc7sqlTypez, symObjAddr: 0x89C, symBinAddr: 0x9390, symSize: 0x140 }
  - { offset: 0x335B8, size: 0x8, addend: 0x0, symName: __ZN7Dataset14set_select_sqlEPKc, symObjAddr: 0x9DC, symBinAddr: 0x94D0, symSize: 0x30 }
  - { offset: 0x335EC, size: 0x8, addend: 0x0, symName: __ZN7Dataset14add_update_sqlEPKc, symObjAddr: 0xA0C, symBinAddr: 0x9500, symSize: 0x74 }
  - { offset: 0x33631, size: 0x8, addend: 0x0, symName: __ZN7Dataset14add_insert_sqlEPKc, symObjAddr: 0xA80, symBinAddr: 0x9574, symSize: 0x74 }
  - { offset: 0x33676, size: 0x8, addend: 0x0, symName: __ZN7Dataset14add_delete_sqlEPKc, symObjAddr: 0xAF4, symBinAddr: 0x95E8, symSize: 0x74 }
  - { offset: 0x336BB, size: 0x8, addend: 0x0, symName: __ZN7Dataset14set_select_sqlERKNSt3__112basic_stringIcNS0_11char_traitsIcEENS0_9allocatorIcEEEE, symObjAddr: 0xB68, symBinAddr: 0x965C, symSize: 0x30 }
  - { offset: 0x336EF, size: 0x8, addend: 0x0, symName: __ZN7Dataset9parse_sqlERNSt3__112basic_stringIcNS0_11char_traitsIcEENS0_9allocatorIcEEEE, symObjAddr: 0xB98, symBinAddr: 0x968C, symSize: 0x4C4 }
  - { offset: 0x337A8, size: 0x8, addend: 0x0, symName: __ZNKSt3__13mapIi5fieldNS_4lessIiEENS_9allocatorINS_4pairIKiS1_EEEEE4sizeB8de200100Ev, symObjAddr: 0x105C, symBinAddr: 0x9B50, symSize: 0x28 }
  - { offset: 0x337CD, size: 0x8, addend: 0x0, symName: __ZNSt3__112basic_stringIcNS_11char_traitsIcEENS_9allocatorIcEEEaSB8de200100EOS5_, symObjAddr: 0x1148, symBinAddr: 0x9B78, symSize: 0x34 }
  - { offset: 0x33801, size: 0x8, addend: 0x0, symName: __ZNKSt3__112basic_stringIcNS_11char_traitsIcEENS_9allocatorIcEEE4findB8de200100ERKS5_m, symObjAddr: 0x1200, symBinAddr: 0x9C30, symSize: 0x78 }
  - { offset: 0x33846, size: 0x8, addend: 0x0, symName: __ZNKSt3__112basic_stringIcNS_11char_traitsIcEENS_9allocatorIcEEE6lengthB8de200100Ev, symObjAddr: 0x12CC, symBinAddr: 0x9CA8, symSize: 0x24 }
  - { offset: 0x3386A, size: 0x8, addend: 0x0, symName: __Z7isalnumi, symObjAddr: 0x12F0, symBinAddr: 0x9CCC, symSize: 0x28 }
  - { offset: 0x33897, size: 0x8, addend: 0x0, symName: __ZNSt3__112basic_stringIcNS_11char_traitsIcEENS_9allocatorIcEEEixB8de200100Em, symObjAddr: 0x1318, symBinAddr: 0x9CF4, symSize: 0x6C }
  - { offset: 0x338CB, size: 0x8, addend: 0x0, symName: __ZNSt3__112basic_stringIcNS_11char_traitsIcEENS_9allocatorIcEEE7replaceB8de200100EmmRKS5_, symObjAddr: 0x1384, symBinAddr: 0x9D60, symSize: 0x6C }
  - { offset: 0x3391C, size: 0x8, addend: 0x0, symName: __ZN7Dataset5closeEv, symObjAddr: 0x13F0, symBinAddr: 0x9DCC, symSize: 0x2C }
  - { offset: 0x33942, size: 0x8, addend: 0x0, symName: __ZN7Dataset4seekEi, symObjAddr: 0x141C, symBinAddr: 0x9DF8, symSize: 0xF4 }
  - { offset: 0x33976, size: 0x8, addend: 0x0, symName: __ZN7Dataset7refreshEv, symObjAddr: 0x1510, symBinAddr: 0x9EEC, symSize: 0x94 }
  - { offset: 0x339AA, size: 0x8, addend: 0x0, symName: __ZN7Dataset5firstEv, symObjAddr: 0x15A4, symBinAddr: 0x9F80, symSize: 0x68 }
  - { offset: 0x339D0, size: 0x8, addend: 0x0, symName: __ZN7Dataset4nextEv, symObjAddr: 0x160C, symBinAddr: 0x9FE8, symSize: 0xBC }
  - { offset: 0x339F6, size: 0x8, addend: 0x0, symName: __ZN7Dataset4prevEv, symObjAddr: 0x16C8, symBinAddr: 0xA0A4, symSize: 0xA0 }
  - { offset: 0x33A1C, size: 0x8, addend: 0x0, symName: __ZN7Dataset4lastEv, symObjAddr: 0x1768, symBinAddr: 0xA144, symSize: 0xB0 }
  - { offset: 0x33A42, size: 0x8, addend: 0x0, symName: __ZN7Dataset8goto_recEi, symObjAddr: 0x1818, symBinAddr: 0xA1F4, symSize: 0x80 }
  - { offset: 0x33A76, size: 0x8, addend: 0x0, symName: __ZN7Dataset6insertEv, symObjAddr: 0x1898, symBinAddr: 0xA274, symSize: 0xB8 }
  - { offset: 0x33AB9, size: 0x8, addend: 0x0, symName: __ZN11field_valueaSEPKc, symObjAddr: 0x1950, symBinAddr: 0xA32C, symSize: 0x34 }
  - { offset: 0x33AEB, size: 0x8, addend: 0x0, symName: __ZN7Dataset4editEv, symObjAddr: 0x1984, symBinAddr: 0xA360, symSize: 0x118 }
  - { offset: 0x33B2F, size: 0x8, addend: 0x0, symName: __ZN8DbErrorsC1EPKcz, symObjAddr: 0x1A9C, symBinAddr: 0xA478, symSize: 0xF8 }
  - { offset: 0x33B8F, size: 0x8, addend: 0x0, symName: __ZN8DbErrorsD1Ev, symObjAddr: 0x1B94, symBinAddr: 0xA570, symSize: 0x2C }
  - { offset: 0x33BBB, size: 0x8, addend: 0x0, symName: __ZNSt3__13mapIi5fieldNS_4lessIiEENS_9allocatorINS_4pairIKiS1_EEEEEixEOi, symObjAddr: 0x1BC0, symBinAddr: 0xA59C, symSize: 0xC4 }
  - { offset: 0x33BF0, size: 0x8, addend: 0x0, symName: __ZN7Dataset4postEv, symObjAddr: 0x1C84, symBinAddr: 0xA660, symSize: 0x74 }
  - { offset: 0x33C17, size: 0x8, addend: 0x0, symName: __ZN7Dataset8deletionEv, symObjAddr: 0x1CF8, symBinAddr: 0xA6D4, symSize: 0x44 }
  - { offset: 0x33C3E, size: 0x8, addend: 0x0, symName: __ZN7Dataset15set_field_valueEPKcRK11field_value, symObjAddr: 0x1D3C, symBinAddr: 0xA718, symSize: 0x1D0 }
  - { offset: 0x33CAF, size: 0x8, addend: 0x0, symName: __ZN7Dataset15get_field_valueEPKc, symObjAddr: 0x1F30, symBinAddr: 0xA8E8, symSize: 0x2CC }
  - { offset: 0x33D1F, size: 0x8, addend: 0x0, symName: __ZN7Dataset24get_field_value_by_indexEi, symObjAddr: 0x21FC, symBinAddr: 0xABB4, symSize: 0x108 }
  - { offset: 0x33D55, size: 0x8, addend: 0x0, symName: __ZN7Dataset5f_oldEPKc, symObjAddr: 0x2304, symBinAddr: 0xACBC, symSize: 0x124 }
  - { offset: 0x33DB8, size: 0x8, addend: 0x0, symName: __ZN7Dataset11str_compareEPKcS1_, symObjAddr: 0x24E4, symBinAddr: 0xAE9C, symSize: 0x238 }
  - { offset: 0x33E41, size: 0x8, addend: 0x0, symName: __ZNSt3__112basic_stringIcNS_11char_traitsIcEENS_9allocatorIcEEEC1B8de200100ILi0EEEPKc, symObjAddr: 0x271C, symBinAddr: 0xB0D4, symSize: 0x34 }
  - { offset: 0x33E7F, size: 0x8, addend: 0x0, symName: __ZNSt3__112basic_stringIcNS_11char_traitsIcEENS_9allocatorIcEEE5beginB8de200100Ev, symObjAddr: 0x2750, symBinAddr: 0xB108, symSize: 0x4C }
  - { offset: 0x33EA8, size: 0x8, addend: 0x0, symName: __ZNSt3__111__wrap_iterIPKcEC1B8de200100IPcLi0EEERKNS0_IT_EE, symObjAddr: 0x279C, symBinAddr: 0xB154, symSize: 0x34 }
  - { offset: 0x33EEE, size: 0x8, addend: 0x0, symName: __ZNSt3__112basic_stringIcNS_11char_traitsIcEENS_9allocatorIcEEE3endB8de200100Ev, symObjAddr: 0x2800, symBinAddr: 0xB1B8, symSize: 0x54 }
  - { offset: 0x33F13, size: 0x8, addend: 0x0, symName: __Z7toupperi, symObjAddr: 0x2854, symBinAddr: 0xB20C, symSize: 0x24 }
  - { offset: 0x33F41, size: 0x8, addend: 0x0, symName: __ZNKSt3__111__wrap_iterIPKcEdeB8de200100Ev, symObjAddr: 0x2878, symBinAddr: 0xB230, symSize: 0x18 }
  - { offset: 0x33F65, size: 0x8, addend: 0x0, symName: __ZNSt3__111__wrap_iterIPKcEppB8de200100Ev, symObjAddr: 0x2890, symBinAddr: 0xB248, symSize: 0x20 }
  - { offset: 0x33F89, size: 0x8, addend: 0x0, symName: __ZN7Dataset12setParamListERKNSt3__13mapINS0_12basic_stringIcNS0_11char_traitsIcEENS0_9allocatorIcEEEE11field_valueNS0_4lessIS7_EENS5_INS0_4pairIKS7_S8_EEEEEE, symObjAddr: 0x28B0, symBinAddr: 0xB268, symSize: 0x30 }
  - { offset: 0x33FC0, size: 0x8, addend: 0x0, symName: __ZNSt3__13mapINS_12basic_stringIcNS_11char_traitsIcEENS_9allocatorIcEEEE11field_valueNS_4lessIS6_EENS4_INS_4pairIKS6_S7_EEEEEaSB8de200100ERKSE_, symObjAddr: 0x28E0, symBinAddr: 0xB298, symSize: 0x34 }
  - { offset: 0x33FF3, size: 0x8, addend: 0x0, symName: __ZN7Dataset6locateEv, symObjAddr: 0x2914, symBinAddr: 0xB2CC, symSize: 0x220 }
  - { offset: 0x34039, size: 0x8, addend: 0x0, symName: __ZNKSt3__13mapINS_12basic_stringIcNS_11char_traitsIcEENS_9allocatorIcEEEE11field_valueNS_4lessIS6_EENS4_INS_4pairIKS6_S7_EEEEE5emptyB8de200100Ev, symObjAddr: 0x2B34, symBinAddr: 0xB4EC, symSize: 0x30 }
  - { offset: 0x3405D, size: 0x8, addend: 0x0, symName: __ZNSt3__120__map_const_iteratorINS_21__tree_const_iteratorINS_12__value_typeINS_12basic_stringIcNS_11char_traitsIcEENS_9allocatorIcEEEE11field_valueEEPNS_11__tree_nodeISA_PvEElEEEC1B8de200100Ev, symObjAddr: 0x2B64, symBinAddr: 0xB51C, symSize: 0x2C }
  - { offset: 0x34086, size: 0x8, addend: 0x0, symName: __ZNSt3__13mapINS_12basic_stringIcNS_11char_traitsIcEENS_9allocatorIcEEEE11field_valueNS_4lessIS6_EENS4_INS_4pairIKS6_S7_EEEEE5beginB8de200100Ev, symObjAddr: 0x2B90, symBinAddr: 0xB548, symSize: 0x38 }
  - { offset: 0x340AA, size: 0x8, addend: 0x0, symName: __ZNSt3__120__map_const_iteratorINS_21__tree_const_iteratorINS_12__value_typeINS_12basic_stringIcNS_11char_traitsIcEENS_9allocatorIcEEEE11field_valueEEPNS_11__tree_nodeISA_PvEElEEEC1B8de200100ENS_14__map_iteratorINS_15__tree_iteratorISA_SE_lEEEE, symObjAddr: 0x2BC8, symBinAddr: 0xB580, symSize: 0x34 }
  - { offset: 0x340E2, size: 0x8, addend: 0x0, symName: __ZNSt3__13mapINS_12basic_stringIcNS_11char_traitsIcEENS_9allocatorIcEEEE11field_valueNS_4lessIS6_EENS4_INS_4pairIKS6_S7_EEEEE3endB8de200100Ev, symObjAddr: 0x2C28, symBinAddr: 0xB5E0, symSize: 0x38 }
  - { offset: 0x34107, size: 0x8, addend: 0x0, symName: __ZN7Dataset2fvEPKc, symObjAddr: 0x2CF0, symBinAddr: 0xB6A8, symSize: 0x3C }
  - { offset: 0x3413B, size: 0x8, addend: 0x0, symName: __ZNKSt3__120__map_const_iteratorINS_21__tree_const_iteratorINS_12__value_typeINS_12basic_stringIcNS_11char_traitsIcEENS_9allocatorIcEEEE11field_valueEEPNS_11__tree_nodeISA_PvEElEEEptB8de200100Ev, symObjAddr: 0x2D2C, symBinAddr: 0xB6E4, symSize: 0x2C }
  - { offset: 0x34160, size: 0x8, addend: 0x0, symName: __ZNSt3__120__map_const_iteratorINS_21__tree_const_iteratorINS_12__value_typeINS_12basic_stringIcNS_11char_traitsIcEENS_9allocatorIcEEEE11field_valueEEPNS_11__tree_nodeISA_PvEElEEEppB8de200100Ev, symObjAddr: 0x2D58, symBinAddr: 0xB710, symSize: 0x2C }
  - { offset: 0x34184, size: 0x8, addend: 0x0, symName: __ZN7Dataset6locateERKNSt3__13mapINS0_12basic_stringIcNS0_11char_traitsIcEENS0_9allocatorIcEEEE11field_valueNS0_4lessIS7_EENS5_INS0_4pairIKS7_S8_EEEEEE, symObjAddr: 0x2D84, symBinAddr: 0xB73C, symSize: 0x44 }
  - { offset: 0x341BA, size: 0x8, addend: 0x0, symName: __ZN7Dataset8findNextEv, symObjAddr: 0x2DC8, symBinAddr: 0xB780, symSize: 0x210 }
  - { offset: 0x34200, size: 0x8, addend: 0x0, symName: __ZNSt3__14listINS_12basic_stringIcNS_11char_traitsIcEENS_9allocatorIcEEEENS4_IS6_EEE9push_backERKS6_, symObjAddr: 0x2FD8, symBinAddr: 0xB990, symSize: 0x6C }
  - { offset: 0x34253, size: 0x8, addend: 0x0, symName: __ZN7Dataset14add_update_sqlERKNSt3__112basic_stringIcNS0_11char_traitsIcEENS0_9allocatorIcEEEE, symObjAddr: 0x3044, symBinAddr: 0xB9FC, symSize: 0x30 }
  - { offset: 0x34289, size: 0x8, addend: 0x0, symName: __ZN7Dataset14add_insert_sqlERKNSt3__112basic_stringIcNS0_11char_traitsIcEENS0_9allocatorIcEEEE, symObjAddr: 0x3074, symBinAddr: 0xBA2C, symSize: 0x30 }
  - { offset: 0x342BF, size: 0x8, addend: 0x0, symName: __ZN7Dataset14add_delete_sqlERKNSt3__112basic_stringIcNS0_11char_traitsIcEENS0_9allocatorIcEEEE, symObjAddr: 0x30A4, symBinAddr: 0xBA5C, symSize: 0x30 }
  - { offset: 0x342F5, size: 0x8, addend: 0x0, symName: __ZN7Dataset16clear_update_sqlEv, symObjAddr: 0x30D4, symBinAddr: 0xBA8C, symSize: 0x28 }
  - { offset: 0x3431C, size: 0x8, addend: 0x0, symName: __ZN7Dataset16clear_insert_sqlEv, symObjAddr: 0x30FC, symBinAddr: 0xBAB4, symSize: 0x28 }
  - { offset: 0x34343, size: 0x8, addend: 0x0, symName: __ZN7Dataset16clear_delete_sqlEv, symObjAddr: 0x3124, symBinAddr: 0xBADC, symSize: 0x28 }
  - { offset: 0x3436A, size: 0x8, addend: 0x0, symName: __ZN7Dataset11field_countEv, symObjAddr: 0x314C, symBinAddr: 0xBB04, symSize: 0x28 }
  - { offset: 0x34391, size: 0x8, addend: 0x0, symName: __ZN7Dataset10fieldCountEv, symObjAddr: 0x3174, symBinAddr: 0xBB2C, symSize: 0x28 }
  - { offset: 0x343B8, size: 0x8, addend: 0x0, symName: __ZN7Dataset9fieldNameEi, symObjAddr: 0x319C, symBinAddr: 0xBB54, symSize: 0x80 }
  - { offset: 0x343EE, size: 0x8, addend: 0x0, symName: __ZN7Dataset9fieldSizeEi, symObjAddr: 0x321C, symBinAddr: 0xBBD4, symSize: 0x80 }
  - { offset: 0x34424, size: 0x8, addend: 0x0, symName: __ZN7Dataset10fieldIndexEPKc, symObjAddr: 0x329C, symBinAddr: 0xBC54, symSize: 0xAC }
  - { offset: 0x34477, size: 0x8, addend: 0x0, symName: __ZN8DbErrorsC2Ev, symObjAddr: 0x3348, symBinAddr: 0xBD00, symSize: 0x64 }
  - { offset: 0x344A2, size: 0x8, addend: 0x0, symName: __ZN8DbErrorsC1Ev, symObjAddr: 0x33AC, symBinAddr: 0xBD64, symSize: 0x2C }
  - { offset: 0x344CD, size: 0x8, addend: 0x0, symName: __ZN8DbErrorsC2EPKcz, symObjAddr: 0x33D8, symBinAddr: 0xBD90, symSize: 0xF8 }
  - { offset: 0x3452E, size: 0x8, addend: 0x0, symName: __ZNSt3__112basic_stringIcNS_11char_traitsIcEENS_9allocatorIcEEEpLB8de200100EPKc, symObjAddr: 0x34D0, symBinAddr: 0xBE88, symSize: 0x2C }
  - { offset: 0x34561, size: 0x8, addend: 0x0, symName: __ZN8DbErrors6getMsgEv, symObjAddr: 0x34FC, symBinAddr: 0xBEB4, symSize: 0x24 }
  - { offset: 0x34588, size: 0x8, addend: 0x0, symName: __ZNK8Database8isActiveEv, symObjAddr: 0x3520, symBinAddr: 0xBED8, symSize: 0x1C }
  - { offset: 0x345AC, size: 0x8, addend: 0x0, symName: __ZN8Database4initEv, symObjAddr: 0x353C, symBinAddr: 0xBEF4, symSize: 0x14 }
  - { offset: 0x345D0, size: 0x8, addend: 0x0, symName: __ZN8Database6statusEv, symObjAddr: 0x3550, symBinAddr: 0xBF08, symSize: 0x14 }
  - { offset: 0x345F5, size: 0x8, addend: 0x0, symName: __ZN8Database11getErrorMsgEv, symObjAddr: 0x3564, symBinAddr: 0xBF1C, symSize: 0x28 }
  - { offset: 0x3461A, size: 0x8, addend: 0x0, symName: __ZN8Database12setErrDirectEPKc, symObjAddr: 0x358C, symBinAddr: 0xBF44, symSize: 0x30 }
  - { offset: 0x3464C, size: 0x8, addend: 0x0, symName: __ZN8Database7connectEb, symObjAddr: 0x35BC, symBinAddr: 0xBF74, symSize: 0x18 }
  - { offset: 0x3467E, size: 0x8, addend: 0x0, symName: __ZN8Database10disconnectEv, symObjAddr: 0x35D4, symBinAddr: 0xBF8C, symSize: 0x18 }
  - { offset: 0x346A2, size: 0x8, addend: 0x0, symName: __ZN8Database5resetEv, symObjAddr: 0x35EC, symBinAddr: 0xBFA4, symSize: 0x14 }
  - { offset: 0x346C6, size: 0x8, addend: 0x0, symName: __ZN8Database6createEv, symObjAddr: 0x3600, symBinAddr: 0xBFB8, symSize: 0x14 }
  - { offset: 0x346EA, size: 0x8, addend: 0x0, symName: __ZN8Database4dropEv, symObjAddr: 0x3614, symBinAddr: 0xBFCC, symSize: 0x14 }
  - { offset: 0x3470E, size: 0x8, addend: 0x0, symName: __ZN8Database17start_transactionEv, symObjAddr: 0x3628, symBinAddr: 0xBFE0, symSize: 0x10 }
  - { offset: 0x34732, size: 0x8, addend: 0x0, symName: __ZN8Database18commit_transactionEv, symObjAddr: 0x3638, symBinAddr: 0xBFF0, symSize: 0x10 }
  - { offset: 0x34756, size: 0x8, addend: 0x0, symName: __ZN8Database20rollback_transactionEv, symObjAddr: 0x3648, symBinAddr: 0xC000, symSize: 0x10 }
  - { offset: 0x3477A, size: 0x8, addend: 0x0, symName: __ZN8Database14in_transactionEv, symObjAddr: 0x3658, symBinAddr: 0xC010, symSize: 0x18 }
  - { offset: 0x3479E, size: 0x8, addend: 0x0, symName: __ZN7Dataset8isActiveEv, symObjAddr: 0x3670, symBinAddr: 0xC028, symSize: 0x1C }
  - { offset: 0x347C2, size: 0x8, addend: 0x0, symName: __ZN7Dataset3eofEv, symObjAddr: 0x368C, symBinAddr: 0xC044, symSize: 0x1C }
  - { offset: 0x347E6, size: 0x8, addend: 0x0, symName: __ZN7Dataset3bofEv, symObjAddr: 0x36A8, symBinAddr: 0xC060, symSize: 0x1C }
  - { offset: 0x3480B, size: 0x8, addend: 0x0, symName: __ZN7Dataset6appendEv, symObjAddr: 0x36C4, symBinAddr: 0xC07C, symSize: 0x2C }
  - { offset: 0x3482F, size: 0x8, addend: 0x0, symName: __ZN7Dataset6cancelEv, symObjAddr: 0x36F0, symBinAddr: 0xC0A8, symSize: 0x10 }
  - { offset: 0x34854, size: 0x8, addend: 0x0, symName: __ZN7Dataset2sfEPKcRK11field_value, symObjAddr: 0x3700, symBinAddr: 0xC0B8, symSize: 0x3C }
  - { offset: 0x34896, size: 0x8, addend: 0x0, symName: __ZNSt3__14listINS_12basic_stringIcNS_11char_traitsIcEENS_9allocatorIcEEEENS4_IS6_EEED2Ev, symObjAddr: 0x373C, symBinAddr: 0xC0F4, symSize: 0x2C }
  - { offset: 0x348C2, size: 0x8, addend: 0x0, symName: __ZNSt3__110__list_impINS_12basic_stringIcNS_11char_traitsIcEENS_9allocatorIcEEEENS4_IS6_EEED2Ev, symObjAddr: 0x3768, symBinAddr: 0xC120, symSize: 0x2C }
  - { offset: 0x348ED, size: 0x8, addend: 0x0, symName: __ZNSt3__110__list_impINS_12basic_stringIcNS_11char_traitsIcEENS_9allocatorIcEEEENS4_IS6_EEE5clearEv, symObjAddr: 0x3794, symBinAddr: 0xC14C, symSize: 0xB4 }
  - { offset: 0x3494E, size: 0x8, addend: 0x0, symName: __ZNKSt3__110__list_impINS_12basic_stringIcNS_11char_traitsIcEENS_9allocatorIcEEEENS4_IS6_EEE5emptyB8de200100Ev, symObjAddr: 0x3848, symBinAddr: 0xC200, symSize: 0x20 }
  - { offset: 0x34973, size: 0x8, addend: 0x0, symName: __ZNKSt3__110__list_impINS_12basic_stringIcNS_11char_traitsIcEENS_9allocatorIcEEEENS4_IS6_EEE13__end_as_linkB8de200100Ev, symObjAddr: 0x3868, symBinAddr: 0xC220, symSize: 0x44 }
  - { offset: 0x34998, size: 0x8, addend: 0x0, symName: __ZNSt3__110__list_impINS_12basic_stringIcNS_11char_traitsIcEENS_9allocatorIcEEEENS4_IS6_EEE14__unlink_nodesEPNS_16__list_node_baseIS6_PvEESC_, symObjAddr: 0x38AC, symBinAddr: 0xC264, symSize: 0x3C }
  - { offset: 0x349CD, size: 0x8, addend: 0x0, symName: __ZNSt3__116__list_node_baseINS_12basic_stringIcNS_11char_traitsIcEENS_9allocatorIcEEEEPvE9__as_nodeB8de200100Ev, symObjAddr: 0x38E8, symBinAddr: 0xC2A0, symSize: 0x24 }
  - { offset: 0x349F2, size: 0x8, addend: 0x0, symName: __ZNSt3__110__list_impINS_12basic_stringIcNS_11char_traitsIcEENS_9allocatorIcEEEENS4_IS6_EEE13__delete_nodeB8de200100EPNS_11__list_nodeIS6_PvEE, symObjAddr: 0x390C, symBinAddr: 0xC2C4, symSize: 0x5C }
  - { offset: 0x34A26, size: 0x8, addend: 0x0, symName: __ZNSt3__126__list_node_pointer_traitsINS_12basic_stringIcNS_11char_traitsIcEENS_9allocatorIcEEEEPvE26__unsafe_link_pointer_castB8de200100EPNS_16__list_node_baseIS6_S7_EE, symObjAddr: 0x3968, symBinAddr: 0xC320, symSize: 0x14 }
  - { offset: 0x34A4A, size: 0x8, addend: 0x0, symName: __ZNSt3__116__list_node_baseINS_12basic_stringIcNS_11char_traitsIcEENS_9allocatorIcEEEEPvE6__selfB8de200100Ev, symObjAddr: 0x397C, symBinAddr: 0xC334, symSize: 0x24 }
  - { offset: 0x34A74, size: 0x8, addend: 0x0, symName: __ZNSt3__114pointer_traitsIPNS_16__list_node_baseINS_12basic_stringIcNS_11char_traitsIcEENS_9allocatorIcEEEEPvEEE10pointer_toB8de200100ERS9_, symObjAddr: 0x39A0, symBinAddr: 0xC358, symSize: 0x14 }
  - { offset: 0x34A97, size: 0x8, addend: 0x0, symName: __ZNSt3__116allocator_traitsINS_9allocatorINS_11__list_nodeINS_12basic_stringIcNS_11char_traitsIcEENS1_IcEEEEPvEEEEE7destroyB8de200100IS7_vLi0EEEvRSA_PT_, symObjAddr: 0x39B4, symBinAddr: 0xC36C, symSize: 0x28 }
  - { offset: 0x34AD7, size: 0x8, addend: 0x0, symName: __ZNSt3__111__list_nodeINS_12basic_stringIcNS_11char_traitsIcEENS_9allocatorIcEEEEPvE11__get_valueB8de200100Ev, symObjAddr: 0x39DC, symBinAddr: 0xC394, symSize: 0x18 }
  - { offset: 0x34AFC, size: 0x8, addend: 0x0, symName: __ZNSt3__116allocator_traitsINS_9allocatorINS_11__list_nodeINS_12basic_stringIcNS_11char_traitsIcEENS1_IcEEEEPvEEEEE10deallocateB8de200100ERSA_PS9_m, symObjAddr: 0x3A2C, symBinAddr: 0xC3E4, symSize: 0x34 }
  - { offset: 0x34B3D, size: 0x8, addend: 0x0, symName: __ZNSt3__111__list_nodeINS_12basic_stringIcNS_11char_traitsIcEENS_9allocatorIcEEEEPvED1B8de200100Ev, symObjAddr: 0x3A98, symBinAddr: 0xC450, symSize: 0x2C }
  - { offset: 0x34B65, size: 0x8, addend: 0x0, symName: __ZNSt3__111__list_nodeINS_12basic_stringIcNS_11char_traitsIcEENS_9allocatorIcEEEEPvED2B8de200100Ev, symObjAddr: 0x3AC4, symBinAddr: 0xC47C, symSize: 0x14 }
  - { offset: 0x34B8E, size: 0x8, addend: 0x0, symName: __ZNSt3__19allocatorINS_11__list_nodeINS_12basic_stringIcNS_11char_traitsIcEENS0_IcEEEEPvEEE10deallocateB8de200100EPS8_m, symObjAddr: 0x3AD8, symBinAddr: 0xC490, symSize: 0x34 }
  - { offset: 0x34BCE, size: 0x8, addend: 0x0, symName: __Z8__istypeim, symObjAddr: 0x3B6C, symBinAddr: 0xC524, symSize: 0x7C }
  - { offset: 0x34C09, size: 0x8, addend: 0x0, symName: __Z7isasciii, symObjAddr: 0x3BE8, symBinAddr: 0xC5A0, symSize: 0x20 }
  - { offset: 0x34C35, size: 0x8, addend: 0x0, symName: __ZN8DbErrorsD2Ev, symObjAddr: 0x3C08, symBinAddr: 0xC5C0, symSize: 0x2C }
  - { offset: 0x34C60, size: 0x8, addend: 0x0, symName: __ZNKSt3__111__wrap_iterIPKcE4baseB8de200100Ev, symObjAddr: 0x3C78, symBinAddr: 0xC630, symSize: 0x18 }
  - { offset: 0x34C84, size: 0x8, addend: 0x0, symName: __ZNKSt3__111__wrap_iterIPcE4baseB8de200100Ev, symObjAddr: 0x3C90, symBinAddr: 0xC648, symSize: 0x18 }
  - { offset: 0x34CA8, size: 0x8, addend: 0x0, symName: __ZNSt3__13mapINS_12basic_stringIcNS_11char_traitsIcEENS_9allocatorIcEEEE11field_valueNS_4lessIS6_EENS4_INS_4pairIKS6_S7_EEEEEC2B8de200100Ev, symObjAddr: 0x3E9C, symBinAddr: 0xC660, symSize: 0x40 }
  - { offset: 0x34CD0, size: 0x8, addend: 0x0, symName: __ZNSt3__119__map_value_compareINS_12basic_stringIcNS_11char_traitsIcEENS_9allocatorIcEEEENS_12__value_typeIS6_11field_valueEENS_4lessIS6_EELb1EEC1B8de200100ESB_, symObjAddr: 0x3EDC, symBinAddr: 0xC6A0, symSize: 0x2C }
  - { offset: 0x34D08, size: 0x8, addend: 0x0, symName: __ZNSt3__16__treeINS_12__value_typeINS_12basic_stringIcNS_11char_traitsIcEENS_9allocatorIcEEEE11field_valueEENS_19__map_value_compareIS7_S9_NS_4lessIS7_EELb1EEENS5_IS9_EEEC1ERKSD_, symObjAddr: 0x3F08, symBinAddr: 0xC6CC, symSize: 0x34 }
  - { offset: 0x34D41, size: 0x8, addend: 0x0, symName: __ZNSt3__119__map_value_compareINS_12basic_stringIcNS_11char_traitsIcEENS_9allocatorIcEEEENS_12__value_typeIS6_11field_valueEENS_4lessIS6_EELb1EEC2B8de200100ESB_, symObjAddr: 0x3F3C, symBinAddr: 0xC700, symSize: 0x14 }
  - { offset: 0x34D79, size: 0x8, addend: 0x0, symName: __ZNSt3__16__treeINS_12__value_typeINS_12basic_stringIcNS_11char_traitsIcEENS_9allocatorIcEEEE11field_valueEENS_19__map_value_compareIS7_S9_NS_4lessIS7_EELb1EEENS5_IS9_EEEC2ERKSD_, symObjAddr: 0x3F50, symBinAddr: 0xC714, symSize: 0x68 }
  - { offset: 0x34DB2, size: 0x8, addend: 0x0, symName: __ZNSt3__115__tree_end_nodeIPNS_16__tree_node_baseIPvEEEC1B8de200100Ev, symObjAddr: 0x3FB8, symBinAddr: 0xC77C, symSize: 0x2C }
  - { offset: 0x34DDA, size: 0x8, addend: 0x0, symName: __ZNSt3__19allocatorINS_11__tree_nodeINS_12__value_typeINS_12basic_stringIcNS_11char_traitsIcEENS0_IcEEEE11field_valueEEPvEEEC1B8de200100Ev, symObjAddr: 0x3FE4, symBinAddr: 0xC7A8, symSize: 0x2C }
  - { offset: 0x34E03, size: 0x8, addend: 0x0, symName: __ZNSt3__16__treeINS_12__value_typeINS_12basic_stringIcNS_11char_traitsIcEENS_9allocatorIcEEEE11field_valueEENS_19__map_value_compareIS7_S9_NS_4lessIS7_EELb1EEENS5_IS9_EEE10__end_nodeB8de200100Ev, symObjAddr: 0x4010, symBinAddr: 0xC7D4, symSize: 0x28 }
  - { offset: 0x34E27, size: 0x8, addend: 0x0, symName: __ZNSt3__16__treeINS_12__value_typeINS_12basic_stringIcNS_11char_traitsIcEENS_9allocatorIcEEEE11field_valueEENS_19__map_value_compareIS7_S9_NS_4lessIS7_EELb1EEENS5_IS9_EEE12__begin_nodeB8de200100Ev, symObjAddr: 0x4038, symBinAddr: 0xC7FC, symSize: 0x14 }
  - { offset: 0x34E4B, size: 0x8, addend: 0x0, symName: __ZNSt3__115__tree_end_nodeIPNS_16__tree_node_baseIPvEEEC2B8de200100Ev, symObjAddr: 0x404C, symBinAddr: 0xC810, symSize: 0x18 }
  - { offset: 0x34E73, size: 0x8, addend: 0x0, symName: __ZNSt3__19allocatorINS_11__tree_nodeINS_12__value_typeINS_12basic_stringIcNS_11char_traitsIcEENS0_IcEEEE11field_valueEEPvEEEC2B8de200100Ev, symObjAddr: 0x4064, symBinAddr: 0xC828, symSize: 0x2C }
  - { offset: 0x34E9B, size: 0x8, addend: 0x0, symName: __ZNSt3__116__non_trivial_ifILb1ENS_9allocatorINS_11__tree_nodeINS_12__value_typeINS_12basic_stringIcNS_11char_traitsIcEENS1_IcEEEE11field_valueEEPvEEEEEC2B8de200100Ev, symObjAddr: 0x4090, symBinAddr: 0xC854, symSize: 0x14 }
  - { offset: 0x34EC3, size: 0x8, addend: 0x0, symName: __ZNSt3__14listINS_12basic_stringIcNS_11char_traitsIcEENS_9allocatorIcEEEENS4_IS6_EEEC2B8de200100Ev, symObjAddr: 0x40B8, symBinAddr: 0xC868, symSize: 0x2C }
  - { offset: 0x34EEC, size: 0x8, addend: 0x0, symName: __ZNSt3__110__list_impINS_12basic_stringIcNS_11char_traitsIcEENS_9allocatorIcEEEENS4_IS6_EEEC2Ev, symObjAddr: 0x40E4, symBinAddr: 0xC894, symSize: 0x44 }
  - { offset: 0x34F16, size: 0x8, addend: 0x0, symName: __ZNSt3__116__list_node_baseINS_12basic_stringIcNS_11char_traitsIcEENS_9allocatorIcEEEEPvEC1B8de200100Ev, symObjAddr: 0x4128, symBinAddr: 0xC8D8, symSize: 0x2C }
  - { offset: 0x34F3E, size: 0x8, addend: 0x0, symName: __ZNSt3__19allocatorINS_11__list_nodeINS_12basic_stringIcNS_11char_traitsIcEENS0_IcEEEEPvEEEC1B8de200100Ev, symObjAddr: 0x4154, symBinAddr: 0xC904, symSize: 0x2C }
  - { offset: 0x34F66, size: 0x8, addend: 0x0, symName: __ZNSt3__116__list_node_baseINS_12basic_stringIcNS_11char_traitsIcEENS_9allocatorIcEEEEPvEC2B8de200100Ev, symObjAddr: 0x4180, symBinAddr: 0xC930, symSize: 0x44 }
  - { offset: 0x34F8E, size: 0x8, addend: 0x0, symName: __ZNSt3__19allocatorINS_11__list_nodeINS_12basic_stringIcNS_11char_traitsIcEENS0_IcEEEEPvEEEC2B8de200100Ev, symObjAddr: 0x41C4, symBinAddr: 0xC974, symSize: 0x2C }
  - { offset: 0x34FB6, size: 0x8, addend: 0x0, symName: __ZNSt3__116__non_trivial_ifILb1ENS_9allocatorINS_11__list_nodeINS_12basic_stringIcNS_11char_traitsIcEENS1_IcEEEEPvEEEEEC2B8de200100Ev, symObjAddr: 0x41F0, symBinAddr: 0xC9A0, symSize: 0x14 }
  - { offset: 0x34FDE, size: 0x8, addend: 0x0, symName: __ZNSt3__13mapINS_12basic_stringIcNS_11char_traitsIcEENS_9allocatorIcEEEE11field_valueNS_4lessIS6_EENS4_INS_4pairIKS6_S7_EEEEED2B8de200100Ev, symObjAddr: 0x4204, symBinAddr: 0xC9B4, symSize: 0x2C }
  - { offset: 0x35007, size: 0x8, addend: 0x0, symName: __ZNSt3__16__treeINS_12__value_typeINS_12basic_stringIcNS_11char_traitsIcEENS_9allocatorIcEEEE11field_valueEENS_19__map_value_compareIS7_S9_NS_4lessIS7_EELb1EEENS5_IS9_EEED1Ev, symObjAddr: 0x4230, symBinAddr: 0xC9E0, symSize: 0x2C }
  - { offset: 0x35032, size: 0x8, addend: 0x0, symName: __ZNSt3__16__treeINS_12__value_typeINS_12basic_stringIcNS_11char_traitsIcEENS_9allocatorIcEEEE11field_valueEENS_19__map_value_compareIS7_S9_NS_4lessIS7_EELb1EEENS5_IS9_EEED2Ev, symObjAddr: 0x425C, symBinAddr: 0xCA0C, symSize: 0x38 }
  - { offset: 0x3505D, size: 0x8, addend: 0x0, symName: __ZNSt3__16__treeINS_12__value_typeINS_12basic_stringIcNS_11char_traitsIcEENS_9allocatorIcEEEE11field_valueEENS_19__map_value_compareIS7_S9_NS_4lessIS7_EELb1EEENS5_IS9_EEE7destroyEPNS_11__tree_nodeIS9_PvEE, symObjAddr: 0x4294, symBinAddr: 0xCA44, symSize: 0xA4 }
  - { offset: 0x350A9, size: 0x8, addend: 0x0, symName: __ZNKSt3__16__treeINS_12__value_typeINS_12basic_stringIcNS_11char_traitsIcEENS_9allocatorIcEEEE11field_valueEENS_19__map_value_compareIS7_S9_NS_4lessIS7_EELb1EEENS5_IS9_EEE6__rootB8de200100Ev, symObjAddr: 0x4338, symBinAddr: 0xCAE8, symSize: 0x28 }
  - { offset: 0x350CD, size: 0x8, addend: 0x0, symName: __ZNSt3__16__treeINS_12__value_typeINS_12basic_stringIcNS_11char_traitsIcEENS_9allocatorIcEEEE11field_valueEENS_19__map_value_compareIS7_S9_NS_4lessIS7_EELb1EEENS5_IS9_EEE12__node_allocB8de200100Ev, symObjAddr: 0x4360, symBinAddr: 0xCB10, symSize: 0x18 }
  - { offset: 0x350F2, size: 0x8, addend: 0x0, symName: __ZNSt3__116allocator_traitsINS_9allocatorINS_11__tree_nodeINS_12__value_typeINS_12basic_stringIcNS_11char_traitsIcEENS1_IcEEEE11field_valueEEPvEEEEE7destroyB8de200100INS_4pairIKS8_S9_EEvLi0EEEvRSD_PT_, symObjAddr: 0x4378, symBinAddr: 0xCB28, symSize: 0x28 }
  - { offset: 0x35133, size: 0x8, addend: 0x0, symName: __ZNSt3__122__tree_key_value_typesINS_12__value_typeINS_12basic_stringIcNS_11char_traitsIcEENS_9allocatorIcEEEE11field_valueEEE9__get_ptrB8de200100ERS9_, symObjAddr: 0x43A0, symBinAddr: 0xCB50, symSize: 0x24 }
  - { offset: 0x35157, size: 0x8, addend: 0x0, symName: __ZNSt3__116allocator_traitsINS_9allocatorINS_11__tree_nodeINS_12__value_typeINS_12basic_stringIcNS_11char_traitsIcEENS1_IcEEEE11field_valueEEPvEEEEE10deallocateB8de200100ERSD_PSC_m, symObjAddr: 0x43C4, symBinAddr: 0xCB74, symSize: 0x34 }
  - { offset: 0x35198, size: 0x8, addend: 0x0, symName: __ZNSt3__14pairIKNS_12basic_stringIcNS_11char_traitsIcEENS_9allocatorIcEEEE11field_valueED1Ev, symObjAddr: 0x4430, symBinAddr: 0xCBE0, symSize: 0x2C }
  - { offset: 0x351C2, size: 0x8, addend: 0x0, symName: __ZNSt3__14pairIKNS_12basic_stringIcNS_11char_traitsIcEENS_9allocatorIcEEEE11field_valueED2Ev, symObjAddr: 0x445C, symBinAddr: 0xCC0C, symSize: 0x38 }
  - { offset: 0x351EC, size: 0x8, addend: 0x0, symName: __ZNSt3__112__value_typeINS_12basic_stringIcNS_11char_traitsIcEENS_9allocatorIcEEEE11field_valueE11__get_valueB8de200100Ev, symObjAddr: 0x4494, symBinAddr: 0xCC44, symSize: 0x14 }
  - { offset: 0x35211, size: 0x8, addend: 0x0, symName: __ZNSt3__19allocatorINS_11__tree_nodeINS_12__value_typeINS_12basic_stringIcNS_11char_traitsIcEENS0_IcEEEE11field_valueEEPvEEE10deallocateB8de200100EPSB_m, symObjAddr: 0x44A8, symBinAddr: 0xCC58, symSize: 0x34 }
  - { offset: 0x35252, size: 0x8, addend: 0x0, symName: __ZNKSt3__16__treeINS_12__value_typeINS_12basic_stringIcNS_11char_traitsIcEENS_9allocatorIcEEEE11field_valueEENS_19__map_value_compareIS7_S9_NS_4lessIS7_EELb1EEENS5_IS9_EEE10__end_nodeB8de200100Ev, symObjAddr: 0x453C, symBinAddr: 0xCCEC, symSize: 0x28 }
  - { offset: 0x35276, size: 0x8, addend: 0x0, symName: __ZNSt3__13mapIi5fieldNS_4lessIiEENS_9allocatorINS_4pairIKiS1_EEEEEC2B8de200100Ev, symObjAddr: 0x4564, symBinAddr: 0xCD14, symSize: 0x40 }
  - { offset: 0x3529E, size: 0x8, addend: 0x0, symName: __ZNSt3__119__map_value_compareIiNS_12__value_typeIi5fieldEENS_4lessIiEELb1EEC1B8de200100ES5_, symObjAddr: 0x45A4, symBinAddr: 0xCD54, symSize: 0x2C }
  - { offset: 0x352D6, size: 0x8, addend: 0x0, symName: __ZNSt3__16__treeINS_12__value_typeIi5fieldEENS_19__map_value_compareIiS3_NS_4lessIiEELb1EEENS_9allocatorIS3_EEEC1ERKS7_, symObjAddr: 0x45D0, symBinAddr: 0xCD80, symSize: 0x34 }
  - { offset: 0x3530F, size: 0x8, addend: 0x0, symName: __ZNSt3__119__map_value_compareIiNS_12__value_typeIi5fieldEENS_4lessIiEELb1EEC2B8de200100ES5_, symObjAddr: 0x4604, symBinAddr: 0xCDB4, symSize: 0x14 }
  - { offset: 0x35347, size: 0x8, addend: 0x0, symName: __ZNSt3__16__treeINS_12__value_typeIi5fieldEENS_19__map_value_compareIiS3_NS_4lessIiEELb1EEENS_9allocatorIS3_EEEC2ERKS7_, symObjAddr: 0x4618, symBinAddr: 0xCDC8, symSize: 0x68 }
  - { offset: 0x35380, size: 0x8, addend: 0x0, symName: __ZNSt3__19allocatorINS_11__tree_nodeINS_12__value_typeIi5fieldEEPvEEEC1B8de200100Ev, symObjAddr: 0x4680, symBinAddr: 0xCE30, symSize: 0x2C }
  - { offset: 0x353A8, size: 0x8, addend: 0x0, symName: __ZNSt3__19allocatorINS_11__tree_nodeINS_12__value_typeIi5fieldEEPvEEEC2B8de200100Ev, symObjAddr: 0x46E8, symBinAddr: 0xCE5C, symSize: 0x2C }
  - { offset: 0x353D0, size: 0x8, addend: 0x0, symName: __ZNSt3__116__non_trivial_ifILb1ENS_9allocatorINS_11__tree_nodeINS_12__value_typeIi5fieldEEPvEEEEEC2B8de200100Ev, symObjAddr: 0x4714, symBinAddr: 0xCE88, symSize: 0x14 }
  - { offset: 0x353F8, size: 0x8, addend: 0x0, symName: __ZNSt3__13mapIi5fieldNS_4lessIiEENS_9allocatorINS_4pairIKiS1_EEEEED2B8de200100Ev, symObjAddr: 0x4728, symBinAddr: 0xCE9C, symSize: 0x2C }
  - { offset: 0x35421, size: 0x8, addend: 0x0, symName: __ZNSt3__16__treeINS_12__value_typeIi5fieldEENS_19__map_value_compareIiS3_NS_4lessIiEELb1EEENS_9allocatorIS3_EEED1Ev, symObjAddr: 0x4754, symBinAddr: 0xCEC8, symSize: 0x2C }
  - { offset: 0x3544C, size: 0x8, addend: 0x0, symName: __ZNSt3__16__treeINS_12__value_typeIi5fieldEENS_19__map_value_compareIiS3_NS_4lessIiEELb1EEENS_9allocatorIS3_EEED2Ev, symObjAddr: 0x4780, symBinAddr: 0xCEF4, symSize: 0x38 }
  - { offset: 0x35477, size: 0x8, addend: 0x0, symName: __ZNSt3__16__treeINS_12__value_typeIi5fieldEENS_19__map_value_compareIiS3_NS_4lessIiEELb1EEENS_9allocatorIS3_EEE7destroyEPNS_11__tree_nodeIS3_PvEE, symObjAddr: 0x47B8, symBinAddr: 0xCF2C, symSize: 0xA4 }
  - { offset: 0x354CC, size: 0x8, addend: 0x0, symName: __ZNKSt3__16__treeINS_12__value_typeIi5fieldEENS_19__map_value_compareIiS3_NS_4lessIiEELb1EEENS_9allocatorIS3_EEE4sizeB8de200100Ev, symObjAddr: 0x4B54, symBinAddr: 0xCFD0, symSize: 0x18 }
  - { offset: 0x35514, size: 0x8, addend: 0x0, symName: __ZNSt3__112basic_stringIcNS_11char_traitsIcEENS_9allocatorIcEEE13__move_assignB8de200100ERS5_NS_17integral_constantIbLb1EEE, symObjAddr: 0x5F9C, symBinAddr: 0xCFE8, symSize: 0x150 }
  - { offset: 0x35573, size: 0x8, addend: 0x0, symName: __ZNKSt3__112basic_stringIcNS_11char_traitsIcEENS_9allocatorIcEEE17__annotate_deleteB8de200100Ev, symObjAddr: 0x60EC, symBinAddr: 0xD138, symSize: 0x10 }
  - { offset: 0x35598, size: 0x8, addend: 0x0, symName: __ZNSt3__116allocator_traitsINS_9allocatorIcEEE10deallocateB8de200100ERS2_Pcm, symObjAddr: 0x60FC, symBinAddr: 0xD148, symSize: 0x34 }
  - { offset: 0x355DA, size: 0x8, addend: 0x0, symName: __ZNSt3__112basic_stringIcNS_11char_traitsIcEENS_9allocatorIcEEE18__get_long_pointerB8de200100Ev, symObjAddr: 0x6130, symBinAddr: 0xD17C, symSize: 0x44 }
  - { offset: 0x355FF, size: 0x8, addend: 0x0, symName: __ZNKSt3__112basic_stringIcNS_11char_traitsIcEENS_9allocatorIcEEE14__get_long_capB8de200100Ev, symObjAddr: 0x6174, symBinAddr: 0xD1C0, symSize: 0x4C }
  - { offset: 0x35624, size: 0x8, addend: 0x0, symName: __ZNSt3__112basic_stringIcNS_11char_traitsIcEENS_9allocatorIcEEE19__move_assign_allocB8de200100ERS5_, symObjAddr: 0x61C0, symBinAddr: 0xD20C, symSize: 0x2C }
  - { offset: 0x35658, size: 0x8, addend: 0x0, symName: __ZNSt3__112basic_stringIcNS_11char_traitsIcEENS_9allocatorIcEEE16__set_short_sizeB8de200100Em, symObjAddr: 0x61EC, symBinAddr: 0xD238, symSize: 0x78 }
  - { offset: 0x3568C, size: 0x8, addend: 0x0, symName: __ZNSt3__111char_traitsIcE6assignB8de200100ERcRKc, symObjAddr: 0x6264, symBinAddr: 0xD2B0, symSize: 0x24 }
  - { offset: 0x356BD, size: 0x8, addend: 0x0, symName: __ZNSt3__112basic_stringIcNS_11char_traitsIcEENS_9allocatorIcEEE19__get_short_pointerB8de200100Ev, symObjAddr: 0x6288, symBinAddr: 0xD2D4, symSize: 0x24 }
  - { offset: 0x356E1, size: 0x8, addend: 0x0, symName: __ZNKSt3__112basic_stringIcNS_11char_traitsIcEENS_9allocatorIcEEE17__annotate_shrinkB8de200100Em, symObjAddr: 0x62AC, symBinAddr: 0xD2F8, symSize: 0x14 }
  - { offset: 0x35715, size: 0x8, addend: 0x0, symName: __ZNSt3__19allocatorIcE10deallocateB8de200100EPcm, symObjAddr: 0x6310, symBinAddr: 0xD30C, symSize: 0x34 }
  - { offset: 0x35755, size: 0x8, addend: 0x0, symName: __ZNSt3__112basic_stringIcNS_11char_traitsIcEENS_9allocatorIcEEE19__move_assign_allocB8de200100ERS5_NS_17integral_constantIbLb1EEE, symObjAddr: 0x63A0, symBinAddr: 0xD39C, symSize: 0x14 }
  - { offset: 0x35795, size: 0x8, addend: 0x0, symName: __ZNSt3__114pointer_traitsIPcE10pointer_toB8de200100ERc, symObjAddr: 0x63B4, symBinAddr: 0xD3B0, symSize: 0x14 }
  - { offset: 0x357B7, size: 0x8, addend: 0x0, symName: __ZNSt3__112basic_stringIcNS_11char_traitsIcEENS_9allocatorIcEEEC1B8de200100EOS5_, symObjAddr: 0x63C8, symBinAddr: 0xD3C4, symSize: 0x34 }
  - { offset: 0x357EE, size: 0x8, addend: 0x0, symName: __ZNSt3__112basic_stringIcNS_11char_traitsIcEENS_9allocatorIcEEEC2B8de200100EOS5_, symObjAddr: 0x63FC, symBinAddr: 0xD3F8, symSize: 0xB4 }
  - { offset: 0x35855, size: 0x8, addend: 0x0, symName: __ZZNSt3__112basic_stringIcNS_11char_traitsIcEENS_9allocatorIcEEEC1B8de200100EOS5_ENKUlRS5_E_clES7_, symObjAddr: 0x64B0, symBinAddr: 0xD4AC, symSize: 0x40 }
  - { offset: 0x3588D, size: 0x8, addend: 0x0, symName: __ZNSt3__111char_traitsIcE4findB8de200100EPKcmRS2_, symObjAddr: 0x66F8, symBinAddr: 0xD6F4, symSize: 0x68 }
  - { offset: 0x358CC, size: 0x8, addend: 0x0, symName: __ZNSt3__111char_traitsIcE7compareB8de200100EPKcS3_m, symObjAddr: 0x6760, symBinAddr: 0xD75C, symSize: 0x34 }
  - { offset: 0x3590B, size: 0x8, addend: 0x0, symName: __ZNSt3__112basic_stringIcNS_11char_traitsIcEENS_9allocatorIcEEE13__fits_in_ssoB8de200100Em, symObjAddr: 0x6818, symBinAddr: 0xD7D0, symSize: 0x1C }
  - { offset: 0x3592F, size: 0x8, addend: 0x0, symName: __ZNSt3__112basic_stringIcNS_11char_traitsIcEENS_9allocatorIcEEE13__get_pointerB8de200100Ev, symObjAddr: 0x6834, symBinAddr: 0xD7EC, symSize: 0x54 }
  - { offset: 0x35954, size: 0x8, addend: 0x0, symName: __ZNSt3__16__treeINS_12__value_typeIi5fieldEENS_19__map_value_compareIiS3_NS_4lessIiEELb1EEENS_9allocatorIS3_EEE25__emplace_unique_key_argsIiJRKNS_21piecewise_construct_tENS_5tupleIJOiEEENSF_IJEEEEEENS_4pairINS_15__tree_iteratorIS3_PNS_11__tree_nodeIS3_PvEElEEbEERKT_DpOT0_, symObjAddr: 0x6888, symBinAddr: 0xD840, symSize: 0xF8 }
  - { offset: 0x35A28, size: 0x8, addend: 0x0, symName: __ZNSt3__16__treeINS_12__value_typeIi5fieldEENS_19__map_value_compareIiS3_NS_4lessIiEELb1EEENS_9allocatorIS3_EEE16__construct_nodeIJRKNS_21piecewise_construct_tENS_5tupleIJOiEEENSF_IJEEEEEENS_10unique_ptrINS_11__tree_nodeIS3_PvEENS_22__tree_node_destructorINS8_ISM_EEEEEEDpOT_, symObjAddr: 0x69AC, symBinAddr: 0xD964, symSize: 0x120 }
  - { offset: 0x35AAE, size: 0x8, addend: 0x0, symName: __ZNSt3__116allocator_traitsINS_9allocatorINS_11__tree_nodeINS_12__value_typeIi5fieldEEPvEEEEE9constructB8de200100INS_4pairIKiS4_EEJRKNS_21piecewise_construct_tENS_5tupleIJOiEEENSH_IJEEEELi0EEEvRS8_PT_DpOT0_, symObjAddr: 0x6ACC, symBinAddr: 0xDA84, symSize: 0x44 }
  - { offset: 0x35B32, size: 0x8, addend: 0x0, symName: __ZNSt3__19allocatorINS_11__tree_nodeINS_12__value_typeIi5fieldEEPvEEE9constructB8de200100INS_4pairIKiS3_EEJRKNS_21piecewise_construct_tENS_5tupleIJOiEEENSF_IJEEEEEEvPT_DpOT0_, symObjAddr: 0x6B10, symBinAddr: 0xDAC8, symSize: 0x44 }
  - { offset: 0x35BAC, size: 0x8, addend: 0x0, symName: __ZNSt3__14pairIKi5fieldEC1B8de200100IJOiEJEEENS_21piecewise_construct_tENS_5tupleIJDpT_EEENS7_IJDpT0_EEE, symObjAddr: 0x6B54, symBinAddr: 0xDB0C, symSize: 0x3C }
  - { offset: 0x35C0F, size: 0x8, addend: 0x0, symName: __ZNSt3__14pairIKi5fieldEC1B8de200100IJOiEJEJLm0EEJEEENS_21piecewise_construct_tERNS_5tupleIJDpT_EEERNS7_IJDpT0_EEENS_15__tuple_indicesIJXspT1_EEEENSG_IJXspT2_EEEE, symObjAddr: 0x6B90, symBinAddr: 0xDB48, symSize: 0x3C }
  - { offset: 0x35C9D, size: 0x8, addend: 0x0, symName: __ZNSt3__14pairIKi5fieldEC2B8de200100IJOiEJEJLm0EEJEEENS_21piecewise_construct_tERNS_5tupleIJDpT_EEERNS7_IJDpT0_EEENS_15__tuple_indicesIJXspT1_EEEENSG_IJXspT2_EEEE, symObjAddr: 0x6BCC, symBinAddr: 0xDB84, symSize: 0x60 }
  - { offset: 0x35D2B, size: 0x8, addend: 0x0, symName: __ZNSt3__112__tuple_leafILm0EOiLb0EE3getB8de200100Ev, symObjAddr: 0x6C50, symBinAddr: 0xDC08, symSize: 0x18 }
  - { offset: 0x35D4F, size: 0x8, addend: 0x0, symName: __ZNSt3__15tupleIJOiEEC1B8de200100IJiELi0EEEDpOT_, symObjAddr: 0x6C68, symBinAddr: 0xDC20, symSize: 0x34 }
  - { offset: 0x35D97, size: 0x8, addend: 0x0, symName: __ZNSt3__15tupleIJOiEEC2B8de200100IJiELi0EEEDpOT_, symObjAddr: 0x6C9C, symBinAddr: 0xDC54, symSize: 0x34 }
  - { offset: 0x35DDF, size: 0x8, addend: 0x0, symName: __ZNSt3__112__tuple_implINS_15__tuple_indicesIJLm0EEEEJOiEEC1B8de200100IJLm0EEJS3_EJEJEJiEEENS1_IJXspT_EEEENS_13__tuple_typesIJDpT0_EEENS1_IJXspT1_EEEENS7_IJDpT2_EEEDpOT3_, symObjAddr: 0x6CD0, symBinAddr: 0xDC88, symSize: 0x34 }
  - { offset: 0x35E75, size: 0x8, addend: 0x0, symName: __ZNSt3__112__tuple_implINS_15__tuple_indicesIJLm0EEEEJOiEEC2B8de200100IJLm0EEJS3_EJEJEJiEEENS1_IJXspT_EEEENS_13__tuple_typesIJDpT0_EEENS1_IJXspT1_EEEENS7_IJDpT2_EEEDpOT3_, symObjAddr: 0x6D04, symBinAddr: 0xDCBC, symSize: 0x34 }
  - { offset: 0x35F0B, size: 0x8, addend: 0x0, symName: __ZNSt3__112__tuple_leafILm0EOiLb0EEC2B8de200100IiLi0EEEOT_, symObjAddr: 0x6D38, symBinAddr: 0xDCF0, symSize: 0x20 }
  - { offset: 0x35F52, size: 0x8, addend: 0x0, symName: __ZNSt3__111char_traitsIcE6lengthB8de200100EPKc, symObjAddr: 0x6D58, symBinAddr: 0xDD10, symSize: 0x24 }
  - { offset: 0x35F74, size: 0x8, addend: 0x0, symName: __ZNSt3__112basic_stringIcNS_11char_traitsIcEENS_9allocatorIcEEEC2B8de200100ILi0EEEPKc, symObjAddr: 0x6DA0, symBinAddr: 0xDD58, symSize: 0x68 }
  - { offset: 0x35FB2, size: 0x8, addend: 0x0, symName: __ZNSt3__112basic_stringIcNS_11char_traitsIcEENS_9allocatorIcEEE15__make_iteratorB8de200100EPc, symObjAddr: 0x6E08, symBinAddr: 0xDDC0, symSize: 0x30 }
  - { offset: 0x35FE5, size: 0x8, addend: 0x0, symName: __ZNSt3__111__wrap_iterIPcEC1B8de200100ES1_, symObjAddr: 0x6E38, symBinAddr: 0xDDF0, symSize: 0x34 }
  - { offset: 0x3601B, size: 0x8, addend: 0x0, symName: __ZNSt3__111__wrap_iterIPcEC2B8de200100ES1_, symObjAddr: 0x6E6C, symBinAddr: 0xDE24, symSize: 0x20 }
  - { offset: 0x36051, size: 0x8, addend: 0x0, symName: __ZNSt3__111__wrap_iterIPKcEC2B8de200100IPcLi0EEERKNS0_IT_EE, symObjAddr: 0x6E8C, symBinAddr: 0xDE44, symSize: 0x24 }
  - { offset: 0x36097, size: 0x8, addend: 0x0, symName: __ZNSt3__16__treeINS_12__value_typeINS_12basic_stringIcNS_11char_traitsIcEENS_9allocatorIcEEEE11field_valueEENS_19__map_value_compareIS7_S9_NS_4lessIS7_EELb1EEENS5_IS9_EEEaSERKSF_, symObjAddr: 0x6EB0, symBinAddr: 0xDE68, symSize: 0x88 }
  - { offset: 0x360CC, size: 0x8, addend: 0x0, symName: __ZNKSt3__16__treeINS_12__value_typeINS_12basic_stringIcNS_11char_traitsIcEENS_9allocatorIcEEEE11field_valueEENS_19__map_value_compareIS7_S9_NS_4lessIS7_EELb1EEENS5_IS9_EEE10value_compB8de200100Ev, symObjAddr: 0x6F38, symBinAddr: 0xDEF0, symSize: 0x18 }
  - { offset: 0x360F0, size: 0x8, addend: 0x0, symName: __ZNSt3__16__treeINS_12__value_typeINS_12basic_stringIcNS_11char_traitsIcEENS_9allocatorIcEEEE11field_valueEENS_19__map_value_compareIS7_S9_NS_4lessIS7_EELb1EEENS5_IS9_EEE10value_compB8de200100Ev, symObjAddr: 0x6F50, symBinAddr: 0xDF08, symSize: 0x18 }
  - { offset: 0x36115, size: 0x8, addend: 0x0, symName: __ZNSt3__16__treeINS_12__value_typeINS_12basic_stringIcNS_11char_traitsIcEENS_9allocatorIcEEEE11field_valueEENS_19__map_value_compareIS7_S9_NS_4lessIS7_EELb1EEENS5_IS9_EEE19__copy_assign_allocB8de200100ERKSF_, symObjAddr: 0x6F68, symBinAddr: 0xDF20, symSize: 0x2C }
  - { offset: 0x36149, size: 0x8, addend: 0x0, symName: __ZNSt3__16__treeINS_12__value_typeINS_12basic_stringIcNS_11char_traitsIcEENS_9allocatorIcEEEE11field_valueEENS_19__map_value_compareIS7_S9_NS_4lessIS7_EELb1EEENS5_IS9_EEE14__assign_multiINS_21__tree_const_iteratorIS9_PNS_11__tree_nodeIS9_PvEElEEEEvT_SN_, symObjAddr: 0x6F94, symBinAddr: 0xDF4C, symSize: 0x168 }
  - { offset: 0x361AB, size: 0x8, addend: 0x0, symName: __ZNKSt3__16__treeINS_12__value_typeINS_12basic_stringIcNS_11char_traitsIcEENS_9allocatorIcEEEE11field_valueEENS_19__map_value_compareIS7_S9_NS_4lessIS7_EELb1EEENS5_IS9_EEE5beginB8de200100Ev, symObjAddr: 0x70FC, symBinAddr: 0xE0B4, symSize: 0x34 }
  - { offset: 0x361D0, size: 0x8, addend: 0x0, symName: __ZNKSt3__16__treeINS_12__value_typeINS_12basic_stringIcNS_11char_traitsIcEENS_9allocatorIcEEEE11field_valueEENS_19__map_value_compareIS7_S9_NS_4lessIS7_EELb1EEENS5_IS9_EEE3endB8de200100Ev, symObjAddr: 0x7130, symBinAddr: 0xE0E8, symSize: 0x34 }
  - { offset: 0x361F4, size: 0x8, addend: 0x0, symName: __ZNSt3__16__treeINS_12__value_typeINS_12basic_stringIcNS_11char_traitsIcEENS_9allocatorIcEEEE11field_valueEENS_19__map_value_compareIS7_S9_NS_4lessIS7_EELb1EEENS5_IS9_EEE19__copy_assign_allocB8de200100ERKSF_NS_17integral_constantIbLb0EEE, symObjAddr: 0x7164, symBinAddr: 0xE11C, symSize: 0x14 }
  - { offset: 0x36230, size: 0x8, addend: 0x0, symName: __ZNSt3__16__treeINS_12__value_typeINS_12basic_stringIcNS_11char_traitsIcEENS_9allocatorIcEEEE11field_valueEENS_19__map_value_compareIS7_S9_NS_4lessIS7_EELb1EEENS5_IS9_EEE4sizeB8de200100Ev, symObjAddr: 0x7178, symBinAddr: 0xE130, symSize: 0x18 }
  - { offset: 0x36272, size: 0x8, addend: 0x0, symName: __ZNSt3__16__treeINS_12__value_typeINS_12basic_stringIcNS_11char_traitsIcEENS_9allocatorIcEEEE11field_valueEENS_19__map_value_compareIS7_S9_NS_4lessIS7_EELb1EEENS5_IS9_EEE18_DetachedTreeCacheC1B8de200100EPSF_, symObjAddr: 0x7190, symBinAddr: 0xE148, symSize: 0x34 }
  - { offset: 0x362A9, size: 0x8, addend: 0x0, symName: __ZNKSt3__16__treeINS_12__value_typeINS_12basic_stringIcNS_11char_traitsIcEENS_9allocatorIcEEEE11field_valueEENS_19__map_value_compareIS7_S9_NS_4lessIS7_EELb1EEENS5_IS9_EEE18_DetachedTreeCache5__getB8de200100Ev, symObjAddr: 0x71C4, symBinAddr: 0xE17C, symSize: 0x18 }
  - { offset: 0x362CE, size: 0x8, addend: 0x0, symName: __ZNKSt3__121__tree_const_iteratorINS_12__value_typeINS_12basic_stringIcNS_11char_traitsIcEENS_9allocatorIcEEEE11field_valueEEPNS_11__tree_nodeIS9_PvEElEdeB8de200100Ev, symObjAddr: 0x720C, symBinAddr: 0xE1C4, symSize: 0x28 }
  - { offset: 0x362F3, size: 0x8, addend: 0x0, symName: __ZNSt3__112__value_typeINS_12basic_stringIcNS_11char_traitsIcEENS_9allocatorIcEEEE11field_valueEaSB8de200100ERKS8_, symObjAddr: 0x7234, symBinAddr: 0xE1EC, symSize: 0x60 }
  - { offset: 0x36327, size: 0x8, addend: 0x0, symName: __ZNSt3__16__treeINS_12__value_typeINS_12basic_stringIcNS_11char_traitsIcEENS_9allocatorIcEEEE11field_valueEENS_19__map_value_compareIS7_S9_NS_4lessIS7_EELb1EEENS5_IS9_EEE19__node_insert_multiEPNS_11__tree_nodeIS9_PvEE, symObjAddr: 0x7294, symBinAddr: 0xE24C, symSize: 0x70 }
  - { offset: 0x3637B, size: 0x8, addend: 0x0, symName: __ZNSt3__16__treeINS_12__value_typeINS_12basic_stringIcNS_11char_traitsIcEENS_9allocatorIcEEEE11field_valueEENS_19__map_value_compareIS7_S9_NS_4lessIS7_EELb1EEENS5_IS9_EEE18_DetachedTreeCache9__advanceB8de200100Ev, symObjAddr: 0x7304, symBinAddr: 0xE2BC, symSize: 0x50 }
  - { offset: 0x363A0, size: 0x8, addend: 0x0, symName: __ZNSt3__121__tree_const_iteratorINS_12__value_typeINS_12basic_stringIcNS_11char_traitsIcEENS_9allocatorIcEEEE11field_valueEEPNS_11__tree_nodeIS9_PvEElEppB8de200100Ev, symObjAddr: 0x7354, symBinAddr: 0xE30C, symSize: 0x38 }
  - { offset: 0x363C4, size: 0x8, addend: 0x0, symName: __ZNSt3__16__treeINS_12__value_typeINS_12basic_stringIcNS_11char_traitsIcEENS_9allocatorIcEEEE11field_valueEENS_19__map_value_compareIS7_S9_NS_4lessIS7_EELb1EEENS5_IS9_EEE18_DetachedTreeCacheD1B8de200100Ev, symObjAddr: 0x738C, symBinAddr: 0xE344, symSize: 0x2C }
  - { offset: 0x363ED, size: 0x8, addend: 0x0, symName: __ZNSt3__16__treeINS_12__value_typeINS_12basic_stringIcNS_11char_traitsIcEENS_9allocatorIcEEEE11field_valueEENS_19__map_value_compareIS7_S9_NS_4lessIS7_EELb1EEENS5_IS9_EEE14__insert_multiB8de200100IRKNS_4pairIKS7_S8_EEEENS_15__tree_iteratorIS9_PNS_11__tree_nodeIS9_PvEElEEOT_, symObjAddr: 0x73B8, symBinAddr: 0xE370, symSize: 0x34 }
  - { offset: 0x3642A, size: 0x8, addend: 0x0, symName: __ZNSt3__122__tree_key_value_typesINS_12__value_typeINS_12basic_stringIcNS_11char_traitsIcEENS_9allocatorIcEEEE11field_valueEEE11__get_valueB8de200100ERKS9_, symObjAddr: 0x73EC, symBinAddr: 0xE3A4, symSize: 0x24 }
  - { offset: 0x3644D, size: 0x8, addend: 0x0, symName: __ZNSt3__16__treeINS_12__value_typeINS_12basic_stringIcNS_11char_traitsIcEENS_9allocatorIcEEEE11field_valueEENS_19__map_value_compareIS7_S9_NS_4lessIS7_EELb1EEENS5_IS9_EEE18_DetachedTreeCacheC2B8de200100EPSF_, symObjAddr: 0x7410, symBinAddr: 0xE3C8, symSize: 0x4C }
  - { offset: 0x36485, size: 0x8, addend: 0x0, symName: __ZNSt3__16__treeINS_12__value_typeINS_12basic_stringIcNS_11char_traitsIcEENS_9allocatorIcEEEE11field_valueEENS_19__map_value_compareIS7_S9_NS_4lessIS7_EELb1EEENS5_IS9_EEE18_DetachedTreeCache18__detach_from_treeEPSF_, symObjAddr: 0x745C, symBinAddr: 0xE414, symSize: 0x98 }
  - { offset: 0x364B7, size: 0x8, addend: 0x0, symName: __ZNKSt3__121__tree_const_iteratorINS_12__value_typeINS_12basic_stringIcNS_11char_traitsIcEENS_9allocatorIcEEEE11field_valueEEPNS_11__tree_nodeIS9_PvEElE8__get_npB8de200100Ev, symObjAddr: 0x7520, symBinAddr: 0xE4D8, symSize: 0x18 }
  - { offset: 0x364DB, size: 0x8, addend: 0x0, symName: __ZNKSt3__112__value_typeINS_12basic_stringIcNS_11char_traitsIcEENS_9allocatorIcEEEE11field_valueE11__get_valueB8de200100Ev, symObjAddr: 0x7538, symBinAddr: 0xE4F0, symSize: 0x14 }
  - { offset: 0x36500, size: 0x8, addend: 0x0, symName: __ZNSt3__112__value_typeINS_12basic_stringIcNS_11char_traitsIcEENS_9allocatorIcEEEE11field_valueE5__refB8de200100Ev, symObjAddr: 0x754C, symBinAddr: 0xE504, symSize: 0x44 }
  - { offset: 0x36534, size: 0x8, addend: 0x0, symName: __ZNSt3__14pairIRNS_12basic_stringIcNS_11char_traitsIcEENS_9allocatorIcEEEER11field_valueEaSB8de200100IKS6_S8_Li0EEERSA_RKNS0_IT_T0_EE, symObjAddr: 0x7590, symBinAddr: 0xE548, symSize: 0x4C }
  - { offset: 0x3657E, size: 0x8, addend: 0x0, symName: __ZNSt3__14pairIRNS_12basic_stringIcNS_11char_traitsIcEENS_9allocatorIcEEEER11field_valueEC1B8de200100ILb1ELi0EEES7_S9_, symObjAddr: 0x75DC, symBinAddr: 0xE594, symSize: 0x3C }
  - { offset: 0x365D2, size: 0x8, addend: 0x0, symName: __ZNSt3__14pairIRNS_12basic_stringIcNS_11char_traitsIcEENS_9allocatorIcEEEER11field_valueEC2B8de200100ILb1ELi0EEES7_S9_, symObjAddr: 0x7618, symBinAddr: 0xE5D0, symSize: 0x2C }
  - { offset: 0x36627, size: 0x8, addend: 0x0, symName: __ZNSt3__16__treeINS_12__value_typeINS_12basic_stringIcNS_11char_traitsIcEENS_9allocatorIcEEEE11field_valueEENS_19__map_value_compareIS7_S9_NS_4lessIS7_EELb1EEENS5_IS9_EEE16__find_leaf_highERPNS_15__tree_end_nodeIPNS_16__tree_node_baseIPvEEEERKS7_, symObjAddr: 0x7644, symBinAddr: 0xE5FC, symSize: 0x10C }
  - { offset: 0x3667B, size: 0x8, addend: 0x0, symName: __ZNSt3__122__tree_key_value_typesINS_12__value_typeINS_12basic_stringIcNS_11char_traitsIcEENS_9allocatorIcEEEE11field_valueEEE9__get_keyB8de200100ERKS9_, symObjAddr: 0x7750, symBinAddr: 0xE708, symSize: 0x24 }
  - { offset: 0x3669F, size: 0x8, addend: 0x0, symName: __ZNSt3__16__treeINS_12__value_typeINS_12basic_stringIcNS_11char_traitsIcEENS_9allocatorIcEEEE11field_valueEENS_19__map_value_compareIS7_S9_NS_4lessIS7_EELb1EEENS5_IS9_EEE16__insert_node_atEPNS_15__tree_end_nodeIPNS_16__tree_node_baseIPvEEEERSK_SK_, symObjAddr: 0x7774, symBinAddr: 0xE72C, symSize: 0xC4 }
  - { offset: 0x366F2, size: 0x8, addend: 0x0, symName: __ZNSt3__115__tree_iteratorINS_12__value_typeINS_12basic_stringIcNS_11char_traitsIcEENS_9allocatorIcEEEE11field_valueEEPNS_11__tree_nodeIS9_PvEElEC1B8de200100ESD_, symObjAddr: 0x7838, symBinAddr: 0xE7F0, symSize: 0x34 }
  - { offset: 0x3672A, size: 0x8, addend: 0x0, symName: __ZNKSt3__119__map_value_compareINS_12basic_stringIcNS_11char_traitsIcEENS_9allocatorIcEEEENS_12__value_typeIS6_11field_valueEENS_4lessIS6_EELb1EEclB8de200100ERKS6_RKS9_, symObjAddr: 0x786C, symBinAddr: 0xE824, symSize: 0x4C }
  - { offset: 0x3676D, size: 0x8, addend: 0x0, symName: __ZNKSt3__14lessINS_12basic_stringIcNS_11char_traitsIcEENS_9allocatorIcEEEEEclB8de200100ERKS6_S9_, symObjAddr: 0x78B8, symBinAddr: 0xE870, symSize: 0x30 }
  - { offset: 0x367B0, size: 0x8, addend: 0x0, symName: __ZNKSt3__112basic_stringIcNS_11char_traitsIcEENS_9allocatorIcEEE7compareB8de200100ERKS5_, symObjAddr: 0x791C, symBinAddr: 0xE8D4, symSize: 0x4C }
  - { offset: 0x367E6, size: 0x8, addend: 0x0, symName: __ZNKSt3__112basic_stringIcNS_11char_traitsIcEENS_9allocatorIcEEE7compareINS_17basic_string_viewIcS2_EELi0EEEiRKT_, symObjAddr: 0x7968, symBinAddr: 0xE920, symSize: 0x11C }
  - { offset: 0x36866, size: 0x8, addend: 0x0, symName: __ZNKSt3__112basic_stringIcNS_11char_traitsIcEENS_9allocatorIcEEEcvNS_17basic_string_viewIcS2_EEB8de200100Ev, symObjAddr: 0x7A84, symBinAddr: 0xEA3C, symSize: 0x50 }
  - { offset: 0x3688A, size: 0x8, addend: 0x0, symName: __ZNKSt3__117basic_string_viewIcNS_11char_traitsIcEEE4sizeB8de200100Ev, symObjAddr: 0x7AD4, symBinAddr: 0xEA8C, symSize: 0x18 }
  - { offset: 0x368AE, size: 0x8, addend: 0x0, symName: __ZNKSt3__117basic_string_viewIcNS_11char_traitsIcEEE4dataB8de200100Ev, symObjAddr: 0x7AEC, symBinAddr: 0xEAA4, symSize: 0x18 }
  - { offset: 0x368D2, size: 0x8, addend: 0x0, symName: __ZNSt3__117basic_string_viewIcNS_11char_traitsIcEEEC1B8de200100ENS3_14__assume_validEPKcm, symObjAddr: 0x7BB4, symBinAddr: 0xEABC, symSize: 0x3C }
  - { offset: 0x36924, size: 0x8, addend: 0x0, symName: __ZNSt3__117basic_string_viewIcNS_11char_traitsIcEEEC2B8de200100ENS3_14__assume_validEPKcm, symObjAddr: 0x7BF0, symBinAddr: 0xEAF8, symSize: 0x2C }
  - { offset: 0x36976, size: 0x8, addend: 0x0, symName: __ZNSt3__115__tree_iteratorINS_12__value_typeINS_12basic_stringIcNS_11char_traitsIcEENS_9allocatorIcEEEE11field_valueEEPNS_11__tree_nodeIS9_PvEElEC2B8de200100ESD_, symObjAddr: 0x7C1C, symBinAddr: 0xEB24, symSize: 0x20 }
  - { offset: 0x369AE, size: 0x8, addend: 0x0, symName: __ZNSt3__16__treeINS_12__value_typeINS_12basic_stringIcNS_11char_traitsIcEENS_9allocatorIcEEEE11field_valueEENS_19__map_value_compareIS7_S9_NS_4lessIS7_EELb1EEENS5_IS9_EEE18_DetachedTreeCache13__detach_nextEPNS_11__tree_nodeIS9_PvEE, symObjAddr: 0x7C3C, symBinAddr: 0xEB44, symSize: 0xD8 }
  - { offset: 0x369D1, size: 0x8, addend: 0x0, symName: __ZNSt3__16__treeINS_12__value_typeINS_12basic_stringIcNS_11char_traitsIcEENS_9allocatorIcEEEE11field_valueEENS_19__map_value_compareIS7_S9_NS_4lessIS7_EELb1EEENS5_IS9_EEE18_DetachedTreeCacheD2B8de200100Ev, symObjAddr: 0x7E78, symBinAddr: 0xED80, symSize: 0x8C }
  - { offset: 0x369FA, size: 0x8, addend: 0x0, symName: __ZNSt3__16__treeINS_12__value_typeINS_12basic_stringIcNS_11char_traitsIcEENS_9allocatorIcEEEE11field_valueEENS_19__map_value_compareIS7_S9_NS_4lessIS7_EELb1EEENS5_IS9_EEE15__emplace_multiIJRKNS_4pairIKS7_S8_EEEEENS_15__tree_iteratorIS9_PNS_11__tree_nodeIS9_PvEElEEDpOT_, symObjAddr: 0x7F04, symBinAddr: 0xEE0C, symSize: 0xD8 }
  - { offset: 0x36A67, size: 0x8, addend: 0x0, symName: __ZNSt3__16__treeINS_12__value_typeINS_12basic_stringIcNS_11char_traitsIcEENS_9allocatorIcEEEE11field_valueEENS_19__map_value_compareIS7_S9_NS_4lessIS7_EELb1EEENS5_IS9_EEE16__construct_nodeIJRKNS_4pairIKS7_S8_EEEEENS_10unique_ptrINS_11__tree_nodeIS9_PvEENS_22__tree_node_destructorINS5_ISP_EEEEEEDpOT_, symObjAddr: 0x7FDC, symBinAddr: 0xEEE4, symSize: 0x110 }
  - { offset: 0x36AC4, size: 0x8, addend: 0x0, symName: __ZNKSt3__110unique_ptrINS_11__tree_nodeINS_12__value_typeINS_12basic_stringIcNS_11char_traitsIcEENS_9allocatorIcEEEE11field_valueEEPvEENS_22__tree_node_destructorINS6_ISC_EEEEEptB8de200100Ev, symObjAddr: 0x80EC, symBinAddr: 0xEFF4, symSize: 0x18 }
  - { offset: 0x36AE8, size: 0x8, addend: 0x0, symName: __ZNKSt3__110unique_ptrINS_11__tree_nodeINS_12__value_typeINS_12basic_stringIcNS_11char_traitsIcEENS_9allocatorIcEEEE11field_valueEEPvEENS_22__tree_node_destructorINS6_ISC_EEEEE3getB8de200100Ev, symObjAddr: 0x8104, symBinAddr: 0xF00C, symSize: 0x18 }
  - { offset: 0x36B0C, size: 0x8, addend: 0x0, symName: __ZNSt3__110unique_ptrINS_11__tree_nodeINS_12__value_typeINS_12basic_stringIcNS_11char_traitsIcEENS_9allocatorIcEEEE11field_valueEEPvEENS_22__tree_node_destructorINS6_ISC_EEEEE7releaseB8de200100Ev, symObjAddr: 0x811C, symBinAddr: 0xF024, symSize: 0x24 }
  - { offset: 0x36B3F, size: 0x8, addend: 0x0, symName: __ZNSt3__110unique_ptrINS_11__tree_nodeINS_12__value_typeINS_12basic_stringIcNS_11char_traitsIcEENS_9allocatorIcEEEE11field_valueEEPvEENS_22__tree_node_destructorINS6_ISC_EEEEED1B8de200100Ev, symObjAddr: 0x8140, symBinAddr: 0xF048, symSize: 0x2C }
  - { offset: 0x36B68, size: 0x8, addend: 0x0, symName: __ZNSt3__116allocator_traitsINS_9allocatorINS_11__tree_nodeINS_12__value_typeINS_12basic_stringIcNS_11char_traitsIcEENS1_IcEEEE11field_valueEEPvEEEEE8allocateB8de200100ERSD_m, symObjAddr: 0x816C, symBinAddr: 0xF074, symSize: 0x2C }
  - { offset: 0x36B9A, size: 0x8, addend: 0x0, symName: __ZNSt3__122__tree_node_destructorINS_9allocatorINS_11__tree_nodeINS_12__value_typeINS_12basic_stringIcNS_11char_traitsIcEENS1_IcEEEE11field_valueEEPvEEEEEC1B8de200100ERSD_b, symObjAddr: 0x8198, symBinAddr: 0xF0A0, symSize: 0x40 }
  - { offset: 0x36BE5, size: 0x8, addend: 0x0, symName: __ZNSt3__110unique_ptrINS_11__tree_nodeINS_12__value_typeINS_12basic_stringIcNS_11char_traitsIcEENS_9allocatorIcEEEE11field_valueEEPvEENS_22__tree_node_destructorINS6_ISC_EEEEEC1B8de200100ILb1EvEEPSC_NS_16__dependent_typeINS_27__unique_ptr_deleter_sfinaeISF_EEXT_EE20__good_rval_ref_typeE, symObjAddr: 0x81D8, symBinAddr: 0xF0E0, symSize: 0x3C }
  - { offset: 0x36C36, size: 0x8, addend: 0x0, symName: __ZNSt3__116allocator_traitsINS_9allocatorINS_11__tree_nodeINS_12__value_typeINS_12basic_stringIcNS_11char_traitsIcEENS1_IcEEEE11field_valueEEPvEEEEE9constructB8de200100INS_4pairIKS8_S9_EEJRKSI_ELi0EEEvRSD_PT_DpOT0_, symObjAddr: 0x8214, symBinAddr: 0xF11C, symSize: 0x34 }
  - { offset: 0x36C91, size: 0x8, addend: 0x0, symName: __ZNSt3__110unique_ptrINS_11__tree_nodeINS_12__value_typeINS_12basic_stringIcNS_11char_traitsIcEENS_9allocatorIcEEEE11field_valueEEPvEENS_22__tree_node_destructorINS6_ISC_EEEEE11get_deleterB8de200100Ev, symObjAddr: 0x8248, symBinAddr: 0xF150, symSize: 0x18 }
  - { offset: 0x36CB6, size: 0x8, addend: 0x0, symName: __ZNSt3__19allocatorINS_11__tree_nodeINS_12__value_typeINS_12basic_stringIcNS_11char_traitsIcEENS0_IcEEEE11field_valueEEPvEEE8allocateB8de200100Em, symObjAddr: 0x8260, symBinAddr: 0xF168, symSize: 0x50 }
  - { offset: 0x36CF3, size: 0x8, addend: 0x0, symName: __ZNSt3__116allocator_traitsINS_9allocatorINS_11__tree_nodeINS_12__value_typeINS_12basic_stringIcNS_11char_traitsIcEENS1_IcEEEE11field_valueEEPvEEEEE8max_sizeB8de200100ISD_Li0EEEmRKSD_, symObjAddr: 0x82B0, symBinAddr: 0xF1B8, symSize: 0x24 }
  - { offset: 0x36D25, size: 0x8, addend: 0x0, symName: __ZNKSt3__19allocatorINS_11__tree_nodeINS_12__value_typeINS_12basic_stringIcNS_11char_traitsIcEENS0_IcEEEE11field_valueEEPvEEE8max_sizeB8de200100Ev, symObjAddr: 0x830C, symBinAddr: 0xF214, symSize: 0x20 }
  - { offset: 0x36D49, size: 0x8, addend: 0x0, symName: __ZNSt3__122__tree_node_destructorINS_9allocatorINS_11__tree_nodeINS_12__value_typeINS_12basic_stringIcNS_11char_traitsIcEENS1_IcEEEE11field_valueEEPvEEEEEC2B8de200100ERSD_b, symObjAddr: 0x8350, symBinAddr: 0xF258, symSize: 0x30 }
  - { offset: 0x36D8F, size: 0x8, addend: 0x0, symName: __ZNSt3__110unique_ptrINS_11__tree_nodeINS_12__value_typeINS_12basic_stringIcNS_11char_traitsIcEENS_9allocatorIcEEEE11field_valueEEPvEENS_22__tree_node_destructorINS6_ISC_EEEEEC2B8de200100ILb1EvEEPSC_NS_16__dependent_typeINS_27__unique_ptr_deleter_sfinaeISF_EEXT_EE20__good_rval_ref_typeE, symObjAddr: 0x8380, symBinAddr: 0xF288, symSize: 0x4C }
  - { offset: 0x36DE4, size: 0x8, addend: 0x0, symName: __ZNSt3__125__compressed_pair_paddingINS_22__tree_node_destructorINS_9allocatorINS_11__tree_nodeINS_12__value_typeINS_12basic_stringIcNS_11char_traitsIcEENS2_IcEEEE11field_valueEEPvEEEEEELb0EEC1Ev, symObjAddr: 0x83CC, symBinAddr: 0xF2D4, symSize: 0x2C }
  - { offset: 0x36E0E, size: 0x8, addend: 0x0, symName: __ZNSt3__125__compressed_pair_paddingINS_22__tree_node_destructorINS_9allocatorINS_11__tree_nodeINS_12__value_typeINS_12basic_stringIcNS_11char_traitsIcEENS2_IcEEEE11field_valueEEPvEEEEEELb0EEC2Ev, symObjAddr: 0x83F8, symBinAddr: 0xF300, symSize: 0x4C }
  - { offset: 0x36E39, size: 0x8, addend: 0x0, symName: __ZNSt3__19allocatorINS_11__tree_nodeINS_12__value_typeINS_12basic_stringIcNS_11char_traitsIcEENS0_IcEEEE11field_valueEEPvEEE9constructB8de200100INS_4pairIKS7_S8_EEJRKSG_EEEvPT_DpOT0_, symObjAddr: 0x8444, symBinAddr: 0xF34C, symSize: 0x30 }
  - { offset: 0x36E8D, size: 0x8, addend: 0x0, symName: __ZNSt3__14pairIKNS_12basic_stringIcNS_11char_traitsIcEENS_9allocatorIcEEEE11field_valueEC1B8de200100ERKS9_, symObjAddr: 0x8474, symBinAddr: 0xF37C, symSize: 0x34 }
  - { offset: 0x36EC0, size: 0x8, addend: 0x0, symName: __ZNSt3__14pairIKNS_12basic_stringIcNS_11char_traitsIcEENS_9allocatorIcEEEE11field_valueEC2B8de200100ERKS9_, symObjAddr: 0x84A8, symBinAddr: 0xF3B0, symSize: 0x70 }
  - { offset: 0x36EF3, size: 0x8, addend: 0x0, symName: __ZNSt3__110unique_ptrINS_11__tree_nodeINS_12__value_typeINS_12basic_stringIcNS_11char_traitsIcEENS_9allocatorIcEEEE11field_valueEEPvEENS_22__tree_node_destructorINS6_ISC_EEEEED2B8de200100Ev, symObjAddr: 0x8518, symBinAddr: 0xF420, symSize: 0x30 }
  - { offset: 0x36F1C, size: 0x8, addend: 0x0, symName: __ZNSt3__110unique_ptrINS_11__tree_nodeINS_12__value_typeINS_12basic_stringIcNS_11char_traitsIcEENS_9allocatorIcEEEE11field_valueEEPvEENS_22__tree_node_destructorINS6_ISC_EEEEE5resetB8de200100EPSC_, symObjAddr: 0x8548, symBinAddr: 0xF450, symSize: 0x58 }
  - { offset: 0x36F5F, size: 0x8, addend: 0x0, symName: __ZNSt3__122__tree_node_destructorINS_9allocatorINS_11__tree_nodeINS_12__value_typeINS_12basic_stringIcNS_11char_traitsIcEENS1_IcEEEE11field_valueEEPvEEEEEclB8de200100EPSC_, symObjAddr: 0x85A0, symBinAddr: 0xF4A8, symSize: 0x90 }
  - { offset: 0x36F92, size: 0x8, addend: 0x0, symName: __ZNKSt3__16__treeINS_12__value_typeINS_12basic_stringIcNS_11char_traitsIcEENS_9allocatorIcEEEE11field_valueEENS_19__map_value_compareIS7_S9_NS_4lessIS7_EELb1EEENS5_IS9_EEE12__begin_nodeB8de200100Ev, symObjAddr: 0x8630, symBinAddr: 0xF538, symSize: 0x14 }
  - { offset: 0x36FB6, size: 0x8, addend: 0x0, symName: __ZNSt3__121__tree_const_iteratorINS_12__value_typeINS_12basic_stringIcNS_11char_traitsIcEENS_9allocatorIcEEEE11field_valueEEPNS_11__tree_nodeIS9_PvEElEC1B8de200100EPNS_15__tree_end_nodeIPNS_16__tree_node_baseISB_EEEE, symObjAddr: 0x8644, symBinAddr: 0xF54C, symSize: 0x34 }
  - { offset: 0x36FED, size: 0x8, addend: 0x0, symName: __ZNSt3__121__tree_const_iteratorINS_12__value_typeINS_12basic_stringIcNS_11char_traitsIcEENS_9allocatorIcEEEE11field_valueEEPNS_11__tree_nodeIS9_PvEElEC2B8de200100EPNS_15__tree_end_nodeIPNS_16__tree_node_baseISB_EEEE, symObjAddr: 0x8678, symBinAddr: 0xF580, symSize: 0x20 }
  - { offset: 0x37024, size: 0x8, addend: 0x0, symName: __ZNKSt3__16__treeINS_12__value_typeINS_12basic_stringIcNS_11char_traitsIcEENS_9allocatorIcEEEE11field_valueEENS_19__map_value_compareIS7_S9_NS_4lessIS7_EELb1EEENS5_IS9_EEE4sizeB8de200100Ev, symObjAddr: 0x8698, symBinAddr: 0xF5A0, symSize: 0x18 }
  - { offset: 0x37048, size: 0x8, addend: 0x0, symName: __ZNSt3__120__map_const_iteratorINS_21__tree_const_iteratorINS_12__value_typeINS_12basic_stringIcNS_11char_traitsIcEENS_9allocatorIcEEEE11field_valueEEPNS_11__tree_nodeISA_PvEElEEEC2B8de200100Ev, symObjAddr: 0x86B0, symBinAddr: 0xF5B8, symSize: 0x2C }
  - { offset: 0x37070, size: 0x8, addend: 0x0, symName: __ZNSt3__121__tree_const_iteratorINS_12__value_typeINS_12basic_stringIcNS_11char_traitsIcEENS_9allocatorIcEEEE11field_valueEEPNS_11__tree_nodeIS9_PvEElEC1B8de200100Ev, symObjAddr: 0x86DC, symBinAddr: 0xF5E4, symSize: 0x2C }
  - { offset: 0x37098, size: 0x8, addend: 0x0, symName: __ZNSt3__121__tree_const_iteratorINS_12__value_typeINS_12basic_stringIcNS_11char_traitsIcEENS_9allocatorIcEEEE11field_valueEEPNS_11__tree_nodeIS9_PvEElEC2B8de200100Ev, symObjAddr: 0x8708, symBinAddr: 0xF610, symSize: 0x14 }
  - { offset: 0x370C1, size: 0x8, addend: 0x0, symName: __ZNSt3__16__treeINS_12__value_typeINS_12basic_stringIcNS_11char_traitsIcEENS_9allocatorIcEEEE11field_valueEENS_19__map_value_compareIS7_S9_NS_4lessIS7_EELb1EEENS5_IS9_EEE5beginB8de200100Ev, symObjAddr: 0x871C, symBinAddr: 0xF624, symSize: 0x34 }
  - { offset: 0x370E5, size: 0x8, addend: 0x0, symName: __ZNSt3__114__map_iteratorINS_15__tree_iteratorINS_12__value_typeINS_12basic_stringIcNS_11char_traitsIcEENS_9allocatorIcEEEE11field_valueEEPNS_11__tree_nodeISA_PvEElEEEC1B8de200100ESF_, symObjAddr: 0x8750, symBinAddr: 0xF658, symSize: 0x34 }
  - { offset: 0x3711C, size: 0x8, addend: 0x0, symName: __ZNSt3__115__tree_iteratorINS_12__value_typeINS_12basic_stringIcNS_11char_traitsIcEENS_9allocatorIcEEEE11field_valueEEPNS_11__tree_nodeIS9_PvEElEC1B8de200100EPNS_15__tree_end_nodeIPNS_16__tree_node_baseISB_EEEE, symObjAddr: 0x8784, symBinAddr: 0xF68C, symSize: 0x34 }
  - { offset: 0x37153, size: 0x8, addend: 0x0, symName: __ZNSt3__115__tree_iteratorINS_12__value_typeINS_12basic_stringIcNS_11char_traitsIcEENS_9allocatorIcEEEE11field_valueEEPNS_11__tree_nodeIS9_PvEElEC2B8de200100EPNS_15__tree_end_nodeIPNS_16__tree_node_baseISB_EEEE, symObjAddr: 0x87B8, symBinAddr: 0xF6C0, symSize: 0x20 }
  - { offset: 0x3718A, size: 0x8, addend: 0x0, symName: __ZNSt3__114__map_iteratorINS_15__tree_iteratorINS_12__value_typeINS_12basic_stringIcNS_11char_traitsIcEENS_9allocatorIcEEEE11field_valueEEPNS_11__tree_nodeISA_PvEElEEEC2B8de200100ESF_, symObjAddr: 0x87D8, symBinAddr: 0xF6E0, symSize: 0x20 }
  - { offset: 0x371C1, size: 0x8, addend: 0x0, symName: __ZNSt3__120__map_const_iteratorINS_21__tree_const_iteratorINS_12__value_typeINS_12basic_stringIcNS_11char_traitsIcEENS_9allocatorIcEEEE11field_valueEEPNS_11__tree_nodeISA_PvEElEEEC2B8de200100ENS_14__map_iteratorINS_15__tree_iteratorISA_SE_lEEEE, symObjAddr: 0x87F8, symBinAddr: 0xF700, symSize: 0x3C }
  - { offset: 0x371F8, size: 0x8, addend: 0x0, symName: __ZNSt3__121__tree_const_iteratorINS_12__value_typeINS_12basic_stringIcNS_11char_traitsIcEENS_9allocatorIcEEEE11field_valueEEPNS_11__tree_nodeIS9_PvEElEC1B8de200100ENS_15__tree_iteratorIS9_SD_lEE, symObjAddr: 0x8834, symBinAddr: 0xF73C, symSize: 0x34 }
  - { offset: 0x3722F, size: 0x8, addend: 0x0, symName: __ZNSt3__121__tree_const_iteratorINS_12__value_typeINS_12basic_stringIcNS_11char_traitsIcEENS_9allocatorIcEEEE11field_valueEEPNS_11__tree_nodeIS9_PvEElEC2B8de200100ENS_15__tree_iteratorIS9_SD_lEE, symObjAddr: 0x8868, symBinAddr: 0xF770, symSize: 0x20 }
  - { offset: 0x37267, size: 0x8, addend: 0x0, symName: __ZNSt3__16__treeINS_12__value_typeINS_12basic_stringIcNS_11char_traitsIcEENS_9allocatorIcEEEE11field_valueEENS_19__map_value_compareIS7_S9_NS_4lessIS7_EELb1EEENS5_IS9_EEE3endB8de200100Ev, symObjAddr: 0x8888, symBinAddr: 0xF790, symSize: 0x34 }
  - { offset: 0x3728C, size: 0x8, addend: 0x0, symName: __ZNSt3__114pointer_traitsIPKNS_4pairIKNS_12basic_stringIcNS_11char_traitsIcEENS_9allocatorIcEEEE11field_valueEEE10pointer_toB8de200100ERSB_, symObjAddr: 0x88BC, symBinAddr: 0xF7C4, symSize: 0x14 }
  - { offset: 0x372AF, size: 0x8, addend: 0x0, symName: __ZNKSt3__121__tree_const_iteratorINS_12__value_typeINS_12basic_stringIcNS_11char_traitsIcEENS_9allocatorIcEEEE11field_valueEEPNS_11__tree_nodeIS9_PvEElEptB8de200100Ev, symObjAddr: 0x88D0, symBinAddr: 0xF7D8, symSize: 0x2C }
  - { offset: 0x372D4, size: 0x8, addend: 0x0, symName: __ZNSt3__114pointer_traitsIPKNS_12__value_typeINS_12basic_stringIcNS_11char_traitsIcEENS_9allocatorIcEEEE11field_valueEEE10pointer_toB8de200100ERSA_, symObjAddr: 0x88FC, symBinAddr: 0xF804, symSize: 0x14 }
  - { offset: 0x372F7, size: 0x8, addend: 0x0, symName: __ZNSt3__110__list_impINS_12basic_stringIcNS_11char_traitsIcEENS_9allocatorIcEEEENS4_IS6_EEE13__create_nodeB8de200100IJRKS6_EEEPNS_11__list_nodeIS6_PvEEPNS_16__list_node_baseIS6_SD_EESI_DpOT_, symObjAddr: 0x8910, symBinAddr: 0xF818, symSize: 0x108 }
  - { offset: 0x37364, size: 0x8, addend: 0x0, symName: __ZNSt3__111__list_nodeINS_12basic_stringIcNS_11char_traitsIcEENS_9allocatorIcEEEEPvE9__as_linkB8de200100Ev, symObjAddr: 0x8A18, symBinAddr: 0xF920, symSize: 0x24 }
  - { offset: 0x37389, size: 0x8, addend: 0x0, symName: __ZNSt3__14listINS_12basic_stringIcNS_11char_traitsIcEENS_9allocatorIcEEEENS4_IS6_EEE20__link_nodes_at_backEPNS_16__list_node_baseIS6_PvEESC_, symObjAddr: 0x8A3C, symBinAddr: 0xF944, symSize: 0x60 }
  - { offset: 0x373EB, size: 0x8, addend: 0x0, symName: __ZNSt3__118__allocation_guardINS_9allocatorINS_11__list_nodeINS_12basic_stringIcNS_11char_traitsIcEENS1_IcEEEEPvEEEEEC1B8de200100ISA_EET_m, symObjAddr: 0x8A9C, symBinAddr: 0xF9A4, symSize: 0x34 }
  - { offset: 0x37438, size: 0x8, addend: 0x0, symName: __ZNKSt3__118__allocation_guardINS_9allocatorINS_11__list_nodeINS_12basic_stringIcNS_11char_traitsIcEENS1_IcEEEEPvEEEEE5__getB8de200100Ev, symObjAddr: 0x8B28, symBinAddr: 0xFA30, symSize: 0x18 }
  - { offset: 0x3745D, size: 0x8, addend: 0x0, symName: __ZNSt3__116allocator_traitsINS_9allocatorINS_11__list_nodeINS_12basic_stringIcNS_11char_traitsIcEENS1_IcEEEEPvEEEEE9constructB8de200100IS7_JRKS7_ELi0EEEvRSA_PT_DpOT0_, symObjAddr: 0x8B40, symBinAddr: 0xFA48, symSize: 0x34 }
  - { offset: 0x374B8, size: 0x8, addend: 0x0, symName: __ZNSt3__118__allocation_guardINS_9allocatorINS_11__list_nodeINS_12basic_stringIcNS_11char_traitsIcEENS1_IcEEEEPvEEEEE13__release_ptrB8de200100Ev, symObjAddr: 0x8B74, symBinAddr: 0xFA7C, symSize: 0x24 }
  - { offset: 0x374EA, size: 0x8, addend: 0x0, symName: __ZNSt3__118__allocation_guardINS_9allocatorINS_11__list_nodeINS_12basic_stringIcNS_11char_traitsIcEENS1_IcEEEEPvEEEEED1B8de200100Ev, symObjAddr: 0x8B98, symBinAddr: 0xFAA0, symSize: 0x2C }
  - { offset: 0x37512, size: 0x8, addend: 0x0, symName: __ZNSt3__118__allocation_guardINS_9allocatorINS_11__list_nodeINS_12basic_stringIcNS_11char_traitsIcEENS1_IcEEEEPvEEEEEC2B8de200100ISA_EET_m, symObjAddr: 0x8BC4, symBinAddr: 0xFACC, symSize: 0x44 }
  - { offset: 0x37560, size: 0x8, addend: 0x0, symName: __ZNSt3__116allocator_traitsINS_9allocatorINS_11__list_nodeINS_12basic_stringIcNS_11char_traitsIcEENS1_IcEEEEPvEEEEE8allocateB8de200100ERSA_m, symObjAddr: 0x8C08, symBinAddr: 0xFB10, symSize: 0x2C }
  - { offset: 0x37593, size: 0x8, addend: 0x0, symName: __ZNSt3__19allocatorINS_11__list_nodeINS_12basic_stringIcNS_11char_traitsIcEENS0_IcEEEEPvEEE8allocateB8de200100Em, symObjAddr: 0x8C34, symBinAddr: 0xFB3C, symSize: 0x50 }
  - { offset: 0x375D0, size: 0x8, addend: 0x0, symName: __ZNSt3__116allocator_traitsINS_9allocatorINS_11__list_nodeINS_12basic_stringIcNS_11char_traitsIcEENS1_IcEEEEPvEEEEE8max_sizeB8de200100ISA_Li0EEEmRKSA_, symObjAddr: 0x8C84, symBinAddr: 0xFB8C, symSize: 0x24 }
  - { offset: 0x37602, size: 0x8, addend: 0x0, symName: __ZNKSt3__19allocatorINS_11__list_nodeINS_12basic_stringIcNS_11char_traitsIcEENS0_IcEEEEPvEEE8max_sizeB8de200100Ev, symObjAddr: 0x8CE0, symBinAddr: 0xFBE8, symSize: 0x18 }
  - { offset: 0x37626, size: 0x8, addend: 0x0, symName: __ZNSt3__111__list_nodeINS_12basic_stringIcNS_11char_traitsIcEENS_9allocatorIcEEEEPvEC1B8de200100EPNS_16__list_node_baseIS6_S7_EESB_, symObjAddr: 0x8D1C, symBinAddr: 0xFC24, symSize: 0x3C }
  - { offset: 0x3766C, size: 0x8, addend: 0x0, symName: __ZNSt3__111__list_nodeINS_12basic_stringIcNS_11char_traitsIcEENS_9allocatorIcEEEEPvEC2B8de200100EPNS_16__list_node_baseIS6_S7_EESB_, symObjAddr: 0x8D58, symBinAddr: 0xFC60, symSize: 0x3C }
  - { offset: 0x376B2, size: 0x8, addend: 0x0, symName: __ZNSt3__116__list_node_baseINS_12basic_stringIcNS_11char_traitsIcEENS_9allocatorIcEEEEPvEC2B8de200100EPS8_S9_, symObjAddr: 0x8D94, symBinAddr: 0xFC9C, symSize: 0x2C }
  - { offset: 0x376F9, size: 0x8, addend: 0x0, symName: __ZNSt3__19allocatorINS_11__list_nodeINS_12basic_stringIcNS_11char_traitsIcEENS0_IcEEEEPvEEE9constructB8de200100IS6_JRKS6_EEEvPT_DpOT0_, symObjAddr: 0x8DC0, symBinAddr: 0xFCC8, symSize: 0x30 }
  - { offset: 0x3774D, size: 0x8, addend: 0x0, symName: __ZNSt3__118__allocation_guardINS_9allocatorINS_11__list_nodeINS_12basic_stringIcNS_11char_traitsIcEENS1_IcEEEEPvEEEEED2B8de200100Ev, symObjAddr: 0x8DF0, symBinAddr: 0xFCF8, symSize: 0x2C }
  - { offset: 0x37776, size: 0x8, addend: 0x0, symName: __ZNSt3__118__allocation_guardINS_9allocatorINS_11__list_nodeINS_12basic_stringIcNS_11char_traitsIcEENS1_IcEEEEPvEEEEE9__destroyB8de200100Ev, symObjAddr: 0x8E1C, symBinAddr: 0xFD24, symSize: 0x44 }
  - { offset: 0x3965A, size: 0x8, addend: 0x0, symName: _gethostuuid, symObjAddr: 0x0, symBinAddr: 0xFD68, symSize: 0xD0 }
  - { offset: 0x39682, size: 0x8, addend: 0x0, symName: _s_gethostuuid_initialized, symObjAddr: 0x900, symBinAddr: 0x164B90, symSize: 0x0 }
  - { offset: 0x3969F, size: 0x8, addend: 0x0, symName: _s_gethostuuid, symObjAddr: 0x908, symBinAddr: 0x164B98, symSize: 0x0 }
  - { offset: 0x39726, size: 0x8, addend: 0x0, symName: _gethostuuid, symObjAddr: 0x0, symBinAddr: 0xFD68, symSize: 0xD0 }
  - { offset: 0x3B57F, size: 0x8, addend: 0x0, symName: __ZNSt3__19transformB8de200100INS_11__wrap_iterIPcEES3_PFiiEEET0_T_S7_S6_T1_, symObjAddr: 0x1DA0, symBinAddr: 0x11B18, symSize: 0x98 }
  - { offset: 0x3B5F0, size: 0x8, addend: 0x0, symName: __ZNSt3__1neB8de200100IPcEEbRKNS_11__wrap_iterIT_EES6_, symObjAddr: 0x2C1C, symBinAddr: 0x1238C, symSize: 0x30 }
  - { offset: 0x3B633, size: 0x8, addend: 0x0, symName: __ZNSt3__1eqB8de200100IPcEEbRKNS_11__wrap_iterIT_EES6_, symObjAddr: 0x2C84, symBinAddr: 0x123F4, symSize: 0x44 }
  - { offset: 0x3C824, size: 0x8, addend: 0x0, symName: __ZN11field_valueC2Ev, symObjAddr: 0x0, symBinAddr: 0xFE38, symSize: 0x74 }
  - { offset: 0x3C84E, size: 0x8, addend: 0x0, symName: __ZN11field_valueC1Ev, symObjAddr: 0xCC, symBinAddr: 0xFEAC, symSize: 0x2C }
  - { offset: 0x3C878, size: 0x8, addend: 0x0, symName: __ZN11field_valueC2EPKc, symObjAddr: 0xF8, symBinAddr: 0xFED8, symSize: 0x74 }
  - { offset: 0x3C8B0, size: 0x8, addend: 0x0, symName: __ZN11field_valueC1EPKc, symObjAddr: 0x16C, symBinAddr: 0xFF4C, symSize: 0x34 }
  - { offset: 0x3C8E8, size: 0x8, addend: 0x0, symName: __ZN11field_valueC2Eb, symObjAddr: 0x1A0, symBinAddr: 0xFF80, symSize: 0x4C }
  - { offset: 0x3C920, size: 0x8, addend: 0x0, symName: __ZN11field_valueC1Eb, symObjAddr: 0x1EC, symBinAddr: 0xFFCC, symSize: 0x38 }
  - { offset: 0x3C958, size: 0x8, addend: 0x0, symName: __ZN11field_valueC2Ec, symObjAddr: 0x224, symBinAddr: 0x10004, symSize: 0x48 }
  - { offset: 0x3C990, size: 0x8, addend: 0x0, symName: __ZN11field_valueC1Ec, symObjAddr: 0x26C, symBinAddr: 0x1004C, symSize: 0x34 }
  - { offset: 0x3C9C8, size: 0x8, addend: 0x0, symName: __ZN11field_valueC2Es, symObjAddr: 0x2A0, symBinAddr: 0x10080, symSize: 0x48 }
  - { offset: 0x3CA00, size: 0x8, addend: 0x0, symName: __ZN11field_valueC1Es, symObjAddr: 0x2E8, symBinAddr: 0x100C8, symSize: 0x34 }
  - { offset: 0x3CA38, size: 0x8, addend: 0x0, symName: __ZN11field_valueC2Et, symObjAddr: 0x31C, symBinAddr: 0x100FC, symSize: 0x48 }
  - { offset: 0x3CA70, size: 0x8, addend: 0x0, symName: __ZN11field_valueC1Et, symObjAddr: 0x364, symBinAddr: 0x10144, symSize: 0x34 }
  - { offset: 0x3CAA8, size: 0x8, addend: 0x0, symName: __ZN11field_valueC2Ex, symObjAddr: 0x398, symBinAddr: 0x10178, symSize: 0x48 }
  - { offset: 0x3CAE0, size: 0x8, addend: 0x0, symName: __ZN11field_valueC1Ex, symObjAddr: 0x3E0, symBinAddr: 0x101C0, symSize: 0x34 }
  - { offset: 0x3CB18, size: 0x8, addend: 0x0, symName: __ZN11field_valueC2Ei, symObjAddr: 0x414, symBinAddr: 0x101F4, symSize: 0x48 }
  - { offset: 0x3CB50, size: 0x8, addend: 0x0, symName: __ZN11field_valueC1Ei, symObjAddr: 0x45C, symBinAddr: 0x1023C, symSize: 0x34 }
  - { offset: 0x3CB88, size: 0x8, addend: 0x0, symName: __ZN11field_valueC2Ey, symObjAddr: 0x490, symBinAddr: 0x10270, symSize: 0x48 }
  - { offset: 0x3CBC0, size: 0x8, addend: 0x0, symName: __ZN11field_valueC1Ey, symObjAddr: 0x4D8, symBinAddr: 0x102B8, symSize: 0x34 }
  - { offset: 0x3CBF8, size: 0x8, addend: 0x0, symName: __ZN11field_valueC2Ef, symObjAddr: 0x50C, symBinAddr: 0x102EC, symSize: 0x48 }
  - { offset: 0x3CC30, size: 0x8, addend: 0x0, symName: __ZN11field_valueC1Ef, symObjAddr: 0x554, symBinAddr: 0x10334, symSize: 0x34 }
  - { offset: 0x3CC68, size: 0x8, addend: 0x0, symName: __ZN11field_valueC2Ed, symObjAddr: 0x588, symBinAddr: 0x10368, symSize: 0x48 }
  - { offset: 0x3CCA0, size: 0x8, addend: 0x0, symName: __ZN11field_valueC1Ed, symObjAddr: 0x5D0, symBinAddr: 0x103B0, symSize: 0x34 }
  - { offset: 0x3CCD8, size: 0x8, addend: 0x0, symName: __ZN11field_valueC2ERKS_, symObjAddr: 0x604, symBinAddr: 0x103E4, symSize: 0x2FC }
  - { offset: 0x3CD10, size: 0x8, addend: 0x0, symName: __ZN11field_value12set_asStringERKNSt3__112basic_stringIcNS0_11char_traitsIcEENS0_9allocatorIcEEEE, symObjAddr: 0x918, symBinAddr: 0x106E0, symSize: 0x3C }
  - { offset: 0x3CD46, size: 0x8, addend: 0x0, symName: __ZNK11field_value12get_asStringEv, symObjAddr: 0x954, symBinAddr: 0x1071C, symSize: 0x418 }
  - { offset: 0x3CE28, size: 0x8, addend: 0x0, symName: __ZN11field_value10set_asBoolEb, symObjAddr: 0xD6C, symBinAddr: 0x10B34, symSize: 0x2C }
  - { offset: 0x3CE5E, size: 0x8, addend: 0x0, symName: __ZNK11field_value10get_asBoolEv, symObjAddr: 0xD98, symBinAddr: 0x10B60, symSize: 0x2FC }
  - { offset: 0x3CE99, size: 0x8, addend: 0x0, symName: __ZN11field_value10set_asCharEc, symObjAddr: 0x1094, symBinAddr: 0x10E5C, symSize: 0x28 }
  - { offset: 0x3CECF, size: 0x8, addend: 0x0, symName: __ZNK11field_value10get_asCharEv, symObjAddr: 0x10BC, symBinAddr: 0x10E84, symSize: 0x260 }
  - { offset: 0x3CFC2, size: 0x8, addend: 0x0, symName: __ZN11field_value11set_asShortEs, symObjAddr: 0x131C, symBinAddr: 0x110E4, symSize: 0x28 }
  - { offset: 0x3CFF8, size: 0x8, addend: 0x0, symName: __ZNK11field_value11get_asShortEv, symObjAddr: 0x1344, symBinAddr: 0x1110C, symSize: 0x15C }
  - { offset: 0x3D01F, size: 0x8, addend: 0x0, symName: __ZN11field_value12set_asUShortEt, symObjAddr: 0x14A0, symBinAddr: 0x11268, symSize: 0x28 }
  - { offset: 0x3D055, size: 0x8, addend: 0x0, symName: __ZNK11field_value12get_asUShortEv, symObjAddr: 0x14C8, symBinAddr: 0x11290, symSize: 0x15C }
  - { offset: 0x3D07C, size: 0x8, addend: 0x0, symName: __ZN11field_value10set_asLongEx, symObjAddr: 0x1624, symBinAddr: 0x113EC, symSize: 0x28 }
  - { offset: 0x3D0B2, size: 0x8, addend: 0x0, symName: __ZNK11field_value10get_asLongEv, symObjAddr: 0x164C, symBinAddr: 0x11414, symSize: 0x164 }
  - { offset: 0x3D0D9, size: 0x8, addend: 0x0, symName: __ZN11field_value11set_asULongEy, symObjAddr: 0x17B0, symBinAddr: 0x11578, symSize: 0x28 }
  - { offset: 0x3D10F, size: 0x8, addend: 0x0, symName: __ZNK11field_value11get_asULongEv, symObjAddr: 0x17D8, symBinAddr: 0x115A0, symSize: 0x164 }
  - { offset: 0x3D136, size: 0x8, addend: 0x0, symName: __ZN11field_value11set_asFloatEf, symObjAddr: 0x193C, symBinAddr: 0x11704, symSize: 0x28 }
  - { offset: 0x3D16C, size: 0x8, addend: 0x0, symName: __ZNK11field_value11get_asFloatEv, symObjAddr: 0x1964, symBinAddr: 0x1172C, symSize: 0x184 }
  - { offset: 0x3D193, size: 0x8, addend: 0x0, symName: __ZN11field_value12set_asDoubleEd, symObjAddr: 0x1AE8, symBinAddr: 0x118B0, symSize: 0x28 }
  - { offset: 0x3D1C9, size: 0x8, addend: 0x0, symName: __ZNK11field_value12get_asDoubleEv, symObjAddr: 0x1B10, symBinAddr: 0x118D8, symSize: 0x178 }
  - { offset: 0x3D1F0, size: 0x8, addend: 0x0, symName: __ZN11field_value12set_isBinaryEv, symObjAddr: 0x1C88, symBinAddr: 0x11A50, symSize: 0x1C }
  - { offset: 0x3D214, size: 0x8, addend: 0x0, symName: __ZN11field_value10set_isNullEv, symObjAddr: 0x1CC0, symBinAddr: 0x11A6C, symSize: 0x1C }
  - { offset: 0x3D238, size: 0x8, addend: 0x0, symName: __ZN11field_valueC1ERKS_, symObjAddr: 0x1CDC, symBinAddr: 0x11A88, symSize: 0x34 }
  - { offset: 0x3D270, size: 0x8, addend: 0x0, symName: __ZN11field_valueD2Ev, symObjAddr: 0x1D10, symBinAddr: 0x11ABC, symSize: 0x30 }
  - { offset: 0x3D29A, size: 0x8, addend: 0x0, symName: __ZN11field_valueD1Ev, symObjAddr: 0x1D40, symBinAddr: 0x11AEC, symSize: 0x2C }
  - { offset: 0x3D2C5, size: 0x8, addend: 0x0, symName: __Z7toloweri, symObjAddr: 0x1ED8, symBinAddr: 0x11BB0, symSize: 0x24 }
  - { offset: 0x3D2F4, size: 0x8, addend: 0x0, symName: __ZNKSt3__112basic_stringIcNS_11char_traitsIcEENS_9allocatorIcEEEixB8de200100Em, symObjAddr: 0x1EFC, symBinAddr: 0x11BD4, symSize: 0x6C }
  - { offset: 0x3D327, size: 0x8, addend: 0x0, symName: __ZNK11field_value13get_asIntegerEv, symObjAddr: 0x1F8C, symBinAddr: 0x11C40, symSize: 0x24 }
  - { offset: 0x3D34E, size: 0x8, addend: 0x0, symName: __ZN11field_valueaSERKS_, symObjAddr: 0x1FB0, symBinAddr: 0x11C64, symSize: 0x2BC }
  - { offset: 0x3D393, size: 0x8, addend: 0x0, symName: __ZN11field_value12set_asStringEPKc, symObjAddr: 0x226C, symBinAddr: 0x11F20, symSize: 0x3C }
  - { offset: 0x3D3C9, size: 0x8, addend: 0x0, symName: __ZN11field_value12set_asStringEPKci, symObjAddr: 0x22A8, symBinAddr: 0x11F5C, symSize: 0x58 }
  - { offset: 0x3D40F, size: 0x8, addend: 0x0, symName: __ZNSt3__112basic_stringIcNS_11char_traitsIcEENS_9allocatorIcEEE6resizeB8de200100Em, symObjAddr: 0x2300, symBinAddr: 0x11FB4, symSize: 0x30 }
  - { offset: 0x3D442, size: 0x8, addend: 0x0, symName: __ZN11field_value13set_asIntegerEi, symObjAddr: 0x2330, symBinAddr: 0x11FE4, symSize: 0x28 }
  - { offset: 0x3D478, size: 0x8, addend: 0x0, symName: __ZN11field_value14get_field_typeEv, symObjAddr: 0x2358, symBinAddr: 0x1200C, symSize: 0x18 }
  - { offset: 0x3D49F, size: 0x8, addend: 0x0, symName: __ZN11field_value3gftEv, symObjAddr: 0x2370, symBinAddr: 0x12024, symSize: 0x234 }
  - { offset: 0x3D4D7, size: 0x8, addend: 0x0, symName: __Z10strToFTypePc, symObjAddr: 0x25A4, symBinAddr: 0x12258, symSize: 0x134 }
  - { offset: 0x3D505, size: 0x8, addend: 0x0, symName: __ZNKSt3__111__wrap_iterIPcEdeB8de200100Ev, symObjAddr: 0x2C4C, symBinAddr: 0x123BC, symSize: 0x18 }
  - { offset: 0x3D529, size: 0x8, addend: 0x0, symName: __ZNSt3__111__wrap_iterIPcEppB8de200100Ev, symObjAddr: 0x2C64, symBinAddr: 0x123D4, symSize: 0x20 }
  - { offset: 0x3F332, size: 0x8, addend: 0x0, symName: _sqlite3_status64, symObjAddr: 0x0, symBinAddr: 0x12438, symSize: 0x100 }
  - { offset: 0x3F34D, size: 0x8, addend: 0x0, symName: _sqlite3_version, symObjAddr: 0x12E5D0, symBinAddr: 0x152290, symSize: 0x0 }
  - { offset: 0x3F386, size: 0x8, addend: 0x0, symName: _sqlite3_unsupported_selecttrace, symObjAddr: 0x2D2C50, symBinAddr: 0x165050, symSize: 0x0 }
  - { offset: 0x3F3A4, size: 0x8, addend: 0x0, symName: _sqlite3_str_vappendf, symObjAddr: 0x1E58, symBinAddr: 0x14290, symSize: 0x25D0 }
  - { offset: 0x3F3C8, size: 0x8, addend: 0x0, symName: _sqlite3_str_vappendf.zOrd, symObjAddr: 0x12E66B, symBinAddr: 0x15232B, symSize: 0x0 }
  - { offset: 0x3F980, size: 0x8, addend: 0x0, symName: _sqlite3_os_init, symObjAddr: 0x5970, symBinAddr: 0x17DA8, symSize: 0x80 }
  - { offset: 0x3F9A8, size: 0x8, addend: 0x0, symName: _sqlite3_os_init.aVfs, symObjAddr: 0x133D20, symBinAddr: 0x160580, symSize: 0x0 }
  - { offset: 0x40028, size: 0x8, addend: 0x0, symName: _sqlite3_value_type, symObjAddr: 0xA6C0, symBinAddr: 0x1CAF8, symSize: 0x28 }
  - { offset: 0x40054, size: 0x8, addend: 0x0, symName: _sqlite3_value_type.aType, symObjAddr: 0x12E7F0, symBinAddr: 0x1524B0, symSize: 0x0 }
  - { offset: 0x400A7, size: 0x8, addend: 0x0, symName: _sqlite3_blob_open, symObjAddr: 0xE090, symBinAddr: 0x204C8, symSize: 0x788 }
  - { offset: 0x400D3, size: 0x8, addend: 0x0, symName: _sqlite3_blob_open.iLn, symObjAddr: 0x12E830, symBinAddr: 0x1524F0, symSize: 0x0 }
  - { offset: 0x400EC, size: 0x8, addend: 0x0, symName: _sqlite3_blob_open.openBlob, symObjAddr: 0x12E834, symBinAddr: 0x1524F4, symSize: 0x0 }
  - { offset: 0x40366, size: 0x8, addend: 0x0, symName: _sqlite3_vtab_on_conflict, symObjAddr: 0x12E38, symBinAddr: 0x25270, symSize: 0x28 }
  - { offset: 0x40392, size: 0x8, addend: 0x0, symName: _sqlite3_vtab_on_conflict.aMap, symObjAddr: 0x12E954, symBinAddr: 0x152614, symSize: 0x0 }
  - { offset: 0x403C3, size: 0x8, addend: 0x0, symName: _sqlite3_complete, symObjAddr: 0x13200, symBinAddr: 0x25638, symSize: 0x664 }
  - { offset: 0x403EF, size: 0x8, addend: 0x0, symName: _sqlite3_complete.trans, symObjAddr: 0x12ED9B, symBinAddr: 0x152A5B, symSize: 0x0 }
  - { offset: 0x40494, size: 0x8, addend: 0x0, symName: _sqlite3_temp_directory, symObjAddr: 0x2D2C58, symBinAddr: 0x165058, symSize: 0x0 }
  - { offset: 0x404AD, size: 0x8, addend: 0x0, symName: _sqlite3_data_directory, symObjAddr: 0x2D2C60, symBinAddr: 0x165060, symSize: 0x0 }
  - { offset: 0x404B7, size: 0x8, addend: 0x0, symName: _sqlite3_db_config, symObjAddr: 0x14788, symBinAddr: 0x26BC0, symSize: 0x280 }
  - { offset: 0x404E3, size: 0x8, addend: 0x0, symName: _sqlite3_db_config.aFlagOp, symObjAddr: 0x12EDDC, symBinAddr: 0x152A9C, symSize: 0x0 }
  - { offset: 0x4061C, size: 0x8, addend: 0x0, symName: _sqlite3_errmsg16, symObjAddr: 0x167A8, symBinAddr: 0x28BE0, symSize: 0x10C }
  - { offset: 0x40648, size: 0x8, addend: 0x0, symName: _sqlite3_errmsg16.outOfMem, symObjAddr: 0x12EE5C, symBinAddr: 0x152B1C, symSize: 0x0 }
  - { offset: 0x40661, size: 0x8, addend: 0x0, symName: _sqlite3_errmsg16.misuse, symObjAddr: 0x12EE78, symBinAddr: 0x152B38, symSize: 0x0 }
  - { offset: 0x406E3, size: 0x8, addend: 0x0, symName: _sqlite3_fts3_may_be_corrupt, symObjAddr: 0x13430C, symBinAddr: 0x160B6C, symSize: 0x0 }
  - { offset: 0x406FC, size: 0x8, addend: 0x0, symName: _sqlite3_fts5_may_be_corrupt, symObjAddr: 0x134310, symBinAddr: 0x160B70, symSize: 0x0 }
  - { offset: 0x40713, size: 0x8, addend: 0x0, symName: _sqlite3BuiltinFunctions, symObjAddr: 0x2D2E50, symBinAddr: 0x164D88, symSize: 0x0 }
  - { offset: 0x4543C, size: 0x8, addend: 0x0, symName: _sqlite3Prng, symObjAddr: 0x2D2D30, symBinAddr: 0x164C68, symSize: 0x0 }
  - { offset: 0x454A6, size: 0x8, addend: 0x0, symName: _statMutex, symObjAddr: 0x12E5D7, symBinAddr: 0x152297, symSize: 0x0 }
  - { offset: 0x454CB, size: 0x8, addend: 0x0, symName: _sqlite3Stat, symObjAddr: 0x2D2C68, symBinAddr: 0x164BA0, symSize: 0x0 }
  - { offset: 0x45524, size: 0x8, addend: 0x0, symName: _sqlite3Config, symObjAddr: 0x133B60, symBinAddr: 0x1603C0, symSize: 0x0 }
  - { offset: 0x45AEC, size: 0x8, addend: 0x0, symName: _vfsList, symObjAddr: 0x2D2D08, symBinAddr: 0x164C40, symSize: 0x0 }
  - { offset: 0x45AF6, size: 0x8, addend: 0x0, symName: _sqlite3DefaultMutex, symObjAddr: 0x1A30C, symBinAddr: 0x2C744, symSize: 0xC }
  - { offset: 0x45B1E, size: 0x8, addend: 0x0, symName: _sqlite3DefaultMutex.sMutex, symObjAddr: 0x140788, symBinAddr: 0x15CAE8, symSize: 0x0 }
  - { offset: 0x45B2F, size: 0x8, addend: 0x0, symName: _pthreadMutexAlloc, symObjAddr: 0x1A334, symBinAddr: 0x2C76C, symSize: 0x114 }
  - { offset: 0x45B57, size: 0x8, addend: 0x0, symName: _pthreadMutexAlloc.staticMutexes, symObjAddr: 0x134318, symBinAddr: 0x160B78, symSize: 0x0 }
  - { offset: 0x45BAE, size: 0x8, addend: 0x0, symName: _sqlite3NoopMutex, symObjAddr: 0x1A318, symBinAddr: 0x2C750, symSize: 0xC }
  - { offset: 0x45BD6, size: 0x8, addend: 0x0, symName: _sqlite3NoopMutex.sMutex, symObjAddr: 0x1407D0, symBinAddr: 0x15CB30, symSize: 0x0 }
  - { offset: 0x45BEE, size: 0x8, addend: 0x0, symName: _mem0, symObjAddr: 0x2D2D10, symBinAddr: 0x164C48, symSize: 0x0 }
  - { offset: 0x45C48, size: 0x8, addend: 0x0, symName: _fmtinfo, symObjAddr: 0x12E5E1, symBinAddr: 0x1522A1, symSize: 0x0 }
  - { offset: 0x45CEC, size: 0x8, addend: 0x0, symName: _aDigits, symObjAddr: 0x12E674, symBinAddr: 0x152334, symSize: 0x0 }
  - { offset: 0x45D11, size: 0x8, addend: 0x0, symName: _aPrefix, symObjAddr: 0x12E695, symBinAddr: 0x152355, symSize: 0x0 }
  - { offset: 0x45D28, size: 0x8, addend: 0x0, symName: _arRound, symObjAddr: 0x12E6A0, symBinAddr: 0x152360, symSize: 0x0 }
  - { offset: 0x45D53, size: 0x8, addend: 0x0, symName: _sqlite3OomStr, symObjAddr: 0x133D00, symBinAddr: 0x160560, symSize: 0x0 }
  - { offset: 0x45DE4, size: 0x8, addend: 0x0, symName: _sqlite3UpperToLower, symObjAddr: 0x12E6F0, symBinAddr: 0x1523B0, symSize: 0x0 }
  - { offset: 0x45E0A, size: 0x8, addend: 0x0, symName: _autolockIoFinder, symObjAddr: 0x140748, symBinAddr: 0x15CAA8, symSize: 0x0 }
  - { offset: 0x46221, size: 0x8, addend: 0x0, symName: _autolockIoFinderImpl, symObjAddr: 0x1AF70, symBinAddr: 0x2D3A8, symSize: 0x1CC }
  - { offset: 0x46249, size: 0x8, addend: 0x0, symName: _autolockIoFinderImpl.aMap, symObjAddr: 0x140818, symBinAddr: 0x15CB78, symSize: 0x0 }
  - { offset: 0x462EE, size: 0x8, addend: 0x0, symName: _posixIoMethods, symObjAddr: 0x140878, symBinAddr: 0x15CBD8, symSize: 0x0 }
  - { offset: 0x46313, size: 0x8, addend: 0x0, symName: _inodeList, symObjAddr: 0x2D2F08, symBinAddr: 0x164E40, symSize: 0x0 }
  - { offset: 0x4631D, size: 0x8, addend: 0x0, symName: _unixTempFileDir, symObjAddr: 0x1E27C, symBinAddr: 0x306B4, symSize: 0x138 }
  - { offset: 0x46345, size: 0x8, addend: 0x0, symName: _unixTempFileDir.azDirs, symObjAddr: 0x1348D0, symBinAddr: 0x161130, symSize: 0x0 }
  - { offset: 0x4639B, size: 0x8, addend: 0x0, symName: _proxyIoMethods, symObjAddr: 0x140B70, symBinAddr: 0x15CED0, symSize: 0x0 }
  - { offset: 0x463A5, size: 0x8, addend: 0x0, symName: _unixShmMap, symObjAddr: 0x1C128, symBinAddr: 0x2E560, symSize: 0x498 }
  - { offset: 0x463CD, size: 0x8, addend: 0x0, symName: _unixShmMap.pgsz, symObjAddr: 0x12EEF0, symBinAddr: 0x152BB0, symSize: 0x0 }
  - { offset: 0x46583, size: 0x8, addend: 0x0, symName: _afpIoMethods, symObjAddr: 0x140910, symBinAddr: 0x15CC70, symSize: 0x0 }
  - { offset: 0x4659A, size: 0x8, addend: 0x0, symName: _nolockIoMethods, symObjAddr: 0x1409A8, symBinAddr: 0x15CD08, symSize: 0x0 }
  - { offset: 0x465B1, size: 0x8, addend: 0x0, symName: _aSyscall, symObjAddr: 0x134618, symBinAddr: 0x160E78, symSize: 0x0 }
  - { offset: 0x4660B, size: 0x8, addend: 0x0, symName: _nfsIoMethods, symObjAddr: 0x140A40, symBinAddr: 0x15CDA0, symSize: 0x0 }
  - { offset: 0x46622, size: 0x8, addend: 0x0, symName: _dotlockIoMethods, symObjAddr: 0x140AD8, symBinAddr: 0x15CE38, symSize: 0x0 }
  - { offset: 0x46639, size: 0x8, addend: 0x0, symName: _randomnessPid, symObjAddr: 0x2D2F10, symBinAddr: 0x164E48, symSize: 0x0 }
  - { offset: 0x4665B, size: 0x8, addend: 0x0, symName: _unixCurrentTimeInt64, symObjAddr: 0x6A80, symBinAddr: 0x18EB8, symSize: 0x68 }
  - { offset: 0x46683, size: 0x8, addend: 0x0, symName: _unixCurrentTimeInt64.unixEpoch, symObjAddr: 0x12EEF8, symBinAddr: 0x152BB8, symSize: 0x0 }
  - { offset: 0x466E1, size: 0x8, addend: 0x0, symName: _nolockIoFinder, symObjAddr: 0x140750, symBinAddr: 0x15CAB0, symSize: 0x0 }
  - { offset: 0x466F8, size: 0x8, addend: 0x0, symName: _dotlockIoFinder, symObjAddr: 0x140758, symBinAddr: 0x15CAB8, symSize: 0x0 }
  - { offset: 0x4670F, size: 0x8, addend: 0x0, symName: _posixIoFinder, symObjAddr: 0x140760, symBinAddr: 0x15CAC0, symSize: 0x0 }
  - { offset: 0x46726, size: 0x8, addend: 0x0, symName: _flockIoFinder, symObjAddr: 0x140768, symBinAddr: 0x15CAC8, symSize: 0x0 }
  - { offset: 0x4673D, size: 0x8, addend: 0x0, symName: _flockIoMethods, symObjAddr: 0x140C08, symBinAddr: 0x15CF68, symSize: 0x0 }
  - { offset: 0x46754, size: 0x8, addend: 0x0, symName: _afpIoFinder, symObjAddr: 0x140770, symBinAddr: 0x15CAD0, symSize: 0x0 }
  - { offset: 0x4676B, size: 0x8, addend: 0x0, symName: _nfsIoFinder, symObjAddr: 0x140778, symBinAddr: 0x15CAD8, symSize: 0x0 }
  - { offset: 0x46782, size: 0x8, addend: 0x0, symName: _proxyIoFinder, symObjAddr: 0x140780, symBinAddr: 0x15CAE0, symSize: 0x0 }
  - { offset: 0x46799, size: 0x8, addend: 0x0, symName: _unixBigLock, symObjAddr: 0x2D2E38, symBinAddr: 0x164D70, symSize: 0x0 }
  - { offset: 0x467B0, size: 0x8, addend: 0x0, symName: _pcache1_g, symObjAddr: 0x2D2F18, symBinAddr: 0x164E50, symSize: 0x0 }
  - { offset: 0x46ABF, size: 0x8, addend: 0x0, symName: _sqlite3OpenTempDatabase, symObjAddr: 0x23870, symBinAddr: 0x35CA8, symSize: 0x100 }
  - { offset: 0x46AEB, size: 0x8, addend: 0x0, symName: _sqlite3OpenTempDatabase.flags, symObjAddr: 0x12EF00, symBinAddr: 0x152BC0, symSize: 0x0 }
  - { offset: 0x46B67, size: 0x8, addend: 0x0, symName: _sqlite3SharedCacheList, symObjAddr: 0x2D2FA8, symBinAddr: 0x164EE0, symSize: 0x0 }
  - { offset: 0x46B71, size: 0x8, addend: 0x0, symName: _sqlite3PagerFilename, symObjAddr: 0x243D0, symBinAddr: 0x36808, symSize: 0x58 }
  - { offset: 0x46B99, size: 0x8, addend: 0x0, symName: _sqlite3PagerFilename.zFake, symObjAddr: 0x12EF04, symBinAddr: 0x152BC4, symSize: 0x0 }
  - { offset: 0x46BE1, size: 0x8, addend: 0x0, symName: _MemJournalMethods, symObjAddr: 0x140CA0, symBinAddr: 0x15D000, symSize: 0x0 }
  - { offset: 0x46BF8, size: 0x8, addend: 0x0, symName: _sqlite3Hooks, symObjAddr: 0x2D2FB0, symBinAddr: 0x164EE8, symSize: 0x0 }
  - { offset: 0x46C29, size: 0x8, addend: 0x0, symName: _syncJournal, symObjAddr: 0x25C3C, symBinAddr: 0x38074, symSize: 0x310 }
  - { offset: 0x46C51, size: 0x8, addend: 0x0, symName: _syncJournal.zerobyte, symObjAddr: 0x12EF14, symBinAddr: 0x152BD4, symSize: 0x0 }
  - { offset: 0x46CF5, size: 0x8, addend: 0x0, symName: _aJournalMagic, symObjAddr: 0x12EF0C, symBinAddr: 0x152BCC, symSize: 0x0 }
  - { offset: 0x46D0D, size: 0x8, addend: 0x0, symName: _zeroJournalHdr, symObjAddr: 0x2F33C, symBinAddr: 0x41774, symSize: 0x148 }
  - { offset: 0x46D35, size: 0x8, addend: 0x0, symName: _zeroJournalHdr.zeroHdr, symObjAddr: 0x12EF15, symBinAddr: 0x152BD5, symSize: 0x0 }
  - { offset: 0x46DC7, size: 0x8, addend: 0x0, symName: _zMagicHeader, symObjAddr: 0x12EF31, symBinAddr: 0x152BF1, symSize: 0x0 }
  - { offset: 0x46DEC, size: 0x8, addend: 0x0, symName: _sqlite3PendingByte, symObjAddr: 0x134308, symBinAddr: 0x160B68, symSize: 0x0 }
  - { offset: 0x46DF6, size: 0x8, addend: 0x0, symName: _vdbeCommit, symObjAddr: 0x398B4, symBinAddr: 0x4BCEC, symSize: 0x820 }
  - { offset: 0x46E22, size: 0x8, addend: 0x0, symName: _vdbeCommit.aMJNeeded, symObjAddr: 0x12EF41, symBinAddr: 0x152C01, symSize: 0x0 }
  - { offset: 0x47079, size: 0x8, addend: 0x0, symName: _sqlite3Utf8Trans1, symObjAddr: 0x12EF47, symBinAddr: 0x152C07, symSize: 0x0 }
  - { offset: 0x47091, size: 0x8, addend: 0x0, symName: _doubleToInt64, symObjAddr: 0x3D9F4, symBinAddr: 0x4FE2C, symSize: 0x6C }
  - { offset: 0x470BD, size: 0x8, addend: 0x0, symName: _doubleToInt64.maxInt, symObjAddr: 0x12EF88, symBinAddr: 0x152C48, symSize: 0x0 }
  - { offset: 0x470D6, size: 0x8, addend: 0x0, symName: _doubleToInt64.minInt, symObjAddr: 0x12EF90, symBinAddr: 0x152C50, symSize: 0x0 }
  - { offset: 0x470F9, size: 0x8, addend: 0x0, symName: _sqlite3VdbeDisplayP4, symObjAddr: 0x47D18, symBinAddr: 0x5A150, symSize: 0x57C }
  - { offset: 0x47125, size: 0x8, addend: 0x0, symName: _sqlite3VdbeDisplayP4.encnames, symObjAddr: 0x140D38, symBinAddr: 0x15D098, symSize: 0x0 }
  - { offset: 0x472D8, size: 0x8, addend: 0x0, symName: _sqlite3OpcodeName, symObjAddr: 0x482D4, symBinAddr: 0x5A70C, symSize: 0x20 }
  - { offset: 0x47300, size: 0x8, addend: 0x0, symName: _sqlite3OpcodeName.azName, symObjAddr: 0x140D58, symBinAddr: 0x15D0B8, symSize: 0x0 }
  - { offset: 0x47329, size: 0x8, addend: 0x0, symName: _sqlite3VdbeExec, symObjAddr: 0x3E5CC, symBinAddr: 0x50A04, symSize: 0x8FA4 }
  - { offset: 0x47355, size: 0x8, addend: 0x0, symName: _sqlite3VdbeExec.azType, symObjAddr: 0x1412E0, symBinAddr: 0x15D640, symSize: 0x0 }
  - { offset: 0x4736E, size: 0x8, addend: 0x0, symName: _sqlite3VdbeExec.aLTb, symObjAddr: 0x12EF98, symBinAddr: 0x152C58, symSize: 0x0 }
  - { offset: 0x47387, size: 0x8, addend: 0x0, symName: _sqlite3VdbeExec.aEQb, symObjAddr: 0x12EF9E, symBinAddr: 0x152C5E, symSize: 0x0 }
  - { offset: 0x473A0, size: 0x8, addend: 0x0, symName: _sqlite3VdbeExec.aGTb, symObjAddr: 0x12EFA4, symBinAddr: 0x152C64, symSize: 0x0 }
  - { offset: 0x473B9, size: 0x8, addend: 0x0, symName: _sqlite3VdbeExec.and_logic, symObjAddr: 0x12EFAA, symBinAddr: 0x152C6A, symSize: 0x0 }
  - { offset: 0x473D2, size: 0x8, addend: 0x0, symName: _sqlite3VdbeExec.or_logic, symObjAddr: 0x12EFB3, symBinAddr: 0x152C73, symSize: 0x0 }
  - { offset: 0x473EB, size: 0x8, addend: 0x0, symName: _sqlite3VdbeExec.aFlag, symObjAddr: 0x12EFBC, symBinAddr: 0x152C7C, symSize: 0x0 }
  - { offset: 0x47404, size: 0x8, addend: 0x0, symName: _sqlite3VdbeExec.vfsFlags, symObjAddr: 0x12EFC0, symBinAddr: 0x152C80, symSize: 0x0 }
  - { offset: 0x49251, size: 0x8, addend: 0x0, symName: _sqlite3SmallTypeSizes, symObjAddr: 0x12EFC4, symBinAddr: 0x152C84, symSize: 0x0 }
  - { offset: 0x49269, size: 0x8, addend: 0x0, symName: _sqlite3VdbeSerialGet, symObjAddr: 0x4924C, symBinAddr: 0x5B684, symSize: 0x338 }
  - { offset: 0x49295, size: 0x8, addend: 0x0, symName: _sqlite3VdbeSerialGet.aFlag, symObjAddr: 0x12F044, symBinAddr: 0x152D04, symSize: 0x0 }
  - { offset: 0x492D6, size: 0x8, addend: 0x0, symName: _sqlite3BtreeFakeValidCursor, symObjAddr: 0x4A510, symBinAddr: 0x5C948, symSize: 0xC }
  - { offset: 0x49302, size: 0x8, addend: 0x0, symName: _sqlite3BtreeFakeValidCursor.fakeCursor, symObjAddr: 0x2D2FC0, symBinAddr: 0x164EF8, symSize: 0x0 }
  - { offset: 0x4930D, size: 0x8, addend: 0x0, symName: _sqlite3LogEst, symObjAddr: 0x4C3A8, symBinAddr: 0x5E7E0, symSize: 0x104 }
  - { offset: 0x49335, size: 0x8, addend: 0x0, symName: _sqlite3LogEst.a, symObjAddr: 0x134900, symBinAddr: 0x161160, symSize: 0x0 }
  - { offset: 0x4936E, size: 0x8, addend: 0x0, symName: _vdbeSorterCompareInt, symObjAddr: 0x5A448, symBinAddr: 0x6C880, symSize: 0x2AC }
  - { offset: 0x4939A, size: 0x8, addend: 0x0, symName: _vdbeSorterCompareInt.aLen, symObjAddr: 0x12F048, symBinAddr: 0x152D08, symSize: 0x0 }
  - { offset: 0x494CF, size: 0x8, addend: 0x0, symName: _findElementWithHash, symObjAddr: 0x5DAEC, symBinAddr: 0x6FF24, symSize: 0x120 }
  - { offset: 0x494F7, size: 0x8, addend: 0x0, symName: _findElementWithHash.nullElement, symObjAddr: 0x2D2FC8, symBinAddr: 0x164F00, symSize: 0x0 }
  - { offset: 0x49580, size: 0x8, addend: 0x0, symName: _sqlite3DefaultRowEst, symObjAddr: 0x5EE08, symBinAddr: 0x71240, symSize: 0x160 }
  - { offset: 0x495A8, size: 0x8, addend: 0x0, symName: _sqlite3DefaultRowEst.aVal, symObjAddr: 0x12F052, symBinAddr: 0x152D12, symSize: 0x0 }
  - { offset: 0x49621, size: 0x8, addend: 0x0, symName: _sqlite3JournalModename, symObjAddr: 0x4F7B4, symBinAddr: 0x61BEC, symSize: 0x44 }
  - { offset: 0x4964D, size: 0x8, addend: 0x0, symName: _sqlite3JournalModename.azModeName, symObjAddr: 0x141300, symBinAddr: 0x15D660, symSize: 0x0 }
  - { offset: 0x4967E, size: 0x8, addend: 0x0, symName: _sqlite3RunVacuum, symObjAddr: 0x4F7F8, symBinAddr: 0x61C30, symSize: 0x740 }
  - { offset: 0x496AA, size: 0x8, addend: 0x0, symName: _sqlite3RunVacuum.aCopy, symObjAddr: 0x12F05C, symBinAddr: 0x152D1C, symSize: 0x0 }
  - { offset: 0x498A0, size: 0x8, addend: 0x0, symName: _columnNullValue, symObjAddr: 0x62A38, symBinAddr: 0x74E70, symSize: 0xC }
  - { offset: 0x498CC, size: 0x8, addend: 0x0, symName: _columnNullValue.nullMem, symObjAddr: 0x12F068, symBinAddr: 0x152D28, symSize: 0x0 }
  - { offset: 0x498EC, size: 0x8, addend: 0x0, symName: _aiClass, symObjAddr: 0x12F0A0, symBinAddr: 0x152D60, symSize: 0x0 }
  - { offset: 0x49905, size: 0x8, addend: 0x0, symName: _aKWHash, symObjAddr: 0x12F1A0, symBinAddr: 0x152E60, symSize: 0x0 }
  - { offset: 0x4992C, size: 0x8, addend: 0x0, symName: _aKWCode, symObjAddr: 0x12F21F, symBinAddr: 0x152EDF, symSize: 0x0 }
  - { offset: 0x49953, size: 0x8, addend: 0x0, symName: _aKWNext, symObjAddr: 0x12F2B0, symBinAddr: 0x152F70, symSize: 0x0 }
  - { offset: 0x4996A, size: 0x8, addend: 0x0, symName: _sqlite3OpcodeProperty, symObjAddr: 0x12F341, symBinAddr: 0x153001, symSize: 0x0 }
  - { offset: 0x49982, size: 0x8, addend: 0x0, symName: _sqlite3VdbeMakeReady, symObjAddr: 0xF108, symBinAddr: 0x21540, symSize: 0x498 }
  - { offset: 0x499AA, size: 0x8, addend: 0x0, symName: _sqlite3VdbeMakeReady.azColName, symObjAddr: 0x141330, symBinAddr: 0x15D690, symSize: 0x0 }
  - { offset: 0x49ABB, size: 0x8, addend: 0x0, symName: _aPragmaName, symObjAddr: 0x141450, symBinAddr: 0x15D7B0, symSize: 0x0 }
  - { offset: 0x49B64, size: 0x8, addend: 0x0, symName: _pragmaVtabModule, symObjAddr: 0x141390, symBinAddr: 0x15D6F0, symSize: 0x0 }
  - { offset: 0x49B7D, size: 0x8, addend: 0x0, symName: _pragCName, symObjAddr: 0x141A80, symBinAddr: 0x15DDE0, symSize: 0x0 }
  - { offset: 0x49BA4, size: 0x8, addend: 0x0, symName: _globInfo, symObjAddr: 0x12E84C, symBinAddr: 0x15250C, symSize: 0x0 }
  - { offset: 0x49C10, size: 0x8, addend: 0x0, symName: _likeInfoNorm, symObjAddr: 0x12E850, symBinAddr: 0x152510, symSize: 0x0 }
  - { offset: 0x49C27, size: 0x8, addend: 0x0, symName: _sqlite3CtypeMap, symObjAddr: 0x12E854, symBinAddr: 0x152514, symSize: 0x0 }
  - { offset: 0x49C31, size: 0x8, addend: 0x0, symName: _sqlite3LoadExtension, symObjAddr: 0x10E94, symBinAddr: 0x232CC, symSize: 0x66C }
  - { offset: 0x49C5D, size: 0x8, addend: 0x0, symName: _sqlite3LoadExtension.azEndings, symObjAddr: 0x134910, symBinAddr: 0x161170, symSize: 0x0 }
  - { offset: 0x49DFE, size: 0x8, addend: 0x0, symName: _sqlite3Apis, symObjAddr: 0x141C18, symBinAddr: 0x15DF78, symSize: 0x0 }
  - { offset: 0x4C14A, size: 0x8, addend: 0x0, symName: _sqlite3Autoext, symObjAddr: 0x2D2E40, symBinAddr: 0x164D78, symSize: 0x0 }
  - { offset: 0x4C187, size: 0x8, addend: 0x0, symName: _synthCollSeq, symObjAddr: 0x66B8C, symBinAddr: 0x78FC4, symSize: 0xC0 }
  - { offset: 0x4C1B3, size: 0x8, addend: 0x0, symName: _synthCollSeq.aEnc, symObjAddr: 0x12F3F2, symBinAddr: 0x1530B2, symSize: 0x0 }
  - { offset: 0x4C233, size: 0x8, addend: 0x0, symName: _sqlite3StrBINARY, symObjAddr: 0x12E959, symBinAddr: 0x152619, symSize: 0x0 }
  - { offset: 0x4C24C, size: 0x8, addend: 0x0, symName: _zKWText, symObjAddr: 0x12E960, symBinAddr: 0x152620, symSize: 0x0 }
  - { offset: 0x4C274, size: 0x8, addend: 0x0, symName: _aKWOffset, symObjAddr: 0x12EBE8, symBinAddr: 0x1528A8, symSize: 0x0 }
  - { offset: 0x4C2A1, size: 0x8, addend: 0x0, symName: _aKWLen, symObjAddr: 0x12ED0A, symBinAddr: 0x1529CA, symSize: 0x0 }
  - { offset: 0x4C2BA, size: 0x8, addend: 0x0, symName: _yyFallback, symObjAddr: 0x12F3F6, symBinAddr: 0x1530B6, symSize: 0x0 }
  - { offset: 0x4C2E1, size: 0x8, addend: 0x0, symName: _yy_shift_ofst, symObjAddr: 0x12F560, symBinAddr: 0x153220, symSize: 0x0 }
  - { offset: 0x4C309, size: 0x8, addend: 0x0, symName: _yy_lookahead, symObjAddr: 0x12F9B2, symBinAddr: 0x153672, symSize: 0x0 }
  - { offset: 0x4C331, size: 0x8, addend: 0x0, symName: _yy_action, symObjAddr: 0x130A70, symBinAddr: 0x154730, symSize: 0x0 }
  - { offset: 0x4C359, size: 0x8, addend: 0x0, symName: _yy_default, symObjAddr: 0x1319C4, symBinAddr: 0x155684, symSize: 0x0 }
  - { offset: 0x4C372, size: 0x8, addend: 0x0, symName: _yyRuleInfoNRhs, symObjAddr: 0x131E16, symBinAddr: 0x155AD6, symSize: 0x0 }
  - { offset: 0x4C391, size: 0x8, addend: 0x0, symName: _sqlite3VdbeGetOp, symObjAddr: 0x7FBB4, symBinAddr: 0x91FEC, symSize: 0x7C }
  - { offset: 0x4C3BD, size: 0x8, addend: 0x0, symName: _sqlite3VdbeGetOp.dummy, symObjAddr: 0x2D2FE8, symBinAddr: 0x164F20, symSize: 0x0 }
  - { offset: 0x4C3EC, size: 0x8, addend: 0x0, symName: _sqlite3AutoincrementBegin, symObjAddr: 0x7F8E0, symBinAddr: 0x91D18, symSize: 0x1B8 }
  - { offset: 0x4C414, size: 0x8, addend: 0x0, symName: _sqlite3AutoincrementBegin.iLn, symObjAddr: 0x13229C, symBinAddr: 0x155F5C, symSize: 0x0 }
  - { offset: 0x4C42D, size: 0x8, addend: 0x0, symName: _sqlite3AutoincrementBegin.autoInc, symObjAddr: 0x1322A0, symBinAddr: 0x155F60, symSize: 0x0 }
  - { offset: 0x4C4D2, size: 0x8, addend: 0x0, symName: _sqlite3ExprCodeTarget, symObjAddr: 0x803C4, symBinAddr: 0x927FC, symSize: 0x14BC }
  - { offset: 0x4C4FE, size: 0x8, addend: 0x0, symName: _sqlite3ExprCodeTarget.zAff, symObjAddr: 0x1322D0, symBinAddr: 0x155F90, symSize: 0x0 }
  - { offset: 0x4CAD6, size: 0x8, addend: 0x0, symName: _sqlite3Savepoint, symObjAddr: 0x6B874, symBinAddr: 0x7DCAC, symSize: 0xC0 }
  - { offset: 0x4CAFE, size: 0x8, addend: 0x0, symName: _sqlite3Savepoint.az, symObjAddr: 0x142400, symBinAddr: 0x15E760, symSize: 0x0 }
  - { offset: 0x4CB7F, size: 0x8, addend: 0x0, symName: _sqlite3StartTable, symObjAddr: 0x6B934, symBinAddr: 0x7DD6C, symSize: 0x640 }
  - { offset: 0x4CBA7, size: 0x8, addend: 0x0, symName: _sqlite3StartTable.aCode, symObjAddr: 0x1322D8, symBinAddr: 0x155F98, symSize: 0x0 }
  - { offset: 0x4CBC0, size: 0x8, addend: 0x0, symName: _sqlite3StartTable.nullRow, symObjAddr: 0x1322DC, symBinAddr: 0x155F9C, symSize: 0x0 }
  - { offset: 0x4CD9D, size: 0x8, addend: 0x0, symName: _row_numberName, symObjAddr: 0x1322E2, symBinAddr: 0x155FA2, symSize: 0x0 }
  - { offset: 0x4CDC4, size: 0x8, addend: 0x0, symName: _dense_rankName, symObjAddr: 0x1322ED, symBinAddr: 0x155FAD, symSize: 0x0 }
  - { offset: 0x4CDDD, size: 0x8, addend: 0x0, symName: _rankName, symObjAddr: 0x1322F8, symBinAddr: 0x155FB8, symSize: 0x0 }
  - { offset: 0x4CE04, size: 0x8, addend: 0x0, symName: _percent_rankName, symObjAddr: 0x1322FD, symBinAddr: 0x155FBD, symSize: 0x0 }
  - { offset: 0x4CE2B, size: 0x8, addend: 0x0, symName: _cume_distName, symObjAddr: 0x13230A, symBinAddr: 0x155FCA, symSize: 0x0 }
  - { offset: 0x4CE44, size: 0x8, addend: 0x0, symName: _ntileName, symObjAddr: 0x132314, symBinAddr: 0x155FD4, symSize: 0x0 }
  - { offset: 0x4CE5D, size: 0x8, addend: 0x0, symName: _leadName, symObjAddr: 0x13231A, symBinAddr: 0x155FDA, symSize: 0x0 }
  - { offset: 0x4CE76, size: 0x8, addend: 0x0, symName: _lagName, symObjAddr: 0x13231F, symBinAddr: 0x155FDF, symSize: 0x0 }
  - { offset: 0x4CE9C, size: 0x8, addend: 0x0, symName: _createTableStmt, symObjAddr: 0x8C544, symBinAddr: 0x9E97C, symSize: 0x2E4 }
  - { offset: 0x4CEC8, size: 0x8, addend: 0x0, symName: _createTableStmt.azType, symObjAddr: 0x1424D8, symBinAddr: 0x15E838, symSize: 0x0 }
  - { offset: 0x4CFC7, size: 0x8, addend: 0x0, symName: _sqlite3LogEstAdd, symObjAddr: 0xA1E04, symBinAddr: 0xB423C, symSize: 0x114 }
  - { offset: 0x4CFEF, size: 0x8, addend: 0x0, symName: _sqlite3LogEstAdd.x, symObjAddr: 0x132323, symBinAddr: 0x155FE3, symSize: 0x0 }
  - { offset: 0x4D037, size: 0x8, addend: 0x0, symName: _nth_valueName, symObjAddr: 0x132343, symBinAddr: 0x156003, symSize: 0x0 }
  - { offset: 0x4D050, size: 0x8, addend: 0x0, symName: _first_valueName, symObjAddr: 0x13234D, symBinAddr: 0x15600D, symSize: 0x0 }
  - { offset: 0x4D068, size: 0x8, addend: 0x0, symName: _exprAnalyze, symObjAddr: 0xA7F9C, symBinAddr: 0xBA3D4, symSize: 0xEB0 }
  - { offset: 0x4D090, size: 0x8, addend: 0x0, symName: _exprAnalyze.ops, symObjAddr: 0x132359, symBinAddr: 0x156019, symSize: 0x0 }
  - { offset: 0x4D5F3, size: 0x8, addend: 0x0, symName: _isAuxiliaryVtabOperator, symObjAddr: 0xAA84C, symBinAddr: 0xBCC84, symSize: 0x3F0 }
  - { offset: 0x4D61F, size: 0x8, addend: 0x0, symName: _isAuxiliaryVtabOperator.aOp, symObjAddr: 0x142500, symBinAddr: 0x15E860, symSize: 0x0 }
  - { offset: 0x4D7C5, size: 0x8, addend: 0x0, symName: _sqlite3WhereCodeOneLoopStart, symObjAddr: 0xA56E0, symBinAddr: 0xB7B18, symSize: 0x25A8 }
  - { offset: 0x4D7F1, size: 0x8, addend: 0x0, symName: _sqlite3WhereCodeOneLoopStart.aStartOp, symObjAddr: 0x13235B, symBinAddr: 0x15601B, symSize: 0x0 }
  - { offset: 0x4D80A, size: 0x8, addend: 0x0, symName: _sqlite3WhereCodeOneLoopStart.aEndOp, symObjAddr: 0x132363, symBinAddr: 0x156023, symSize: 0x0 }
  - { offset: 0x4D823, size: 0x8, addend: 0x0, symName: _sqlite3WhereCodeOneLoopStart.aStep, symObjAddr: 0x132367, symBinAddr: 0x156027, symSize: 0x0 }
  - { offset: 0x4D83C, size: 0x8, addend: 0x0, symName: _sqlite3WhereCodeOneLoopStart.aStart, symObjAddr: 0x132369, symBinAddr: 0x156029, symSize: 0x0 }
  - { offset: 0x4E1DE, size: 0x8, addend: 0x0, symName: _windowCheckValue, symObjAddr: 0xB3C64, symBinAddr: 0xC609C, symSize: 0x19C }
  - { offset: 0x4E206, size: 0x8, addend: 0x0, symName: _windowCheckValue.azErr, symObjAddr: 0x134918, symBinAddr: 0x161178, symSize: 0x0 }
  - { offset: 0x4E21F, size: 0x8, addend: 0x0, symName: _windowCheckValue.aOp, symObjAddr: 0x134940, symBinAddr: 0x1611A0, symSize: 0x0 }
  - { offset: 0x4E2C0, size: 0x8, addend: 0x0, symName: _sqlite3JoinType, symObjAddr: 0x72FF4, symBinAddr: 0x8542C, symSize: 0x2A4 }
  - { offset: 0x4E2EC, size: 0x8, addend: 0x0, symName: _sqlite3JoinType.zKeyText, symObjAddr: 0x13236B, symBinAddr: 0x15602B, symSize: 0x0 }
  - { offset: 0x4E305, size: 0x8, addend: 0x0, symName: _sqlite3JoinType.aKeyword, symObjAddr: 0x13238D, symBinAddr: 0x15604D, symSize: 0x0 }
  - { offset: 0x4E42F, size: 0x8, addend: 0x0, symName: _autoIncrementEnd, symObjAddr: 0xBAE58, symBinAddr: 0xCD290, symSize: 0x190 }
  - { offset: 0x4E457, size: 0x8, addend: 0x0, symName: _autoIncrementEnd.iLn, symObjAddr: 0x1323A4, symBinAddr: 0x156064, symSize: 0x0 }
  - { offset: 0x4E470, size: 0x8, addend: 0x0, symName: _autoIncrementEnd.autoIncEnd, symObjAddr: 0x1323A8, symBinAddr: 0x156068, symSize: 0x0 }
  - { offset: 0x4E527, size: 0x8, addend: 0x0, symName: _sqlite3Pragma, symObjAddr: 0x78D58, symBinAddr: 0x8B190, symSize: 0x3AF4 }
  - { offset: 0x4E54F, size: 0x8, addend: 0x0, symName: _sqlite3Pragma.iLn, symObjAddr: 0x1323BC, symBinAddr: 0x15607C, symSize: 0x0 }
  - { offset: 0x4E568, size: 0x8, addend: 0x0, symName: _sqlite3Pragma.getCacheSize, symObjAddr: 0x1323C0, symBinAddr: 0x156080, symSize: 0x0 }
  - { offset: 0x4E581, size: 0x8, addend: 0x0, symName: _sqlite3Pragma.iLn.869, symObjAddr: 0x1323E4, symBinAddr: 0x1560A4, symSize: 0x0 }
  - { offset: 0x4E59A, size: 0x8, addend: 0x0, symName: _sqlite3Pragma.setMeta6, symObjAddr: 0x1323E8, symBinAddr: 0x1560A8, symSize: 0x0 }
  - { offset: 0x4E5B3, size: 0x8, addend: 0x0, symName: _sqlite3Pragma.iLn.893, symObjAddr: 0x1323FC, symBinAddr: 0x1560BC, symSize: 0x0 }
  - { offset: 0x4E5CC, size: 0x8, addend: 0x0, symName: _sqlite3Pragma.endCode, symObjAddr: 0x132400, symBinAddr: 0x1560C0, symSize: 0x0 }
  - { offset: 0x4E5E5, size: 0x8, addend: 0x0, symName: _sqlite3Pragma.encnames, symObjAddr: 0x142578, symBinAddr: 0x15E8D8, symSize: 0x0 }
  - { offset: 0x4E62B, size: 0x8, addend: 0x0, symName: _sqlite3Pragma.setCookie, symObjAddr: 0x13241C, symBinAddr: 0x1560DC, symSize: 0x0 }
  - { offset: 0x4E644, size: 0x8, addend: 0x0, symName: _sqlite3Pragma.readCookie, symObjAddr: 0x132424, symBinAddr: 0x1560E4, symSize: 0x0 }
  - { offset: 0x4F744, size: 0x8, addend: 0x0, symName: _getSafetyLevel, symObjAddr: 0xC00C0, symBinAddr: 0xD24F8, symSize: 0x134 }
  - { offset: 0x4F770, size: 0x8, addend: 0x0, symName: _getSafetyLevel.zText, symObjAddr: 0x132430, symBinAddr: 0x1560F0, symSize: 0x0 }
  - { offset: 0x4F789, size: 0x8, addend: 0x0, symName: _getSafetyLevel.iOffset, symObjAddr: 0x132449, symBinAddr: 0x156109, symSize: 0x0 }
  - { offset: 0x4F7A2, size: 0x8, addend: 0x0, symName: _getSafetyLevel.iLength, symObjAddr: 0x132451, symBinAddr: 0x156111, symSize: 0x0 }
  - { offset: 0x4F7BB, size: 0x8, addend: 0x0, symName: _getSafetyLevel.iValue, symObjAddr: 0x132459, symBinAddr: 0x156119, symSize: 0x0 }
  - { offset: 0x4F82E, size: 0x8, addend: 0x0, symName: _pragmaFunclistLine, symObjAddr: 0xC0324, symBinAddr: 0xD275C, symSize: 0x158 }
  - { offset: 0x4F856, size: 0x8, addend: 0x0, symName: _pragmaFunclistLine.mask, symObjAddr: 0x132464, symBinAddr: 0x156124, symSize: 0x0 }
  - { offset: 0x4F86F, size: 0x8, addend: 0x0, symName: _pragmaFunclistLine.azEnc, symObjAddr: 0x134958, symBinAddr: 0x1611B8, symSize: 0x0 }
  - { offset: 0x4F905, size: 0x8, addend: 0x0, symName: _likeInfoAlt, symObjAddr: 0x132468, symBinAddr: 0x156128, symSize: 0x0 }
  - { offset: 0x4F90F, size: 0x8, addend: 0x0, symName: _sqlite3Attach, symObjAddr: 0x7D820, symBinAddr: 0x8FC58, symSize: 0x4C }
  - { offset: 0x4F937, size: 0x8, addend: 0x0, symName: _sqlite3Attach.attach_func, symObjAddr: 0x142608, symBinAddr: 0x15E968, symSize: 0x0 }
  - { offset: 0x4F990, size: 0x8, addend: 0x0, symName: _sqlite3ParseUri, symObjAddr: 0xC1580, symBinAddr: 0xD39B8, symSize: 0xA5C }
  - { offset: 0x4F9BC, size: 0x8, addend: 0x0, symName: _sqlite3ParseUri.aCacheMode, symObjAddr: 0x134978, symBinAddr: 0x1611D8, symSize: 0x0 }
  - { offset: 0x4FA02, size: 0x8, addend: 0x0, symName: _sqlite3ParseUri.aOpenMode, symObjAddr: 0x1349A8, symBinAddr: 0x161208, symSize: 0x0 }
  - { offset: 0x4FC9E, size: 0x8, addend: 0x0, symName: _sqlite3Detach, symObjAddr: 0x7D86C, symBinAddr: 0x8FCA4, symSize: 0x44 }
  - { offset: 0x4FCC6, size: 0x8, addend: 0x0, symName: _sqlite3Detach.detach_func, symObjAddr: 0x142650, symBinAddr: 0x15E9B0, symSize: 0x0 }
  - { offset: 0x4FCF5, size: 0x8, addend: 0x0, symName: _openStatTable, symObjAddr: 0xC27D8, symBinAddr: 0xD4C10, symSize: 0x29C }
  - { offset: 0x4FD1D, size: 0x8, addend: 0x0, symName: _openStatTable.aTable, symObjAddr: 0x142698, symBinAddr: 0x15E9F8, symSize: 0x0 }
  - { offset: 0x4FE80, size: 0x8, addend: 0x0, symName: _statInitFuncdef, symObjAddr: 0x1426C8, symBinAddr: 0x15EA28, symSize: 0x0 }
  - { offset: 0x4FE99, size: 0x8, addend: 0x0, symName: _statPushFuncdef, symObjAddr: 0x142710, symBinAddr: 0x15EA70, symSize: 0x0 }
  - { offset: 0x4FEB2, size: 0x8, addend: 0x0, symName: _statGetFuncdef, symObjAddr: 0x142758, symBinAddr: 0x15EAB8, symSize: 0x0 }
  - { offset: 0x4FECB, size: 0x8, addend: 0x0, symName: _yyRuleInfoLhs, symObjAddr: 0x131F98, symBinAddr: 0x155C58, symSize: 0x0 }
  - { offset: 0x4FEF3, size: 0x8, addend: 0x0, symName: _yy_reduce_ofst, symObjAddr: 0x13246C, symBinAddr: 0x15612C, symSize: 0x0 }
  - { offset: 0x4FF12, size: 0x8, addend: 0x0, symName: _sqlite3RegisterBuiltinFunctions, symObjAddr: 0x13AE4, symBinAddr: 0x25F1C, symSize: 0x2C }
  - { offset: 0x4FF3A, size: 0x8, addend: 0x0, symName: _sqlite3RegisterBuiltinFunctions.aBuiltinFunc, symObjAddr: 0x1349F8, symBinAddr: 0x161258, symSize: 0x0 }
  - { offset: 0x4FF53, size: 0x8, addend: 0x0, symName: _trimFunc, symObjAddr: 0xC3F60, symBinAddr: 0xD6398, symSize: 0x45C }
  - { offset: 0x4FF7B, size: 0x8, addend: 0x0, symName: _trimFunc.lenOne, symObjAddr: 0x13277C, symBinAddr: 0x15643C, symSize: 0x0 }
  - { offset: 0x4FF94, size: 0x8, addend: 0x0, symName: _trimFunc.azOne, symObjAddr: 0x1427A0, symBinAddr: 0x15EB00, symSize: 0x0 }
  - { offset: 0x500ED, size: 0x8, addend: 0x0, symName: _typeofFunc, symObjAddr: 0xC4658, symBinAddr: 0xD6A90, symSize: 0x58 }
  - { offset: 0x50115, size: 0x8, addend: 0x0, symName: _typeofFunc.azType, symObjAddr: 0x135C40, symBinAddr: 0x1624A0, symSize: 0x0 }
  - { offset: 0x50177, size: 0x8, addend: 0x0, symName: _hexdigits, symObjAddr: 0x13277D, symBinAddr: 0x15643D, symSize: 0x0 }
  - { offset: 0x50181, size: 0x8, addend: 0x0, symName: _sqlite3AlterFunctions, symObjAddr: 0xC6D70, symBinAddr: 0xD91A8, symSize: 0x20 }
  - { offset: 0x501A9, size: 0x8, addend: 0x0, symName: _sqlite3AlterFunctions.aAlterTableFuncs, symObjAddr: 0x135C68, symBinAddr: 0x1624C8, symSize: 0x0 }
  - { offset: 0x501C2, size: 0x8, addend: 0x0, symName: _sqlite3WindowFunctions, symObjAddr: 0xC6D90, symBinAddr: 0xD91C8, symSize: 0x20 }
  - { offset: 0x501EA, size: 0x8, addend: 0x0, symName: _sqlite3WindowFunctions.aWindowFuncs, symObjAddr: 0x135D40, symBinAddr: 0x1625A0, symSize: 0x0 }
  - { offset: 0x50212, size: 0x8, addend: 0x0, symName: _last_valueName, symObjAddr: 0x13278D, symBinAddr: 0x15644D, symSize: 0x0 }
  - { offset: 0x5021C, size: 0x8, addend: 0x0, symName: _sqlite3RegisterDateTimeFunctions, symObjAddr: 0xC6DB0, symBinAddr: 0xD91E8, symSize: 0x20 }
  - { offset: 0x50240, size: 0x8, addend: 0x0, symName: _sqlite3RegisterDateTimeFunctions.aDateTimeFuncs, symObjAddr: 0x136178, symBinAddr: 0x1629D8, symSize: 0x0 }
  - { offset: 0x50259, size: 0x8, addend: 0x0, symName: _getDigits, symObjAddr: 0xCBF10, symBinAddr: 0xDE348, symSize: 0x198 }
  - { offset: 0x50281, size: 0x8, addend: 0x0, symName: _getDigits.aMx, symObjAddr: 0x132798, symBinAddr: 0x156458, symSize: 0x0 }
  - { offset: 0x50350, size: 0x8, addend: 0x0, symName: _aXformType, symObjAddr: 0x1427A8, symBinAddr: 0x15EB08, symSize: 0x0 }
  - { offset: 0x503BB, size: 0x8, addend: 0x0, symName: _sqlite3MemSetDefault, symObjAddr: 0x14408, symBinAddr: 0x26840, symSize: 0x30 }
  - { offset: 0x503DF, size: 0x8, addend: 0x0, symName: _sqlite3MemSetDefault.defaultMethods, symObjAddr: 0x142868, symBinAddr: 0x15EBC8, symSize: 0x0 }
  - { offset: 0x503FD, size: 0x8, addend: 0x0, symName: __sqliteZone_, symObjAddr: 0x2D3000, symBinAddr: 0x164F38, symSize: 0x0 }
  - { offset: 0x50B94, size: 0x8, addend: 0x0, symName: _sqlite3PCacheSetDefault, symObjAddr: 0x14450, symBinAddr: 0x26888, symSize: 0x30 }
  - { offset: 0x50BB8, size: 0x8, addend: 0x0, symName: _sqlite3PCacheSetDefault.defaultMethods, symObjAddr: 0x1428A8, symBinAddr: 0x15EC08, symSize: 0x0 }
  - { offset: 0x50BC9, size: 0x8, addend: 0x0, symName: _sqlite3ErrStr, symObjAddr: 0xB630, symBinAddr: 0x1DA68, symSize: 0xDC }
  - { offset: 0x50BF5, size: 0x8, addend: 0x0, symName: _sqlite3ErrStr.aMsg, symObjAddr: 0x142910, symBinAddr: 0x15EC70, symSize: 0x0 }
  - { offset: 0x50C41, size: 0x8, addend: 0x0, symName: _aHardLimit, symObjAddr: 0x12EEBC, symBinAddr: 0x152B7C, symSize: 0x0 }
  - { offset: 0x50C68, size: 0x8, addend: 0x0, symName: _sqlite3BuiltinExtensions, symObjAddr: 0x1429F8, symBinAddr: 0x15ED58, symSize: 0x0 }
  - { offset: 0x50C86, size: 0x8, addend: 0x0, symName: _sqlite3Fts3UnicodeTokenizer, symObjAddr: 0xCF0CC, symBinAddr: 0xE1504, symSize: 0x20 }
  - { offset: 0x50CAE, size: 0x8, addend: 0x0, symName: _sqlite3Fts3UnicodeTokenizer.module, symObjAddr: 0x142AE0, symBinAddr: 0x15EE40, symSize: 0x0 }
  - { offset: 0x50E87, size: 0x8, addend: 0x0, symName: _sqlite3FtsUnicodeIsalnum, symObjAddr: 0xD0424, symBinAddr: 0xE285C, symSize: 0x148 }
  - { offset: 0x50EB3, size: 0x8, addend: 0x0, symName: _sqlite3FtsUnicodeIsalnum.aEntry, symObjAddr: 0x1327A4, symBinAddr: 0x156464, symSize: 0x0 }
  - { offset: 0x50ECC, size: 0x8, addend: 0x0, symName: _sqlite3FtsUnicodeIsalnum.aAscii, symObjAddr: 0x132DFC, symBinAddr: 0x156ABC, symSize: 0x0 }
  - { offset: 0x50F82, size: 0x8, addend: 0x0, symName: _sqlite3FtsUnicodeFold, symObjAddr: 0xD0664, symBinAddr: 0xE2A9C, symSize: 0x220 }
  - { offset: 0x50FAE, size: 0x8, addend: 0x0, symName: _sqlite3FtsUnicodeFold.aEntry, symObjAddr: 0x132E0C, symBinAddr: 0x156ACC, symSize: 0x0 }
  - { offset: 0x51004, size: 0x8, addend: 0x0, symName: _sqlite3FtsUnicodeFold.aiOff, symObjAddr: 0x133098, symBinAddr: 0x156D58, symSize: 0x0 }
  - { offset: 0x510EF, size: 0x8, addend: 0x0, symName: _sqlite3Fts3InitAux, symObjAddr: 0xCF0EC, symBinAddr: 0xE1524, symSize: 0x40 }
  - { offset: 0x5111B, size: 0x8, addend: 0x0, symName: _sqlite3Fts3InitAux.fts3aux_module, symObjAddr: 0x142B18, symBinAddr: 0x15EE78, symSize: 0x0 }
  - { offset: 0x51159, size: 0x8, addend: 0x0, symName: _simpleTokenizerModule, symObjAddr: 0x142D18, symBinAddr: 0x15F078, symSize: 0x0 }
  - { offset: 0x51172, size: 0x8, addend: 0x0, symName: _porterTokenizerModule, symObjAddr: 0x142D50, symBinAddr: 0x15F0B0, symSize: 0x0 }
  - { offset: 0x5118B, size: 0x8, addend: 0x0, symName: _porterIdChar, symObjAddr: 0x1332AC, symBinAddr: 0x156F6C, symSize: 0x0 }
  - { offset: 0x511B2, size: 0x8, addend: 0x0, symName: _cType, symObjAddr: 0x1332FC, symBinAddr: 0x156FBC, symSize: 0x0 }
  - { offset: 0x511D9, size: 0x8, addend: 0x0, symName: _fts3Module, symObjAddr: 0x142A20, symBinAddr: 0x15ED80, symSize: 0x0 }
  - { offset: 0x511E3, size: 0x8, addend: 0x0, symName: _sqlite3Fts3IsIdChar, symObjAddr: 0xDB00C, symBinAddr: 0xED444, symSize: 0x4C }
  - { offset: 0x5120F, size: 0x8, addend: 0x0, symName: _sqlite3Fts3IsIdChar.isFtsIdChar, symObjAddr: 0x133316, symBinAddr: 0x156FD6, symSize: 0x0 }
  - { offset: 0x5123A, size: 0x8, addend: 0x0, symName: _getNextNode, symObjAddr: 0xDDCBC, symBinAddr: 0xF00F4, symSize: 0x58C }
  - { offset: 0x51266, size: 0x8, addend: 0x0, symName: _getNextNode.aKeyword, symObjAddr: 0x142E08, symBinAddr: 0x15F168, symSize: 0x0 }
  - { offset: 0x51462, size: 0x8, addend: 0x0, symName: _fts3ShadowName, symObjAddr: 0xDA090, symBinAddr: 0xEC4C8, symSize: 0x84 }
  - { offset: 0x5148E, size: 0x8, addend: 0x0, symName: _fts3ShadowName.azName, symObjAddr: 0x1363B8, symBinAddr: 0x162C18, symSize: 0x0 }
  - { offset: 0x514BD, size: 0x8, addend: 0x0, symName: _sqlite3Fts3InitTok, symObjAddr: 0xCF508, symBinAddr: 0xE1940, symSize: 0x44 }
  - { offset: 0x514E9, size: 0x8, addend: 0x0, symName: _sqlite3Fts3InitTok.fts3tok_module, symObjAddr: 0x142E88, symBinAddr: 0x15F1E8, symSize: 0x0 }
  - { offset: 0x5152A, size: 0x8, addend: 0x0, symName: _fts5Init, symObjAddr: 0xF2528, symBinAddr: 0x104960, symSize: 0x1EC }
  - { offset: 0x51556, size: 0x8, addend: 0x0, symName: _fts5Init.fts5Mod, symObjAddr: 0x142F48, symBinAddr: 0x15F2A8, symSize: 0x0 }
  - { offset: 0x515C6, size: 0x8, addend: 0x0, symName: _fts5yy_shift_ofst, symObjAddr: 0x133416, symBinAddr: 0x1570D6, symSize: 0x0 }
  - { offset: 0x515ED, size: 0x8, addend: 0x0, symName: _fts5yy_lookahead, symObjAddr: 0x133439, symBinAddr: 0x1570F9, symSize: 0x0 }
  - { offset: 0x51614, size: 0x8, addend: 0x0, symName: _fts5yy_default, symObjAddr: 0x1334B2, symBinAddr: 0x157172, symSize: 0x0 }
  - { offset: 0x5162D, size: 0x8, addend: 0x0, symName: _fts5yy_action, symObjAddr: 0x1334D5, symBinAddr: 0x157195, symSize: 0x0 }
  - { offset: 0x51654, size: 0x8, addend: 0x0, symName: _fts5yyRuleInfoNRhs, symObjAddr: 0x13353E, symBinAddr: 0x1571FE, symSize: 0x0 }
  - { offset: 0x5166C, size: 0x8, addend: 0x0, symName: _sqlite3Fts5PoslistSafeAppend, symObjAddr: 0x101ED4, symBinAddr: 0x11430C, symSize: 0xF8 }
  - { offset: 0x51694, size: 0x8, addend: 0x0, symName: _sqlite3Fts5PoslistSafeAppend.colmask, symObjAddr: 0x133578, symBinAddr: 0x157238, symSize: 0x0 }
  - { offset: 0x516E4, size: 0x8, addend: 0x0, symName: _fts5yyRuleInfoLhs, symObjAddr: 0x13355A, symBinAddr: 0x15721A, symSize: 0x0 }
  - { offset: 0x5170B, size: 0x8, addend: 0x0, symName: _fts5yy_reduce_ofst, symObjAddr: 0x133580, symBinAddr: 0x157240, symSize: 0x0 }
  - { offset: 0x51732, size: 0x8, addend: 0x0, symName: _sFts5Api, symObjAddr: 0x1430A0, symBinAddr: 0x15F400, symSize: 0x0 }
  - { offset: 0x51B40, size: 0x8, addend: 0x0, symName: _fts5WriteFlushLeaf, symObjAddr: 0x10E908, symBinAddr: 0x120D40, symSize: 0x144 }
  - { offset: 0x51B68, size: 0x8, addend: 0x0, symName: _fts5WriteFlushLeaf.zero, symObjAddr: 0x133592, symBinAddr: 0x157252, symSize: 0x0 }
  - { offset: 0x51BBB, size: 0x8, addend: 0x0, symName: _fts5ShadowName, symObjAddr: 0xF4414, symBinAddr: 0x10684C, symSize: 0x84 }
  - { offset: 0x51BE7, size: 0x8, addend: 0x0, symName: _fts5ShadowName.azName, symObjAddr: 0x1363E0, symBinAddr: 0x162C40, symSize: 0x0 }
  - { offset: 0x51C25, size: 0x8, addend: 0x0, symName: _aFts5UnicodeBlock, symObjAddr: 0x136408, symBinAddr: 0x162C68, symSize: 0x0 }
  - { offset: 0x51C4C, size: 0x8, addend: 0x0, symName: _aFts5UnicodeMap, symObjAddr: 0x13642A, symBinAddr: 0x162C8A, symSize: 0x0 }
  - { offset: 0x51C74, size: 0x8, addend: 0x0, symName: _aFts5UnicodeData, symObjAddr: 0x1371F4, symBinAddr: 0x163A54, symSize: 0x0 }
  - { offset: 0x51C7E, size: 0x8, addend: 0x0, symName: _sqlite3Fts5UnicodeFold, symObjAddr: 0x116224, symBinAddr: 0x12865C, symSize: 0x220 }
  - { offset: 0x51CAA, size: 0x8, addend: 0x0, symName: _sqlite3Fts5UnicodeFold.aEntry, symObjAddr: 0x13359C, symBinAddr: 0x15725C, symSize: 0x0 }
  - { offset: 0x51D00, size: 0x8, addend: 0x0, symName: _sqlite3Fts5UnicodeFold.aiOff, symObjAddr: 0x133828, symBinAddr: 0x1574E8, symSize: 0x0 }
  - { offset: 0x51DEC, size: 0x8, addend: 0x0, symName: _aAsciiTokenChar, symObjAddr: 0x137FBE, symBinAddr: 0x16481E, symSize: 0x0 }
  - { offset: 0x51E04, size: 0x8, addend: 0x0, symName: _sqlite3Fts5VocabInit, symObjAddr: 0xF4C6C, symBinAddr: 0x1070A4, symSize: 0x48 }
  - { offset: 0x51E30, size: 0x8, addend: 0x0, symName: _sqlite3Fts5VocabInit.fts5Vocab, symObjAddr: 0x143260, symBinAddr: 0x15F5C0, symSize: 0x0 }
  - { offset: 0x51E80, size: 0x8, addend: 0x0, symName: _rtreeModule, symObjAddr: 0x138040, symBinAddr: 0x1648A0, symSize: 0x0 }
  - { offset: 0x51E8A, size: 0x8, addend: 0x0, symName: _rtreeInit, symObjAddr: 0x121138, symBinAddr: 0x133570, symSize: 0x61C }
  - { offset: 0x51EB6, size: 0x8, addend: 0x0, symName: _rtreeInit.azFormat, symObjAddr: 0x138100, symBinAddr: 0x164960, symSize: 0x0 }
  - { offset: 0x52045, size: 0x8, addend: 0x0, symName: _rtreeSqlInit, symObjAddr: 0x121958, symBinAddr: 0x133D90, symSize: 0x538 }
  - { offset: 0x52071, size: 0x8, addend: 0x0, symName: _rtreeSqlInit.azSql, symObjAddr: 0x138110, symBinAddr: 0x164970, symSize: 0x0 }
  - { offset: 0x521F3, size: 0x8, addend: 0x0, symName: _rtreeShadowName, symObjAddr: 0x1210B4, symBinAddr: 0x1334EC, symSize: 0x84 }
  - { offset: 0x5221F, size: 0x8, addend: 0x0, symName: _rtreeShadowName.azName, symObjAddr: 0x138150, symBinAddr: 0x1649B0, symSize: 0x0 }
  - { offset: 0x5225C, size: 0x8, addend: 0x0, symName: _sqlite3Json1Init, symObjAddr: 0xCEE74, symBinAddr: 0xE12AC, symSize: 0x258 }
  - { offset: 0x52288, size: 0x8, addend: 0x0, symName: _sqlite3Json1Init.aFunc, symObjAddr: 0x143370, symBinAddr: 0x15F6D0, symSize: 0x0 }
  - { offset: 0x522EA, size: 0x8, addend: 0x0, symName: _sqlite3Json1Init.aAgg, symObjAddr: 0x1434D8, symBinAddr: 0x15F838, symSize: 0x0 }
  - { offset: 0x5235C, size: 0x8, addend: 0x0, symName: _sqlite3Json1Init.aMod, symObjAddr: 0x143528, symBinAddr: 0x15F888, symSize: 0x0 }
  - { offset: 0x5239E, size: 0x8, addend: 0x0, symName: _sqlite3Json1Init.enc, symObjAddr: 0x133A3C, symBinAddr: 0x1576FC, symSize: 0x0 }
  - { offset: 0x52430, size: 0x8, addend: 0x0, symName: _jsonIsSpace, symObjAddr: 0x133A40, symBinAddr: 0x157700, symSize: 0x0 }
  - { offset: 0x52449, size: 0x8, addend: 0x0, symName: _jsonAppendString, symObjAddr: 0x12B82C, symBinAddr: 0x13DC64, symSize: 0x338 }
  - { offset: 0x52471, size: 0x8, addend: 0x0, symName: _jsonAppendString.aSpecial, symObjAddr: 0x133B40, symBinAddr: 0x157800, symSize: 0x0 }
  - { offset: 0x52514, size: 0x8, addend: 0x0, symName: _jsonType, symObjAddr: 0x143548, symBinAddr: 0x15F8A8, symSize: 0x0 }
  - { offset: 0x5253B, size: 0x8, addend: 0x0, symName: _jsonEachModule, symObjAddr: 0x138168, symBinAddr: 0x1649C8, symSize: 0x0 }
  - { offset: 0x52554, size: 0x8, addend: 0x0, symName: _jsonTreeModule, symObjAddr: 0x138228, symBinAddr: 0x164A88, symSize: 0x0 }
  - { offset: 0x5256B, size: 0x8, addend: 0x0, symName: _sqlite3SavedPrng, symObjAddr: 0x2D3008, symBinAddr: 0x164F40, symSize: 0x0 }
  - { offset: 0x52581, size: 0x8, addend: 0x0, symName: _sqlite3azCompileOpt, symObjAddr: 0x143588, symBinAddr: 0x15F8E8, symSize: 0x0 }
  - { offset: 0x58269, size: 0x8, addend: 0x0, symName: _sqlite3_status64, symObjAddr: 0x0, symBinAddr: 0x12438, symSize: 0x100 }
  - { offset: 0x582D5, size: 0x8, addend: 0x0, symName: _sqlite3MisuseError, symObjAddr: 0x100, symBinAddr: 0x12538, symSize: 0x30 }
  - { offset: 0x58305, size: 0x8, addend: 0x0, symName: _sqlite3Pcache1Mutex, symObjAddr: 0x130, symBinAddr: 0x12568, symSize: 0x10 }
  - { offset: 0x58320, size: 0x8, addend: 0x0, symName: _sqlite3MallocMutex, symObjAddr: 0x140, symBinAddr: 0x12578, symSize: 0xC }
  - { offset: 0x5833B, size: 0x8, addend: 0x0, symName: _sqlite3_mutex_enter, symObjAddr: 0x14C, symBinAddr: 0x12584, symSize: 0x40 }
  - { offset: 0x58363, size: 0x8, addend: 0x0, symName: _sqlite3_mutex_leave, symObjAddr: 0x18C, symBinAddr: 0x125C4, symSize: 0x40 }
  - { offset: 0x5838B, size: 0x8, addend: 0x0, symName: _sqlite3_status, symObjAddr: 0x1CC, symBinAddr: 0x12604, symSize: 0x74 }
  - { offset: 0x58417, size: 0x8, addend: 0x0, symName: _sqlite3_db_status, symObjAddr: 0x240, symBinAddr: 0x12678, symSize: 0x660 }
  - { offset: 0x58614, size: 0x8, addend: 0x0, symName: _sqlite3LookasideUsed, symObjAddr: 0x8A0, symBinAddr: 0x12CD8, symSize: 0xB0 }
  - { offset: 0x58670, size: 0x8, addend: 0x0, symName: _sqlite3BtreeEnterAll, symObjAddr: 0x950, symBinAddr: 0x12D88, symSize: 0x38 }
  - { offset: 0x58698, size: 0x8, addend: 0x0, symName: _sqlite3BtreePager, symObjAddr: 0x988, symBinAddr: 0x12DC0, symSize: 0x1C }
  - { offset: 0x586C8, size: 0x8, addend: 0x0, symName: _sqlite3PagerMemUsed, symObjAddr: 0x9A4, symBinAddr: 0x12DDC, symSize: 0x80 }
  - { offset: 0x58704, size: 0x8, addend: 0x0, symName: _sqlite3BtreeConnectionCount, symObjAddr: 0xA24, symBinAddr: 0x12E5C, symSize: 0x1C }
  - { offset: 0x58734, size: 0x8, addend: 0x0, symName: _sqlite3BtreeLeaveAll, symObjAddr: 0xA40, symBinAddr: 0x12E78, symSize: 0x38 }
  - { offset: 0x5875C, size: 0x8, addend: 0x0, symName: _sqlite3_msize, symObjAddr: 0xA78, symBinAddr: 0x12EB0, symSize: 0x5C }
  - { offset: 0x58788, size: 0x8, addend: 0x0, symName: _sqlite3DeleteTrigger, symObjAddr: 0xAD4, symBinAddr: 0x12F0C, symSize: 0x90 }
  - { offset: 0x587C6, size: 0x8, addend: 0x0, symName: _sqlite3DeleteTable, symObjAddr: 0xB64, symBinAddr: 0x12F9C, symSize: 0x7C }
  - { offset: 0x58804, size: 0x8, addend: 0x0, symName: _sqlite3VdbeClearObject, symObjAddr: 0xBE0, symBinAddr: 0x13018, symSize: 0x120 }
  - { offset: 0x58866, size: 0x8, addend: 0x0, symName: _sqlite3DbFree, symObjAddr: 0xD00, symBinAddr: 0x13138, symSize: 0x3C }
  - { offset: 0x5889E, size: 0x8, addend: 0x0, symName: _sqlite3PagerCacheStat, symObjAddr: 0xD3C, symBinAddr: 0x13174, symSize: 0x6C }
  - { offset: 0x588F6, size: 0x8, addend: 0x0, symName: _sqlite3_vfs_find, symObjAddr: 0xDA8, symBinAddr: 0x131E0, symSize: 0xC4 }
  - { offset: 0x58952, size: 0x8, addend: 0x0, symName: _sqlite3_initialize, symObjAddr: 0xE6C, symBinAddr: 0x132A4, symSize: 0x2B0 }
  - { offset: 0x58994, size: 0x8, addend: 0x0, symName: _sqlite3MutexAlloc, symObjAddr: 0x111C, symBinAddr: 0x13554, symSize: 0x58 }
  - { offset: 0x589C0, size: 0x8, addend: 0x0, symName: _sqlite3_vfs_register, symObjAddr: 0x1174, symBinAddr: 0x135AC, symSize: 0xCC }
  - { offset: 0x58A1C, size: 0x8, addend: 0x0, symName: _vfsUnlink, symObjAddr: 0x1240, symBinAddr: 0x13678, symSize: 0xF4 }
  - { offset: 0x58A62, size: 0x8, addend: 0x0, symName: _sqlite3_vfs_unregister, symObjAddr: 0x1334, symBinAddr: 0x1376C, symSize: 0x6C }
  - { offset: 0x58AAE, size: 0x8, addend: 0x0, symName: _sqlite3_mutex_alloc, symObjAddr: 0x13A0, symBinAddr: 0x137D8, symSize: 0x84 }
  - { offset: 0x58ADA, size: 0x8, addend: 0x0, symName: _sqlite3MutexInit, symObjAddr: 0x1424, symBinAddr: 0x1385C, symSize: 0x118 }
  - { offset: 0x58B34, size: 0x8, addend: 0x0, symName: _sqlite3_mutex_free, symObjAddr: 0x153C, symBinAddr: 0x13974, symSize: 0x40 }
  - { offset: 0x58B5C, size: 0x8, addend: 0x0, symName: _sqlite3_mutex_try, symObjAddr: 0x157C, symBinAddr: 0x139B4, symSize: 0x58 }
  - { offset: 0x58B98, size: 0x8, addend: 0x0, symName: _sqlite3_release_memory, symObjAddr: 0x15D4, symBinAddr: 0x13A0C, symSize: 0x14 }
  - { offset: 0x58BC4, size: 0x8, addend: 0x0, symName: _sqlite3_memory_alarm, symObjAddr: 0x15E8, symBinAddr: 0x13A20, symSize: 0x1C }
  - { offset: 0x58C10, size: 0x8, addend: 0x0, symName: _sqlite3_soft_heap_limit64, symObjAddr: 0x1604, symBinAddr: 0x13A3C, symSize: 0x190 }
  - { offset: 0x58C7C, size: 0x8, addend: 0x0, symName: _sqlite3StatusValue, symObjAddr: 0x1794, symBinAddr: 0x13BCC, symSize: 0x20 }
  - { offset: 0x58CA8, size: 0x8, addend: 0x0, symName: _sqlite3_memory_used, symObjAddr: 0x17B4, symBinAddr: 0x13BEC, symSize: 0x30 }
  - { offset: 0x58CE4, size: 0x8, addend: 0x0, symName: _sqlite3_soft_heap_limit, symObjAddr: 0x17E4, symBinAddr: 0x13C1C, symSize: 0x38 }
  - { offset: 0x58D0C, size: 0x8, addend: 0x0, symName: _sqlite3_hard_heap_limit64, symObjAddr: 0x181C, symBinAddr: 0x13C54, symSize: 0xD8 }
  - { offset: 0x58D58, size: 0x8, addend: 0x0, symName: _sqlite3_memory_highwater, symObjAddr: 0x18F4, symBinAddr: 0x13D2C, symSize: 0x34 }
  - { offset: 0x58DA4, size: 0x8, addend: 0x0, symName: _sqlite3_malloc, symObjAddr: 0x1928, symBinAddr: 0x13D60, symSize: 0x6C }
  - { offset: 0x58DD0, size: 0x8, addend: 0x0, symName: _sqlite3Malloc, symObjAddr: 0x1994, symBinAddr: 0x13DCC, symSize: 0xAC }
  - { offset: 0x58E0C, size: 0x8, addend: 0x0, symName: _sqlite3_malloc64, symObjAddr: 0x1A40, symBinAddr: 0x13E78, symSize: 0x44 }
  - { offset: 0x58E38, size: 0x8, addend: 0x0, symName: _sqlite3_free, symObjAddr: 0x1A84, symBinAddr: 0x13EBC, symSize: 0xA8 }
  - { offset: 0x58E60, size: 0x8, addend: 0x0, symName: _sqlite3StatusDown, symObjAddr: 0x1B2C, symBinAddr: 0x13F64, symSize: 0x30 }
  - { offset: 0x58E98, size: 0x8, addend: 0x0, symName: _sqlite3MallocSize, symObjAddr: 0x1B5C, symBinAddr: 0x13F94, symSize: 0x30 }
  - { offset: 0x58EC4, size: 0x8, addend: 0x0, symName: _sqlite3_realloc, symObjAddr: 0x1B8C, symBinAddr: 0x13FC4, symSize: 0x60 }
  - { offset: 0x58F00, size: 0x8, addend: 0x0, symName: _sqlite3Realloc, symObjAddr: 0x1BEC, symBinAddr: 0x14024, symSize: 0x220 }
  - { offset: 0x58F9A, size: 0x8, addend: 0x0, symName: _sqlite3_realloc64, symObjAddr: 0x1E0C, symBinAddr: 0x14244, symSize: 0x4C }
  - { offset: 0x58FD6, size: 0x8, addend: 0x0, symName: _sqlite3_str_append, symObjAddr: 0x446C, symBinAddr: 0x168A4, symSize: 0xB4 }
  - { offset: 0x5901E, size: 0x8, addend: 0x0, symName: _getIntArg, symObjAddr: 0x4520, symBinAddr: 0x16958, symSize: 0x70 }
  - { offset: 0x5904A, size: 0x8, addend: 0x0, symName: _printfTempBuf, symObjAddr: 0x4590, symBinAddr: 0x169C8, symSize: 0xBC }
  - { offset: 0x59096, size: 0x8, addend: 0x0, symName: _getDoubleArg, symObjAddr: 0x464C, symBinAddr: 0x16A84, symSize: 0x74 }
  - { offset: 0x590C2, size: 0x8, addend: 0x0, symName: _sqlite3IsNaN, symObjAddr: 0x46C0, symBinAddr: 0x16AF8, symSize: 0x54 }
  - { offset: 0x590FE, size: 0x8, addend: 0x0, symName: _et_getdigit, symObjAddr: 0x4714, symBinAddr: 0x16B4C, symSize: 0xA4 }
  - { offset: 0x5915A, size: 0x8, addend: 0x0, symName: _getTextArg, symObjAddr: 0x47B8, symBinAddr: 0x16BF0, symSize: 0x70 }
  - { offset: 0x59186, size: 0x8, addend: 0x0, symName: _sqlite3_str_appendchar, symObjAddr: 0x4828, symBinAddr: 0x16C60, symSize: 0xB0 }
  - { offset: 0x591CE, size: 0x8, addend: 0x0, symName: _sqlite3DbMallocSize, symObjAddr: 0x48D8, symBinAddr: 0x16D10, symSize: 0xB8 }
  - { offset: 0x5920A, size: 0x8, addend: 0x0, symName: _sqlite3_str_appendall, symObjAddr: 0x4990, symBinAddr: 0x16DC8, symSize: 0x48 }
  - { offset: 0x59242, size: 0x8, addend: 0x0, symName: _sqlite3StrAccumEnlarge, symObjAddr: 0x49D8, symBinAddr: 0x16E10, symSize: 0x258 }
  - { offset: 0x592BC, size: 0x8, addend: 0x0, symName: _enlargeAndAppend, symObjAddr: 0x4C30, symBinAddr: 0x17068, symSize: 0x80 }
  - { offset: 0x59304, size: 0x8, addend: 0x0, symName: _sqlite3Strlen30, symObjAddr: 0x4CB0, symBinAddr: 0x170E8, symSize: 0x50 }
  - { offset: 0x59330, size: 0x8, addend: 0x0, symName: _sqlite3_str_finish, symObjAddr: 0x4D00, symBinAddr: 0x17138, symSize: 0x64 }
  - { offset: 0x5936C, size: 0x8, addend: 0x0, symName: _sqlite3StrAccumFinish, symObjAddr: 0x4D64, symBinAddr: 0x1719C, symSize: 0x90 }
  - { offset: 0x59398, size: 0x8, addend: 0x0, symName: _sqlite3_str_errcode, symObjAddr: 0x4DF4, symBinAddr: 0x1722C, symSize: 0x3C }
  - { offset: 0x593C4, size: 0x8, addend: 0x0, symName: _sqlite3_str_length, symObjAddr: 0x4E30, symBinAddr: 0x17268, symSize: 0x3C }
  - { offset: 0x593F0, size: 0x8, addend: 0x0, symName: _sqlite3_str_value, symObjAddr: 0x4E6C, symBinAddr: 0x172A4, symSize: 0x60 }
  - { offset: 0x5941C, size: 0x8, addend: 0x0, symName: _sqlite3_str_reset, symObjAddr: 0x4ECC, symBinAddr: 0x17304, symSize: 0x6C }
  - { offset: 0x59444, size: 0x8, addend: 0x0, symName: _sqlite3_str_new, symObjAddr: 0x4F38, symBinAddr: 0x17370, symSize: 0x98 }
  - { offset: 0x59480, size: 0x8, addend: 0x0, symName: _sqlite3StrAccumInit, symObjAddr: 0x4FD0, symBinAddr: 0x17408, symSize: 0x68 }
  - { offset: 0x594E8, size: 0x8, addend: 0x0, symName: _sqlite3_vmprintf, symObjAddr: 0x5038, symBinAddr: 0x17470, symSize: 0xB8 }
  - { offset: 0x59556, size: 0x8, addend: 0x0, symName: _sqlite3_mprintf, symObjAddr: 0x50F0, symBinAddr: 0x17528, symSize: 0x5C }
  - { offset: 0x595A3, size: 0x8, addend: 0x0, symName: _sqlite3_vsnprintf, symObjAddr: 0x514C, symBinAddr: 0x17584, symSize: 0x90 }
  - { offset: 0x5960F, size: 0x8, addend: 0x0, symName: _sqlite3_snprintf, symObjAddr: 0x51DC, symBinAddr: 0x17614, symSize: 0x4C }
  - { offset: 0x5967C, size: 0x8, addend: 0x0, symName: _sqlite3_log, symObjAddr: 0x5228, symBinAddr: 0x17660, symSize: 0x54 }
  - { offset: 0x596C5, size: 0x8, addend: 0x0, symName: _renderLogMsg, symObjAddr: 0x527C, symBinAddr: 0x176B4, symSize: 0xC4 }
  - { offset: 0x59731, size: 0x8, addend: 0x0, symName: _sqlite3_str_appendf, symObjAddr: 0x5340, symBinAddr: 0x17778, symSize: 0x3C }
  - { offset: 0x5977A, size: 0x8, addend: 0x0, symName: _sqlite3_randomness, symObjAddr: 0x537C, symBinAddr: 0x177B4, symSize: 0x2C0 }
  - { offset: 0x59810, size: 0x8, addend: 0x0, symName: _sqlite3OsRandomness, symObjAddr: 0x563C, symBinAddr: 0x17A74, symSize: 0xB0 }
  - { offset: 0x5985C, size: 0x8, addend: 0x0, symName: _sqlite3_stricmp, symObjAddr: 0x56EC, symBinAddr: 0x17B24, symSize: 0x78 }
  - { offset: 0x59898, size: 0x8, addend: 0x0, symName: _sqlite3StrICmp, symObjAddr: 0x5764, symBinAddr: 0x17B9C, symSize: 0xBC }
  - { offset: 0x59914, size: 0x8, addend: 0x0, symName: _sqlite3_strnicmp, symObjAddr: 0x5820, symBinAddr: 0x17C58, symSize: 0x150 }
  - { offset: 0x59980, size: 0x8, addend: 0x0, symName: _unixOpen, symObjAddr: 0x59F0, symBinAddr: 0x17E28, symSize: 0x7D4 }
  - { offset: 0x59BD0, size: 0x8, addend: 0x0, symName: _unixDelete, symObjAddr: 0x61C4, symBinAddr: 0x185FC, symSize: 0x130 }
  - { offset: 0x59C4A, size: 0x8, addend: 0x0, symName: _unixAccess, symObjAddr: 0x62F4, symBinAddr: 0x1872C, symSize: 0xDC }
  - { offset: 0x59CC4, size: 0x8, addend: 0x0, symName: _unixFullPathname, symObjAddr: 0x63D0, symBinAddr: 0x18808, symSize: 0x3A8 }
  - { offset: 0x59DB8, size: 0x8, addend: 0x0, symName: _unixDlOpen, symObjAddr: 0x6778, symBinAddr: 0x18BB0, symSize: 0x2C }
  - { offset: 0x59DF4, size: 0x8, addend: 0x0, symName: _unixDlError, symObjAddr: 0x67A4, symBinAddr: 0x18BDC, symSize: 0x64 }
  - { offset: 0x59E4C, size: 0x8, addend: 0x0, symName: _unixDlSym, symObjAddr: 0x6808, symBinAddr: 0x18C40, symSize: 0x40 }
  - { offset: 0x59EA8, size: 0x8, addend: 0x0, symName: _unixDlClose, symObjAddr: 0x6848, symBinAddr: 0x18C80, symSize: 0x28 }
  - { offset: 0x59EE0, size: 0x8, addend: 0x0, symName: _unixRandomness, symObjAddr: 0x6870, symBinAddr: 0x18CA8, symSize: 0x134 }
  - { offset: 0x59F78, size: 0x8, addend: 0x0, symName: _unixSleep, symObjAddr: 0x69A4, symBinAddr: 0x18DDC, symSize: 0x58 }
  - { offset: 0x59FC4, size: 0x8, addend: 0x0, symName: _unixCurrentTime, symObjAddr: 0x69FC, symBinAddr: 0x18E34, symSize: 0x58 }
  - { offset: 0x5A020, size: 0x8, addend: 0x0, symName: _unixGetLastError, symObjAddr: 0x6A54, symBinAddr: 0x18E8C, symSize: 0x2C }
  - { offset: 0x5A06C, size: 0x8, addend: 0x0, symName: _unixSetSystemCall, symObjAddr: 0x6AE8, symBinAddr: 0x18F20, symSize: 0x1D0 }
  - { offset: 0x5A0D8, size: 0x8, addend: 0x0, symName: _unixGetSystemCall, symObjAddr: 0x6CB8, symBinAddr: 0x190F0, symSize: 0xA4 }
  - { offset: 0x5A124, size: 0x8, addend: 0x0, symName: _unixNextSystemCall, symObjAddr: 0x6D5C, symBinAddr: 0x19194, symSize: 0x114 }
  - { offset: 0x5A170, size: 0x8, addend: 0x0, symName: _sqlite3_os_end, symObjAddr: 0x6E70, symBinAddr: 0x192A8, symSize: 0x10 }
  - { offset: 0x5A18B, size: 0x8, addend: 0x0, symName: _sqlite3_database_file_object, symObjAddr: 0x6E80, symBinAddr: 0x192B8, symSize: 0xA4 }
  - { offset: 0x5A1C7, size: 0x8, addend: 0x0, symName: _sqlite3_enable_shared_cache, symObjAddr: 0x6F24, symBinAddr: 0x1935C, symSize: 0x24 }
  - { offset: 0x5A1F3, size: 0x8, addend: 0x0, symName: _sqlite3_backup_init, symObjAddr: 0x6F48, symBinAddr: 0x19380, symSize: 0x190 }
  - { offset: 0x5A26B, size: 0x8, addend: 0x0, symName: _sqlite3ErrorWithMsg, symObjAddr: 0x70D8, symBinAddr: 0x19510, symSize: 0xC8 }
  - { offset: 0x5A2E2, size: 0x8, addend: 0x0, symName: _sqlite3MallocZero, symObjAddr: 0x71A0, symBinAddr: 0x195D8, symSize: 0x50 }
  - { offset: 0x5A31E, size: 0x8, addend: 0x0, symName: _sqlite3Error, symObjAddr: 0x71F0, symBinAddr: 0x19628, symSize: 0x58 }
  - { offset: 0x5A356, size: 0x8, addend: 0x0, symName: _findBtree, symObjAddr: 0x7248, symBinAddr: 0x19680, symSize: 0x154 }
  - { offset: 0x5A3EE, size: 0x8, addend: 0x0, symName: _checkReadTransaction, symObjAddr: 0x739C, symBinAddr: 0x197D4, symSize: 0x60 }
  - { offset: 0x5A430, size: 0x8, addend: 0x0, symName: _sqlite3_backup_step, symObjAddr: 0x73FC, symBinAddr: 0x19834, symSize: 0x910 }
  - { offset: 0x5A698, size: 0x8, addend: 0x0, symName: _sqlite3BtreeEnter, symObjAddr: 0x7D0C, symBinAddr: 0x1A144, symSize: 0x60 }
  - { offset: 0x5A6C0, size: 0x8, addend: 0x0, symName: _isFatalError, symObjAddr: 0x7D6C, symBinAddr: 0x1A1A4, symSize: 0x58 }
  - { offset: 0x5A6F0, size: 0x8, addend: 0x0, symName: _sqlite3BtreeTxnState, symObjAddr: 0x7DC4, symBinAddr: 0x1A1FC, symSize: 0x3C }
  - { offset: 0x5A720, size: 0x8, addend: 0x0, symName: _sqlite3BtreeBeginTrans, symObjAddr: 0x7E00, symBinAddr: 0x1A238, symSize: 0x580 }
  - { offset: 0x5A81D, size: 0x8, addend: 0x0, symName: _setDestPgsz, symObjAddr: 0x8380, symBinAddr: 0x1A7B8, symSize: 0x50 }
  - { offset: 0x5A85F, size: 0x8, addend: 0x0, symName: _sqlite3BtreeGetPageSize, symObjAddr: 0x83D0, symBinAddr: 0x1A808, symSize: 0x1C }
  - { offset: 0x5A88F, size: 0x8, addend: 0x0, symName: _sqlite3PagerGetJournalMode, symObjAddr: 0x83EC, symBinAddr: 0x1A824, symSize: 0x18 }
  - { offset: 0x5A8BB, size: 0x8, addend: 0x0, symName: _sqlite3BtreeLastPage, symObjAddr: 0x8404, symBinAddr: 0x1A83C, symSize: 0x28 }
  - { offset: 0x5A8EB, size: 0x8, addend: 0x0, symName: _sqlite3PagerGet, symObjAddr: 0x842C, symBinAddr: 0x1A864, symSize: 0x44 }
  - { offset: 0x5A947, size: 0x8, addend: 0x0, symName: _backupOnePage, symObjAddr: 0x8470, symBinAddr: 0x1A8A8, symSize: 0x270 }
  - { offset: 0x5AAA3, size: 0x8, addend: 0x0, symName: _sqlite3PagerGetData, symObjAddr: 0x86E0, symBinAddr: 0x1AB18, symSize: 0x18 }
  - { offset: 0x5AACF, size: 0x8, addend: 0x0, symName: _sqlite3PagerUnref, symObjAddr: 0x86F8, symBinAddr: 0x1AB30, symSize: 0x34 }
  - { offset: 0x5AAF7, size: 0x8, addend: 0x0, symName: _attachBackupObject, symObjAddr: 0x872C, symBinAddr: 0x1AB64, symSize: 0x58 }
  - { offset: 0x5AB35, size: 0x8, addend: 0x0, symName: _sqlite3BtreeNewDb, symObjAddr: 0x8784, symBinAddr: 0x1ABBC, symSize: 0x4C }
  - { offset: 0x5AB77, size: 0x8, addend: 0x0, symName: _sqlite3BtreeUpdateMeta, symObjAddr: 0x87D0, symBinAddr: 0x1AC08, symSize: 0xB4 }
  - { offset: 0x5AC01, size: 0x8, addend: 0x0, symName: _sqlite3ResetAllSchemasOfConnection, symObjAddr: 0x8884, symBinAddr: 0x1ACBC, symSize: 0x104 }
  - { offset: 0x5AC5F, size: 0x8, addend: 0x0, symName: _sqlite3BtreeSetVersion, symObjAddr: 0x8988, symBinAddr: 0x1ADC0, symSize: 0x13C }
  - { offset: 0x5ACE5, size: 0x8, addend: 0x0, symName: _sqlite3PagerFile, symObjAddr: 0x8AC4, symBinAddr: 0x1AEFC, symSize: 0x18 }
  - { offset: 0x5AD11, size: 0x8, addend: 0x0, symName: _sqlite3PagerPagecount, symObjAddr: 0x8ADC, symBinAddr: 0x1AF14, symSize: 0x24 }
  - { offset: 0x5AD49, size: 0x8, addend: 0x0, symName: _sqlite3PagerWrite, symObjAddr: 0x8B00, symBinAddr: 0x1AF38, symSize: 0xDC }
  - { offset: 0x5AD85, size: 0x8, addend: 0x0, symName: _sqlite3PagerCommitPhaseOne, symObjAddr: 0x8BDC, symBinAddr: 0x1B014, symSize: 0x2D0 }
  - { offset: 0x5AE4C, size: 0x8, addend: 0x0, symName: _sqlite3OsWrite, symObjAddr: 0x8EAC, symBinAddr: 0x1B2E4, symSize: 0x48 }
  - { offset: 0x5AEA8, size: 0x8, addend: 0x0, symName: _backupTruncateFile, symObjAddr: 0x8EF4, symBinAddr: 0x1B32C, symSize: 0x68 }
  - { offset: 0x5AF0E, size: 0x8, addend: 0x0, symName: _sqlite3PagerSync, symObjAddr: 0x8F5C, symBinAddr: 0x1B394, symSize: 0x98 }
  - { offset: 0x5AF6A, size: 0x8, addend: 0x0, symName: _sqlite3PagerTruncateImage, symObjAddr: 0x8FF4, symBinAddr: 0x1B42C, symSize: 0x20 }
  - { offset: 0x5AFA2, size: 0x8, addend: 0x0, symName: _sqlite3BtreeCommitPhaseTwo, symObjAddr: 0x9014, symBinAddr: 0x1B44C, symSize: 0xE0 }
  - { offset: 0x5B016, size: 0x8, addend: 0x0, symName: _sqlite3BtreeCommitPhaseOne, symObjAddr: 0x90F4, symBinAddr: 0x1B52C, symSize: 0xE8 }
  - { offset: 0x5B08A, size: 0x8, addend: 0x0, symName: _sqlite3BtreeLeave, symObjAddr: 0x91DC, symBinAddr: 0x1B614, symSize: 0x5C }
  - { offset: 0x5B0B2, size: 0x8, addend: 0x0, symName: _sqlite3_backup_finish, symObjAddr: 0x9238, symBinAddr: 0x1B670, symSize: 0x1C4 }
  - { offset: 0x5B118, size: 0x8, addend: 0x0, symName: _sqlite3PagerBackupPtr, symObjAddr: 0x93FC, symBinAddr: 0x1B834, symSize: 0x18 }
  - { offset: 0x5B144, size: 0x8, addend: 0x0, symName: _sqlite3BtreeRollback, symObjAddr: 0x9414, symBinAddr: 0x1B84C, symSize: 0x154 }
  - { offset: 0x5B20E, size: 0x8, addend: 0x0, symName: _sqlite3LeaveMutexAndCloseZombie, symObjAddr: 0x9568, symBinAddr: 0x1B9A0, symSize: 0x384 }
  - { offset: 0x5B2F0, size: 0x8, addend: 0x0, symName: _sqlite3_backup_remaining, symObjAddr: 0x98EC, symBinAddr: 0x1BD24, symSize: 0x18 }
  - { offset: 0x5B320, size: 0x8, addend: 0x0, symName: _sqlite3_backup_pagecount, symObjAddr: 0x9904, symBinAddr: 0x1BD3C, symSize: 0x18 }
  - { offset: 0x5B350, size: 0x8, addend: 0x0, symName: _sqlite3_expired, symObjAddr: 0x991C, symBinAddr: 0x1BD54, symSize: 0x4C }
  - { offset: 0x5B392, size: 0x8, addend: 0x0, symName: _sqlite3_finalize, symObjAddr: 0x9968, symBinAddr: 0x1BDA0, symSize: 0xD0 }
  - { offset: 0x5B406, size: 0x8, addend: 0x0, symName: _vdbeSafety, symObjAddr: 0x9A38, symBinAddr: 0x1BE70, symSize: 0x54 }
  - { offset: 0x5B436, size: 0x8, addend: 0x0, symName: _invokeProfileCallback, symObjAddr: 0x9A8C, symBinAddr: 0x1BEC4, symSize: 0xC0 }
  - { offset: 0x5B498, size: 0x8, addend: 0x0, symName: _sqlite3VdbeFinalize, symObjAddr: 0x9B4C, symBinAddr: 0x1BF84, symSize: 0x74 }
  - { offset: 0x5B4DA, size: 0x8, addend: 0x0, symName: _sqlite3ApiExit, symObjAddr: 0x9BC0, symBinAddr: 0x1BFF8, symSize: 0x6C }
  - { offset: 0x5B516, size: 0x8, addend: 0x0, symName: _sqlite3_reset, symObjAddr: 0x9C2C, symBinAddr: 0x1C064, symSize: 0xAC }
  - { offset: 0x5B58A, size: 0x8, addend: 0x0, symName: _sqlite3VdbeReset, symObjAddr: 0x9CD8, symBinAddr: 0x1C110, symSize: 0x16C }
  - { offset: 0x5B5CC, size: 0x8, addend: 0x0, symName: _sqlite3VdbeRewind, symObjAddr: 0x9E44, symBinAddr: 0x1C27C, symSize: 0x70 }
  - { offset: 0x5B5F8, size: 0x8, addend: 0x0, symName: _sqlite3_clear_bindings, symObjAddr: 0x9EB4, symBinAddr: 0x1C2EC, symSize: 0xE8 }
  - { offset: 0x5B670, size: 0x8, addend: 0x0, symName: _sqlite3VdbeMemRelease, symObjAddr: 0x9F9C, symBinAddr: 0x1C3D4, symSize: 0x50 }
  - { offset: 0x5B69C, size: 0x8, addend: 0x0, symName: _sqlite3_value_blob, symObjAddr: 0x9FEC, symBinAddr: 0x1C424, symSize: 0xD8 }
  - { offset: 0x5B6DE, size: 0x8, addend: 0x0, symName: _sqlite3VdbeMemExpandBlob, symObjAddr: 0xA0C4, symBinAddr: 0x1C4FC, symSize: 0xEC }
  - { offset: 0x5B720, size: 0x8, addend: 0x0, symName: _sqlite3_value_text, symObjAddr: 0xA1B0, symBinAddr: 0x1C5E8, symSize: 0x28 }
  - { offset: 0x5B750, size: 0x8, addend: 0x0, symName: _sqlite3_value_bytes, symObjAddr: 0xA1D8, symBinAddr: 0x1C610, symSize: 0x28 }
  - { offset: 0x5B780, size: 0x8, addend: 0x0, symName: _sqlite3ValueBytes, symObjAddr: 0xA200, symBinAddr: 0x1C638, symSize: 0xDC }
  - { offset: 0x5B7D4, size: 0x8, addend: 0x0, symName: _sqlite3_value_bytes16, symObjAddr: 0xA2DC, symBinAddr: 0x1C714, symSize: 0x28 }
  - { offset: 0x5B804, size: 0x8, addend: 0x0, symName: _sqlite3_value_double, symObjAddr: 0xA304, symBinAddr: 0x1C73C, symSize: 0x24 }
  - { offset: 0x5B834, size: 0x8, addend: 0x0, symName: _sqlite3VdbeRealValue, symObjAddr: 0xA328, symBinAddr: 0x1C760, symSize: 0xA0 }
  - { offset: 0x5B864, size: 0x8, addend: 0x0, symName: _sqlite3_value_int, symObjAddr: 0xA3C8, symBinAddr: 0x1C800, symSize: 0x24 }
  - { offset: 0x5B894, size: 0x8, addend: 0x0, symName: _sqlite3VdbeIntValue, symObjAddr: 0xA3EC, symBinAddr: 0x1C824, symSize: 0xAC }
  - { offset: 0x5B8D6, size: 0x8, addend: 0x0, symName: _sqlite3_value_int64, symObjAddr: 0xA498, symBinAddr: 0x1C8D0, symSize: 0x24 }
  - { offset: 0x5B906, size: 0x8, addend: 0x0, symName: _sqlite3_value_subtype, symObjAddr: 0xA4BC, symBinAddr: 0x1C8F4, symSize: 0x48 }
  - { offset: 0x5B948, size: 0x8, addend: 0x0, symName: _sqlite3_value_pointer, symObjAddr: 0xA504, symBinAddr: 0x1C93C, symSize: 0x9C }
  - { offset: 0x5B99C, size: 0x8, addend: 0x0, symName: _sqlite3ValueText, symObjAddr: 0xA5A0, symBinAddr: 0x1C9D8, symSize: 0xA8 }
  - { offset: 0x5B9DE, size: 0x8, addend: 0x0, symName: _sqlite3_value_text16, symObjAddr: 0xA648, symBinAddr: 0x1CA80, symSize: 0x28 }
  - { offset: 0x5BA0E, size: 0x8, addend: 0x0, symName: _sqlite3_value_text16be, symObjAddr: 0xA670, symBinAddr: 0x1CAA8, symSize: 0x28 }
  - { offset: 0x5BA3E, size: 0x8, addend: 0x0, symName: _sqlite3_value_text16le, symObjAddr: 0xA698, symBinAddr: 0x1CAD0, symSize: 0x28 }
  - { offset: 0x5BA6E, size: 0x8, addend: 0x0, symName: _sqlite3_value_nochange, symObjAddr: 0xA6E8, symBinAddr: 0x1CB20, symSize: 0x28 }
  - { offset: 0x5BA9E, size: 0x8, addend: 0x0, symName: _sqlite3_value_frombind, symObjAddr: 0xA710, symBinAddr: 0x1CB48, symSize: 0x20 }
  - { offset: 0x5BACE, size: 0x8, addend: 0x0, symName: _sqlite3_value_dup, symObjAddr: 0xA730, symBinAddr: 0x1CB68, symSize: 0x100 }
  - { offset: 0x5BB10, size: 0x8, addend: 0x0, symName: _sqlite3VdbeMemMakeWriteable, symObjAddr: 0xA830, symBinAddr: 0x1CC68, symSize: 0xE0 }
  - { offset: 0x5BB60, size: 0x8, addend: 0x0, symName: _sqlite3ValueFree, symObjAddr: 0xA910, symBinAddr: 0x1CD48, symSize: 0x48 }
  - { offset: 0x5BB8C, size: 0x8, addend: 0x0, symName: _sqlite3_value_free, symObjAddr: 0xA958, symBinAddr: 0x1CD90, symSize: 0x24 }
  - { offset: 0x5BBB8, size: 0x8, addend: 0x0, symName: _sqlite3_result_blob, symObjAddr: 0xA97C, symBinAddr: 0x1CDB4, symSize: 0x40 }
  - { offset: 0x5BC1A, size: 0x8, addend: 0x0, symName: _setResultStrOrError, symObjAddr: 0xA9BC, symBinAddr: 0x1CDF4, symSize: 0x60 }
  - { offset: 0x5BC8E, size: 0x8, addend: 0x0, symName: _sqlite3_result_blob64, symObjAddr: 0xAA1C, symBinAddr: 0x1CE54, symSize: 0x70 }
  - { offset: 0x5BCF0, size: 0x8, addend: 0x0, symName: _invokeValueDestructor, symObjAddr: 0xAA8C, symBinAddr: 0x1CEC4, symSize: 0x78 }
  - { offset: 0x5BD44, size: 0x8, addend: 0x0, symName: _sqlite3_result_double, symObjAddr: 0xAB04, symBinAddr: 0x1CF3C, symSize: 0x30 }
  - { offset: 0x5BD82, size: 0x8, addend: 0x0, symName: _sqlite3VdbeMemSetDouble, symObjAddr: 0xAB34, symBinAddr: 0x1CF6C, symSize: 0x54 }
  - { offset: 0x5BDC0, size: 0x8, addend: 0x0, symName: _sqlite3_result_error, symObjAddr: 0xAB88, symBinAddr: 0x1CFC0, symSize: 0x48 }
  - { offset: 0x5BE10, size: 0x8, addend: 0x0, symName: _sqlite3VdbeMemSetStr, symObjAddr: 0xABD0, symBinAddr: 0x1D008, symSize: 0x374 }
  - { offset: 0x5BEDE, size: 0x8, addend: 0x0, symName: _sqlite3_result_error16, symObjAddr: 0xAF44, symBinAddr: 0x1D37C, symSize: 0x4C }
  - { offset: 0x5BF2E, size: 0x8, addend: 0x0, symName: _sqlite3_result_int, symObjAddr: 0xAF90, symBinAddr: 0x1D3C8, symSize: 0x30 }
  - { offset: 0x5BF6C, size: 0x8, addend: 0x0, symName: _sqlite3VdbeMemSetInt64, symObjAddr: 0xAFC0, symBinAddr: 0x1D3F8, symSize: 0x64 }
  - { offset: 0x5BFAA, size: 0x8, addend: 0x0, symName: _sqlite3_result_int64, symObjAddr: 0xB024, symBinAddr: 0x1D45C, symSize: 0x30 }
  - { offset: 0x5BFE8, size: 0x8, addend: 0x0, symName: _sqlite3_result_null, symObjAddr: 0xB054, symBinAddr: 0x1D48C, symSize: 0x28 }
  - { offset: 0x5C014, size: 0x8, addend: 0x0, symName: _sqlite3VdbeMemSetNull, symObjAddr: 0xB07C, symBinAddr: 0x1D4B4, symSize: 0x50 }
  - { offset: 0x5C040, size: 0x8, addend: 0x0, symName: _sqlite3_result_pointer, symObjAddr: 0xB0CC, symBinAddr: 0x1D504, symSize: 0x5C }
  - { offset: 0x5C0B4, size: 0x8, addend: 0x0, symName: _sqlite3VdbeMemSetPointer, symObjAddr: 0xB128, symBinAddr: 0x1D560, symSize: 0xA8 }
  - { offset: 0x5C116, size: 0x8, addend: 0x0, symName: _sqlite3_result_subtype, symObjAddr: 0xB1D0, symBinAddr: 0x1D608, symSize: 0x3C }
  - { offset: 0x5C166, size: 0x8, addend: 0x0, symName: _sqlite3_result_text, symObjAddr: 0xB20C, symBinAddr: 0x1D644, symSize: 0x40 }
  - { offset: 0x5C1C8, size: 0x8, addend: 0x0, symName: _sqlite3_result_text64, symObjAddr: 0xB24C, symBinAddr: 0x1D684, symSize: 0x90 }
  - { offset: 0x5C23C, size: 0x8, addend: 0x0, symName: _sqlite3_result_text16, symObjAddr: 0xB2DC, symBinAddr: 0x1D714, symSize: 0x40 }
  - { offset: 0x5C29E, size: 0x8, addend: 0x0, symName: _sqlite3_result_text16be, symObjAddr: 0xB31C, symBinAddr: 0x1D754, symSize: 0x40 }
  - { offset: 0x5C300, size: 0x8, addend: 0x0, symName: _sqlite3_result_text16le, symObjAddr: 0xB35C, symBinAddr: 0x1D794, symSize: 0x40 }
  - { offset: 0x5C362, size: 0x8, addend: 0x0, symName: _sqlite3_result_value, symObjAddr: 0xB39C, symBinAddr: 0x1D7D4, symSize: 0x30 }
  - { offset: 0x5C3A0, size: 0x8, addend: 0x0, symName: _sqlite3VdbeMemCopy, symObjAddr: 0xB3CC, symBinAddr: 0x1D804, symSize: 0xBC }
  - { offset: 0x5C3F4, size: 0x8, addend: 0x0, symName: _sqlite3_result_zeroblob, symObjAddr: 0xB488, symBinAddr: 0x1D8C0, symSize: 0x30 }
  - { offset: 0x5C432, size: 0x8, addend: 0x0, symName: _sqlite3VdbeMemSetZeroBlob, symObjAddr: 0xB4B8, symBinAddr: 0x1D8F0, symSize: 0x70 }
  - { offset: 0x5C470, size: 0x8, addend: 0x0, symName: _sqlite3_result_zeroblob64, symObjAddr: 0xB528, symBinAddr: 0x1D960, symSize: 0x74 }
  - { offset: 0x5C4C4, size: 0x8, addend: 0x0, symName: _sqlite3_result_error_code, symObjAddr: 0xB59C, symBinAddr: 0x1D9D4, symSize: 0x94 }
  - { offset: 0x5C502, size: 0x8, addend: 0x0, symName: _sqlite3_result_error_toobig, symObjAddr: 0xB70C, symBinAddr: 0x1DB44, symSize: 0x48 }
  - { offset: 0x5C52E, size: 0x8, addend: 0x0, symName: _sqlite3_result_error_nomem, symObjAddr: 0xB754, symBinAddr: 0x1DB8C, symSize: 0x44 }
  - { offset: 0x5C55A, size: 0x8, addend: 0x0, symName: _sqlite3OomFault, symObjAddr: 0xB798, symBinAddr: 0x1DBD0, symSize: 0xA8 }
  - { offset: 0x5C582, size: 0x8, addend: 0x0, symName: _sqlite3_step, symObjAddr: 0xB840, symBinAddr: 0x1DC78, symSize: 0x1A4 }
  - { offset: 0x5C63A, size: 0x8, addend: 0x0, symName: _vdbeSafetyNotNull, symObjAddr: 0xB9E4, symBinAddr: 0x1DE1C, symSize: 0x58 }
  - { offset: 0x5C66A, size: 0x8, addend: 0x0, symName: _sqlite3Step, symObjAddr: 0xBA3C, symBinAddr: 0x1DE74, symSize: 0x350 }
  - { offset: 0x5C6D1, size: 0x8, addend: 0x0, symName: _sqlite3Reprepare, symObjAddr: 0xBD8C, symBinAddr: 0x1E1C4, symSize: 0xD0 }
  - { offset: 0x5C75B, size: 0x8, addend: 0x0, symName: _sqlite3DbStrDup, symObjAddr: 0xBE5C, symBinAddr: 0x1E294, symSize: 0x88 }
  - { offset: 0x5C7B7, size: 0x8, addend: 0x0, symName: _sqlite3_user_data, symObjAddr: 0xBEE4, symBinAddr: 0x1E31C, symSize: 0x1C }
  - { offset: 0x5C7E7, size: 0x8, addend: 0x0, symName: _sqlite3_context_db_handle, symObjAddr: 0xBF00, symBinAddr: 0x1E338, symSize: 0x1C }
  - { offset: 0x5C817, size: 0x8, addend: 0x0, symName: _sqlite3_vtab_nochange, symObjAddr: 0xBF1C, symBinAddr: 0x1E354, symSize: 0x28 }
  - { offset: 0x5C847, size: 0x8, addend: 0x0, symName: _sqlite3_aggregate_context, symObjAddr: 0xBF44, symBinAddr: 0x1E37C, symSize: 0x60 }
  - { offset: 0x5C889, size: 0x8, addend: 0x0, symName: _createAggContext, symObjAddr: 0xBFA4, symBinAddr: 0x1E3DC, symSize: 0xB0 }
  - { offset: 0x5C8DD, size: 0x8, addend: 0x0, symName: _sqlite3_get_auxdata, symObjAddr: 0xC054, symBinAddr: 0x1E48C, symSize: 0xA4 }
  - { offset: 0x5C931, size: 0x8, addend: 0x0, symName: _sqlite3_set_auxdata, symObjAddr: 0xC0F8, symBinAddr: 0x1E530, symSize: 0x198 }
  - { offset: 0x5C9CA, size: 0x8, addend: 0x0, symName: _sqlite3DbMallocZero, symObjAddr: 0xC290, symBinAddr: 0x1E6C8, symSize: 0x58 }
  - { offset: 0x5CA16, size: 0x8, addend: 0x0, symName: _sqlite3_aggregate_count, symObjAddr: 0xC2E8, symBinAddr: 0x1E720, symSize: 0x1C }
  - { offset: 0x5CA46, size: 0x8, addend: 0x0, symName: _sqlite3_column_count, symObjAddr: 0xC304, symBinAddr: 0x1E73C, symSize: 0x44 }
  - { offset: 0x5CA88, size: 0x8, addend: 0x0, symName: _sqlite3_data_count, symObjAddr: 0xC348, symBinAddr: 0x1E780, symSize: 0x50 }
  - { offset: 0x5CACA, size: 0x8, addend: 0x0, symName: _sqlite3_column_blob, symObjAddr: 0xC398, symBinAddr: 0x1E7D0, symSize: 0x40 }
  - { offset: 0x5CB1E, size: 0x8, addend: 0x0, symName: _columnMem, symObjAddr: 0xC3D8, symBinAddr: 0x1E810, symSize: 0xD0 }
  - { offset: 0x5CB84, size: 0x8, addend: 0x0, symName: _columnMallocFailure, symObjAddr: 0xC4A8, symBinAddr: 0x1E8E0, symSize: 0x60 }
  - { offset: 0x5CBC2, size: 0x8, addend: 0x0, symName: _sqlite3_column_bytes, symObjAddr: 0xC508, symBinAddr: 0x1E940, symSize: 0x40 }
  - { offset: 0x5CC16, size: 0x8, addend: 0x0, symName: _sqlite3_column_bytes16, symObjAddr: 0xC548, symBinAddr: 0x1E980, symSize: 0x40 }
  - { offset: 0x5CC6A, size: 0x8, addend: 0x0, symName: _sqlite3_column_double, symObjAddr: 0xC588, symBinAddr: 0x1E9C0, symSize: 0x40 }
  - { offset: 0x5CCBE, size: 0x8, addend: 0x0, symName: _sqlite3_column_int, symObjAddr: 0xC5C8, symBinAddr: 0x1EA00, symSize: 0x40 }
  - { offset: 0x5CD12, size: 0x8, addend: 0x0, symName: _sqlite3_column_int64, symObjAddr: 0xC608, symBinAddr: 0x1EA40, symSize: 0x40 }
  - { offset: 0x5CD66, size: 0x8, addend: 0x0, symName: _sqlite3_column_text, symObjAddr: 0xC648, symBinAddr: 0x1EA80, symSize: 0x40 }
  - { offset: 0x5CDBA, size: 0x8, addend: 0x0, symName: _sqlite3_column_value, symObjAddr: 0xC688, symBinAddr: 0x1EAC0, symSize: 0x70 }
  - { offset: 0x5CE0E, size: 0x8, addend: 0x0, symName: _sqlite3_column_text16, symObjAddr: 0xC6F8, symBinAddr: 0x1EB30, symSize: 0x40 }
  - { offset: 0x5CE62, size: 0x8, addend: 0x0, symName: _sqlite3_column_type, symObjAddr: 0xC738, symBinAddr: 0x1EB70, symSize: 0x40 }
  - { offset: 0x5CEB6, size: 0x8, addend: 0x0, symName: _sqlite3_column_name, symObjAddr: 0xC778, symBinAddr: 0x1EBB0, symSize: 0x34 }
  - { offset: 0x5CEF8, size: 0x8, addend: 0x0, symName: _columnName, symObjAddr: 0xC7AC, symBinAddr: 0x1EBE4, symSize: 0x118 }
  - { offset: 0x5CFA6, size: 0x8, addend: 0x0, symName: _sqlite3_column_name16, symObjAddr: 0xC8C4, symBinAddr: 0x1ECFC, symSize: 0x34 }
  - { offset: 0x5CFE8, size: 0x8, addend: 0x0, symName: _sqlite3_column_decltype, symObjAddr: 0xC8F8, symBinAddr: 0x1ED30, symSize: 0x34 }
  - { offset: 0x5D02A, size: 0x8, addend: 0x0, symName: _sqlite3_column_decltype16, symObjAddr: 0xC92C, symBinAddr: 0x1ED64, symSize: 0x34 }
  - { offset: 0x5D06C, size: 0x8, addend: 0x0, symName: _sqlite3_bind_blob, symObjAddr: 0xC960, symBinAddr: 0x1ED98, symSize: 0x48 }
  - { offset: 0x5D0E4, size: 0x8, addend: 0x0, symName: _bindText, symObjAddr: 0xC9A8, symBinAddr: 0x1EDE0, symSize: 0x14C }
  - { offset: 0x5D1A4, size: 0x8, addend: 0x0, symName: _sqlite3_bind_blob64, symObjAddr: 0xCAF4, symBinAddr: 0x1EF2C, symSize: 0x84 }
  - { offset: 0x5D21C, size: 0x8, addend: 0x0, symName: _sqlite3_bind_double, symObjAddr: 0xCB78, symBinAddr: 0x1EFB0, symSize: 0x80 }
  - { offset: 0x5D294, size: 0x8, addend: 0x0, symName: _vdbeUnbind, symObjAddr: 0xCBF8, symBinAddr: 0x1F030, symSize: 0x1FC }
  - { offset: 0x5D2E8, size: 0x8, addend: 0x0, symName: _sqlite3_bind_int, symObjAddr: 0xCDF4, symBinAddr: 0x1F22C, symSize: 0x34 }
  - { offset: 0x5D33C, size: 0x8, addend: 0x0, symName: _sqlite3_bind_int64, symObjAddr: 0xCE28, symBinAddr: 0x1F260, symSize: 0x80 }
  - { offset: 0x5D3B4, size: 0x8, addend: 0x0, symName: _sqlite3_bind_null, symObjAddr: 0xCEA8, symBinAddr: 0x1F2E0, symSize: 0x5C }
  - { offset: 0x5D41A, size: 0x8, addend: 0x0, symName: _sqlite3_bind_pointer, symObjAddr: 0xCF04, symBinAddr: 0x1F33C, symSize: 0xB0 }
  - { offset: 0x5D4B6, size: 0x8, addend: 0x0, symName: _sqlite3_bind_text, symObjAddr: 0xCFB4, symBinAddr: 0x1F3EC, symSize: 0x48 }
  - { offset: 0x5D52E, size: 0x8, addend: 0x0, symName: _sqlite3_bind_text64, symObjAddr: 0xCFFC, symBinAddr: 0x1F434, symSize: 0xA4 }
  - { offset: 0x5D5B8, size: 0x8, addend: 0x0, symName: _sqlite3_bind_text16, symObjAddr: 0xD0A0, symBinAddr: 0x1F4D8, symSize: 0x48 }
  - { offset: 0x5D630, size: 0x8, addend: 0x0, symName: _sqlite3_bind_value, symObjAddr: 0xD0E8, symBinAddr: 0x1F520, symSize: 0x144 }
  - { offset: 0x5D696, size: 0x8, addend: 0x0, symName: _sqlite3_bind_zeroblob, symObjAddr: 0xD22C, symBinAddr: 0x1F664, symSize: 0x80 }
  - { offset: 0x5D70E, size: 0x8, addend: 0x0, symName: _sqlite3_bind_zeroblob64, symObjAddr: 0xD2AC, symBinAddr: 0x1F6E4, symSize: 0xA8 }
  - { offset: 0x5D786, size: 0x8, addend: 0x0, symName: _sqlite3_bind_parameter_count, symObjAddr: 0xD354, symBinAddr: 0x1F78C, symSize: 0x44 }
  - { offset: 0x5D7C8, size: 0x8, addend: 0x0, symName: _sqlite3_bind_parameter_name, symObjAddr: 0xD398, symBinAddr: 0x1F7D0, symSize: 0x58 }
  - { offset: 0x5D81C, size: 0x8, addend: 0x0, symName: _sqlite3VListNumToName, symObjAddr: 0xD3F0, symBinAddr: 0x1F828, symSize: 0xB4 }
  - { offset: 0x5D878, size: 0x8, addend: 0x0, symName: _sqlite3_bind_parameter_index, symObjAddr: 0xD4A4, symBinAddr: 0x1F8DC, symSize: 0x48 }
  - { offset: 0x5D8BA, size: 0x8, addend: 0x0, symName: _sqlite3VdbeParameterIndex, symObjAddr: 0xD4EC, symBinAddr: 0x1F924, symSize: 0x64 }
  - { offset: 0x5D90E, size: 0x8, addend: 0x0, symName: _sqlite3_transfer_bindings, symObjAddr: 0xD550, symBinAddr: 0x1F988, symSize: 0xC0 }
  - { offset: 0x5D974, size: 0x8, addend: 0x0, symName: _sqlite3TransferBindings, symObjAddr: 0xD610, symBinAddr: 0x1FA48, symSize: 0xB8 }
  - { offset: 0x5D9EC, size: 0x8, addend: 0x0, symName: _sqlite3_db_handle, symObjAddr: 0xD6C8, symBinAddr: 0x1FB00, symSize: 0x3C }
  - { offset: 0x5DA1C, size: 0x8, addend: 0x0, symName: _sqlite3_stmt_readonly, symObjAddr: 0xD704, symBinAddr: 0x1FB3C, symSize: 0x44 }
  - { offset: 0x5DA4C, size: 0x8, addend: 0x0, symName: _sqlite3_stmt_isexplain, symObjAddr: 0xD748, symBinAddr: 0x1FB80, symSize: 0x44 }
  - { offset: 0x5DA7C, size: 0x8, addend: 0x0, symName: _sqlite3_stmt_busy, symObjAddr: 0xD78C, symBinAddr: 0x1FBC4, symSize: 0x70 }
  - { offset: 0x5DABE, size: 0x8, addend: 0x0, symName: _sqlite3_next_stmt, symObjAddr: 0xD7FC, symBinAddr: 0x1FC34, symSize: 0x68 }
  - { offset: 0x5DB12, size: 0x8, addend: 0x0, symName: _sqlite3_stmt_status, symObjAddr: 0xD864, symBinAddr: 0x1FC9C, symSize: 0xD4 }
  - { offset: 0x5DBAA, size: 0x8, addend: 0x0, symName: _sqlite3_sql, symObjAddr: 0xD938, symBinAddr: 0x1FD70, symSize: 0x44 }
  - { offset: 0x5DBEC, size: 0x8, addend: 0x0, symName: _sqlite3_expanded_sql, symObjAddr: 0xD97C, symBinAddr: 0x1FDB4, symSize: 0x78 }
  - { offset: 0x5DC60, size: 0x8, addend: 0x0, symName: _sqlite3VdbeExpandSql, symObjAddr: 0xD9F4, symBinAddr: 0x1FE2C, symSize: 0x554 }
  - { offset: 0x5DDD8, size: 0x8, addend: 0x0, symName: _sqlite3_value_numeric_type, symObjAddr: 0xDF48, symBinAddr: 0x20380, symSize: 0x60 }
  - { offset: 0x5DE3A, size: 0x8, addend: 0x0, symName: _applyNumericAffinity, symObjAddr: 0xDFA8, symBinAddr: 0x203E0, symSize: 0xE8 }
  - { offset: 0x5DEAE, size: 0x8, addend: 0x0, symName: _sqlite3LocateTable, symObjAddr: 0xE818, symBinAddr: 0x20C50, symSize: 0x204 }
  - { offset: 0x5DF78, size: 0x8, addend: 0x0, symName: _sqlite3ErrorMsg, symObjAddr: 0xEA1C, symBinAddr: 0x20E54, symSize: 0xB8 }
  - { offset: 0x5DFE1, size: 0x8, addend: 0x0, symName: _sqlite3SchemaToIndex, symObjAddr: 0xEAD4, symBinAddr: 0x20F0C, symSize: 0x80 }
  - { offset: 0x5E035, size: 0x8, addend: 0x0, symName: _sqlite3MPrintf, symObjAddr: 0xEB54, symBinAddr: 0x20F8C, symSize: 0x44 }
  - { offset: 0x5E092, size: 0x8, addend: 0x0, symName: _sqlite3VdbeCreate, symObjAddr: 0xEB98, symBinAddr: 0x20FD0, symSize: 0x104 }
  - { offset: 0x5E0E6, size: 0x8, addend: 0x0, symName: _sqlite3VdbeAddOp4Int, symObjAddr: 0xEC9C, symBinAddr: 0x210D4, symSize: 0x9C }
  - { offset: 0x5E1A2, size: 0x8, addend: 0x0, symName: _sqlite3VdbeChangeP5, symObjAddr: 0xED38, symBinAddr: 0x21170, symSize: 0x50 }
  - { offset: 0x5E1E0, size: 0x8, addend: 0x0, symName: _sqlite3VdbeAddOpList, symObjAddr: 0xED88, symBinAddr: 0x211C0, symSize: 0x1A0 }
  - { offset: 0x5E27C, size: 0x8, addend: 0x0, symName: _sqlite3VdbeUsesBtree, symObjAddr: 0xEF28, symBinAddr: 0x21360, symSize: 0x90 }
  - { offset: 0x5E2BA, size: 0x8, addend: 0x0, symName: _sqlite3VdbeChangeP4, symObjAddr: 0xEFB8, symBinAddr: 0x213F0, symSize: 0x150 }
  - { offset: 0x5E340, size: 0x8, addend: 0x0, symName: _blobSeekToRow, symObjAddr: 0xF5A0, symBinAddr: 0x219D8, symSize: 0x2CC }
  - { offset: 0x5E3FC, size: 0x8, addend: 0x0, symName: _sqlite3ParserReset, symObjAddr: 0xF86C, symBinAddr: 0x21CA4, symSize: 0xF0 }
  - { offset: 0x5E46C, size: 0x8, addend: 0x0, symName: _sqlite3_blob_close, symObjAddr: 0xF95C, symBinAddr: 0x21D94, symSize: 0x88 }
  - { offset: 0x5E4F2, size: 0x8, addend: 0x0, symName: _sqlite3_blob_read, symObjAddr: 0xF9E4, symBinAddr: 0x21E1C, symSize: 0x44 }
  - { offset: 0x5E558, size: 0x8, addend: 0x0, symName: _blobReadWrite, symObjAddr: 0xFA28, symBinAddr: 0x21E60, symSize: 0x18C }
  - { offset: 0x5E618, size: 0x8, addend: 0x0, symName: _sqlite3BtreePayloadChecked, symObjAddr: 0xFBB4, symBinAddr: 0x21FEC, symSize: 0x78 }
  - { offset: 0x5E67E, size: 0x8, addend: 0x0, symName: _sqlite3_blob_write, symObjAddr: 0xFC2C, symBinAddr: 0x22064, symSize: 0x44 }
  - { offset: 0x5E6E4, size: 0x8, addend: 0x0, symName: _sqlite3BtreePutData, symObjAddr: 0xFC70, symBinAddr: 0x220A8, symSize: 0xEC }
  - { offset: 0x5E75C, size: 0x8, addend: 0x0, symName: _sqlite3_blob_bytes, symObjAddr: 0xFD5C, symBinAddr: 0x22194, symSize: 0x54 }
  - { offset: 0x5E79E, size: 0x8, addend: 0x0, symName: _sqlite3_blob_reopen, symObjAddr: 0xFDB0, symBinAddr: 0x221E8, symSize: 0x10C }
  - { offset: 0x5E836, size: 0x8, addend: 0x0, symName: _sqlite3_set_authorizer, symObjAddr: 0xFEBC, symBinAddr: 0x222F4, symSize: 0x78 }
  - { offset: 0x5E88A, size: 0x8, addend: 0x0, symName: _sqlite3ExpirePreparedStatements, symObjAddr: 0xFF34, symBinAddr: 0x2236C, symSize: 0x64 }
  - { offset: 0x5E8DA, size: 0x8, addend: 0x0, symName: _sqlite3_strglob, symObjAddr: 0xFF98, symBinAddr: 0x223D0, symSize: 0x38 }
  - { offset: 0x5E91C, size: 0x8, addend: 0x0, symName: _patternCompare, symObjAddr: 0xFFD0, symBinAddr: 0x22408, symSize: 0x768 }
  - { offset: 0x5EAA5, size: 0x8, addend: 0x0, symName: _sqlite3_strlike, symObjAddr: 0x10738, symBinAddr: 0x22B70, symSize: 0x3C }
  - { offset: 0x5EAF9, size: 0x8, addend: 0x0, symName: _sqlite3_exec, symObjAddr: 0x10774, symBinAddr: 0x22BAC, symSize: 0x468 }
  - { offset: 0x5EC30, size: 0x8, addend: 0x0, symName: _sqlite3SafetyCheckOk, symObjAddr: 0x10BDC, symBinAddr: 0x23014, symSize: 0x98 }
  - { offset: 0x5EC6C, size: 0x8, addend: 0x0, symName: _sqlite3_prepare_v2, symObjAddr: 0x10C74, symBinAddr: 0x230AC, symSize: 0x54 }
  - { offset: 0x5ECF6, size: 0x8, addend: 0x0, symName: _sqlite3DbMallocRaw, symObjAddr: 0x10CC8, symBinAddr: 0x23100, symSize: 0x5C }
  - { offset: 0x5ED42, size: 0x8, addend: 0x0, symName: _sqlite3_errmsg, symObjAddr: 0x10D24, symBinAddr: 0x2315C, symSize: 0x104 }
  - { offset: 0x5ED84, size: 0x8, addend: 0x0, symName: _sqlite3_load_extension, symObjAddr: 0x10E28, symBinAddr: 0x23260, symSize: 0x6C }
  - { offset: 0x5EDFC, size: 0x8, addend: 0x0, symName: _sqlite3_enable_load_extension, symObjAddr: 0x11500, symBinAddr: 0x23938, symSize: 0x70 }
  - { offset: 0x5EE3E, size: 0x8, addend: 0x0, symName: _sqlite3_auto_extension, symObjAddr: 0x11570, symBinAddr: 0x239A8, symSize: 0x160 }
  - { offset: 0x5EEE4, size: 0x8, addend: 0x0, symName: _sqlite3_cancel_auto_extension, symObjAddr: 0x116D0, symBinAddr: 0x23B08, symSize: 0xE0 }
  - { offset: 0x5EF4A, size: 0x8, addend: 0x0, symName: _sqlite3_reset_auto_extension, symObjAddr: 0x117B0, symBinAddr: 0x23BE8, symSize: 0x70 }
  - { offset: 0x5EF84, size: 0x8, addend: 0x0, symName: _sqlite3_prepare, symObjAddr: 0x11820, symBinAddr: 0x23C58, symSize: 0x54 }
  - { offset: 0x5F00E, size: 0x8, addend: 0x0, symName: _sqlite3LockAndPrepare, symObjAddr: 0x11874, symBinAddr: 0x23CAC, symSize: 0x15C }
  - { offset: 0x5F0CE, size: 0x8, addend: 0x0, symName: _sqlite3_prepare_v3, symObjAddr: 0x119D0, symBinAddr: 0x23E08, symSize: 0x64 }
  - { offset: 0x5F16A, size: 0x8, addend: 0x0, symName: _sqlite3_prepare16, symObjAddr: 0x11A34, symBinAddr: 0x23E6C, symSize: 0x50 }
  - { offset: 0x5F1F4, size: 0x8, addend: 0x0, symName: _sqlite3Prepare16, symObjAddr: 0x11A84, symBinAddr: 0x23EBC, symSize: 0x208 }
  - { offset: 0x5F306, size: 0x8, addend: 0x0, symName: _sqlite3_prepare16_v2, symObjAddr: 0x11C8C, symBinAddr: 0x240C4, symSize: 0x50 }
  - { offset: 0x5F390, size: 0x8, addend: 0x0, symName: _sqlite3_prepare16_v3, symObjAddr: 0x11CDC, symBinAddr: 0x24114, symSize: 0x60 }
  - { offset: 0x5F42C, size: 0x8, addend: 0x0, symName: _sqlite3_get_table, symObjAddr: 0x11D3C, symBinAddr: 0x24174, symSize: 0x280 }
  - { offset: 0x5F4FA, size: 0x8, addend: 0x0, symName: _sqlite3_get_table_cb, symObjAddr: 0x11FBC, symBinAddr: 0x243F4, symSize: 0x2E8 }
  - { offset: 0x5F5FB, size: 0x8, addend: 0x0, symName: _sqlite3_free_table, symObjAddr: 0x122A4, symBinAddr: 0x246DC, symSize: 0xA8 }
  - { offset: 0x5F659, size: 0x8, addend: 0x0, symName: _sqlite3_create_module, symObjAddr: 0x1234C, symBinAddr: 0x24784, symSize: 0x40 }
  - { offset: 0x5F6BF, size: 0x8, addend: 0x0, symName: _createModule, symObjAddr: 0x1238C, symBinAddr: 0x247C4, symSize: 0x9C }
  - { offset: 0x5F749, size: 0x8, addend: 0x0, symName: _sqlite3_create_module_v2, symObjAddr: 0x12428, symBinAddr: 0x24860, symSize: 0x44 }
  - { offset: 0x5F7C1, size: 0x8, addend: 0x0, symName: _sqlite3_drop_modules, symObjAddr: 0x1246C, symBinAddr: 0x248A4, symSize: 0x118 }
  - { offset: 0x5F867, size: 0x8, addend: 0x0, symName: _sqlite3_declare_vtab, symObjAddr: 0x12584, symBinAddr: 0x249BC, symSize: 0x2D0 }
  - { offset: 0x5F936, size: 0x8, addend: 0x0, symName: _sqlite3RunParser, symObjAddr: 0x12854, symBinAddr: 0x24C8C, symSize: 0x56C }
  - { offset: 0x5FA5D, size: 0x8, addend: 0x0, symName: _sqlite3PrimaryKeyIndex, symObjAddr: 0x12DC0, symBinAddr: 0x251F8, symSize: 0x78 }
  - { offset: 0x5FA9F, size: 0x8, addend: 0x0, symName: _sqlite3_vtab_config, symObjAddr: 0x12E60, symBinAddr: 0x25298, symSize: 0x12C }
  - { offset: 0x5FB18, size: 0x8, addend: 0x0, symName: _sqlite3_vtab_collation, symObjAddr: 0x12F8C, symBinAddr: 0x253C4, symSize: 0xFC }
  - { offset: 0x5FBC2, size: 0x8, addend: 0x0, symName: _sqlite3ExprCompareCollSeq, symObjAddr: 0x13088, symBinAddr: 0x254C0, symSize: 0x74 }
  - { offset: 0x5FC04, size: 0x8, addend: 0x0, symName: _sqlite3_keyword_name, symObjAddr: 0x130FC, symBinAddr: 0x25534, symSize: 0x88 }
  - { offset: 0x5FC58, size: 0x8, addend: 0x0, symName: _sqlite3_keyword_count, symObjAddr: 0x13184, symBinAddr: 0x255BC, symSize: 0x8 }
  - { offset: 0x5FC75, size: 0x8, addend: 0x0, symName: _sqlite3_keyword_check, symObjAddr: 0x1318C, symBinAddr: 0x255C4, symSize: 0x38 }
  - { offset: 0x5FCB7, size: 0x8, addend: 0x0, symName: _sqlite3KeywordCode, symObjAddr: 0x131C4, symBinAddr: 0x255FC, symSize: 0x3C }
  - { offset: 0x5FD0B, size: 0x8, addend: 0x0, symName: _sqlite3_complete16, symObjAddr: 0x13864, symBinAddr: 0x25C9C, symSize: 0xB4 }
  - { offset: 0x5FD71, size: 0x8, addend: 0x0, symName: _sqlite3ValueNew, symObjAddr: 0x13918, symBinAddr: 0x25D50, symSize: 0x58 }
  - { offset: 0x5FDB3, size: 0x8, addend: 0x0, symName: _sqlite3ValueSetStr, symObjAddr: 0x13970, symBinAddr: 0x25DA8, symSize: 0x54 }
  - { offset: 0x5FE27, size: 0x8, addend: 0x0, symName: _sqlite3_libversion, symObjAddr: 0x139C4, symBinAddr: 0x25DFC, symSize: 0xC }
  - { offset: 0x5FE44, size: 0x8, addend: 0x0, symName: _sqlite3_libversion_number, symObjAddr: 0x139D0, symBinAddr: 0x25E08, symSize: 0xC }
  - { offset: 0x5FE61, size: 0x8, addend: 0x0, symName: _sqlite3_threadsafe, symObjAddr: 0x139DC, symBinAddr: 0x25E14, symSize: 0x8 }
  - { offset: 0x5FE7E, size: 0x8, addend: 0x0, symName: _sqlite3MemoryBarrier, symObjAddr: 0x139E4, symBinAddr: 0x25E1C, symSize: 0x8 }
  - { offset: 0x5FE95, size: 0x8, addend: 0x0, symName: _sqlite3MallocInit, symObjAddr: 0x139EC, symBinAddr: 0x25E24, symSize: 0xF8 }
  - { offset: 0x5FEC1, size: 0x8, addend: 0x0, symName: _sqlite3PcacheInitialize, symObjAddr: 0x13B10, symBinAddr: 0x25F48, symSize: 0x40 }
  - { offset: 0x5FEDC, size: 0x8, addend: 0x0, symName: _sqlite3OsInit, symObjAddr: 0x13B50, symBinAddr: 0x25F88, symSize: 0x54 }
  - { offset: 0x5FF08, size: 0x8, addend: 0x0, symName: _sqlite3PCacheBufferSetup, symObjAddr: 0x13BA4, symBinAddr: 0x25FDC, symSize: 0x138 }
  - { offset: 0x5FF6E, size: 0x8, addend: 0x0, symName: _sqlite3_shutdown, symObjAddr: 0x13CDC, symBinAddr: 0x26114, symSize: 0xC8 }
  - { offset: 0x5FF8B, size: 0x8, addend: 0x0, symName: _sqlite3PcacheShutdown, symObjAddr: 0x13DA4, symBinAddr: 0x261DC, symSize: 0x3C }
  - { offset: 0x5FFA2, size: 0x8, addend: 0x0, symName: _sqlite3MallocEnd, symObjAddr: 0x13DE0, symBinAddr: 0x26218, symSize: 0x50 }
  - { offset: 0x5FFB9, size: 0x8, addend: 0x0, symName: _sqlite3MutexEnd, symObjAddr: 0x13E30, symBinAddr: 0x26268, symSize: 0x4C }
  - { offset: 0x5FFE5, size: 0x8, addend: 0x0, symName: _sqlite3_config, symObjAddr: 0x13E7C, symBinAddr: 0x262B4, symSize: 0x520 }
  - { offset: 0x6006C, size: 0x8, addend: 0x0, symName: _sqlite3HeaderSizeBtree, symObjAddr: 0x14438, symBinAddr: 0x26870, symSize: 0x8 }
  - { offset: 0x60089, size: 0x8, addend: 0x0, symName: _sqlite3HeaderSizePcache, symObjAddr: 0x14440, symBinAddr: 0x26878, symSize: 0x8 }
  - { offset: 0x600A4, size: 0x8, addend: 0x0, symName: _sqlite3HeaderSizePcache1, symObjAddr: 0x14448, symBinAddr: 0x26880, symSize: 0x8 }
  - { offset: 0x600BF, size: 0x8, addend: 0x0, symName: _sqlite3_db_mutex, symObjAddr: 0x14480, symBinAddr: 0x268B8, symSize: 0x18 }
  - { offset: 0x600EF, size: 0x8, addend: 0x0, symName: _sqlite3_db_release_memory, symObjAddr: 0x14498, symBinAddr: 0x268D0, symSize: 0xB8 }
  - { offset: 0x60171, size: 0x8, addend: 0x0, symName: _sqlite3PagerShrink, symObjAddr: 0x14550, symBinAddr: 0x26988, symSize: 0x28 }
  - { offset: 0x60199, size: 0x8, addend: 0x0, symName: _sqlite3_db_cacheflush, symObjAddr: 0x14578, symBinAddr: 0x269B0, symSize: 0x14C }
  - { offset: 0x6023F, size: 0x8, addend: 0x0, symName: _sqlite3PagerFlush, symObjAddr: 0x146C4, symBinAddr: 0x26AFC, symSize: 0xC4 }
  - { offset: 0x602B7, size: 0x8, addend: 0x0, symName: _setupLookaside, symObjAddr: 0x14A08, symBinAddr: 0x26E40, symSize: 0x3D0 }
  - { offset: 0x60397, size: 0x8, addend: 0x0, symName: _sqlite3_last_insert_rowid, symObjAddr: 0x14DD8, symBinAddr: 0x27210, symSize: 0x18 }
  - { offset: 0x603C7, size: 0x8, addend: 0x0, symName: _sqlite3_set_last_insert_rowid, symObjAddr: 0x14DF0, symBinAddr: 0x27228, symSize: 0x44 }
  - { offset: 0x60405, size: 0x8, addend: 0x0, symName: _sqlite3_changes, symObjAddr: 0x14E34, symBinAddr: 0x2726C, symSize: 0x18 }
  - { offset: 0x60435, size: 0x8, addend: 0x0, symName: _sqlite3_total_changes, symObjAddr: 0x14E4C, symBinAddr: 0x27284, symSize: 0x18 }
  - { offset: 0x60465, size: 0x8, addend: 0x0, symName: _sqlite3_txn_state, symObjAddr: 0x14E64, symBinAddr: 0x2729C, symSize: 0x130 }
  - { offset: 0x6050F, size: 0x8, addend: 0x0, symName: _sqlite3FindDbName, symObjAddr: 0x14F94, symBinAddr: 0x273CC, symSize: 0xD4 }
  - { offset: 0x60583, size: 0x8, addend: 0x0, symName: _sqlite3_close, symObjAddr: 0x15068, symBinAddr: 0x274A0, symSize: 0x28 }
  - { offset: 0x605B3, size: 0x8, addend: 0x0, symName: _sqlite3Close, symObjAddr: 0x15090, symBinAddr: 0x274C8, symSize: 0x118 }
  - { offset: 0x605F5, size: 0x8, addend: 0x0, symName: _sqlite3_close_v2, symObjAddr: 0x151A8, symBinAddr: 0x275E0, symSize: 0x28 }
  - { offset: 0x60625, size: 0x8, addend: 0x0, symName: _sqlite3_busy_handler, symObjAddr: 0x151D0, symBinAddr: 0x27608, symSize: 0x70 }
  - { offset: 0x60679, size: 0x8, addend: 0x0, symName: _sqlite3_progress_handler, symObjAddr: 0x15240, symBinAddr: 0x27678, symSize: 0x94 }
  - { offset: 0x606DB, size: 0x8, addend: 0x0, symName: _sqlite3_busy_timeout, symObjAddr: 0x152D4, symBinAddr: 0x2770C, symSize: 0x6C }
  - { offset: 0x6071D, size: 0x8, addend: 0x0, symName: _sqliteDefaultBusyCallback, symObjAddr: 0x15340, symBinAddr: 0x27778, symSize: 0x80 }
  - { offset: 0x60783, size: 0x8, addend: 0x0, symName: _sqlite3_interrupt, symObjAddr: 0x153C0, symBinAddr: 0x277F8, symSize: 0x24 }
  - { offset: 0x607AF, size: 0x8, addend: 0x0, symName: _sqlite3_create_function, symObjAddr: 0x153E4, symBinAddr: 0x2781C, symSize: 0x6C }
  - { offset: 0x6085D, size: 0x8, addend: 0x0, symName: _createFunctionApi, symObjAddr: 0x15450, symBinAddr: 0x27888, symSize: 0x164 }
  - { offset: 0x60979, size: 0x8, addend: 0x0, symName: _sqlite3_create_function_v2, symObjAddr: 0x155B4, symBinAddr: 0x279EC, symSize: 0x78 }
  - { offset: 0x60A39, size: 0x8, addend: 0x0, symName: _sqlite3_create_window_function, symObjAddr: 0x1562C, symBinAddr: 0x27A64, symSize: 0x88 }
  - { offset: 0x60B0B, size: 0x8, addend: 0x0, symName: _sqlite3_create_function16, symObjAddr: 0x156B4, symBinAddr: 0x27AEC, symSize: 0xC0 }
  - { offset: 0x60BDD, size: 0x8, addend: 0x0, symName: _sqlite3Utf16to8, symObjAddr: 0x15774, symBinAddr: 0x27BAC, symSize: 0x8C }
  - { offset: 0x60C49, size: 0x8, addend: 0x0, symName: _sqlite3CreateFunc, symObjAddr: 0x15800, symBinAddr: 0x27C38, symSize: 0x3E8 }
  - { offset: 0x60D85, size: 0x8, addend: 0x0, symName: _sqlite3_overload_function, symObjAddr: 0x15BE8, symBinAddr: 0x28020, symSize: 0xDC }
  - { offset: 0x60DFD, size: 0x8, addend: 0x0, symName: _sqlite3FindFunction, symObjAddr: 0x15CC4, symBinAddr: 0x280FC, symSize: 0x300 }
  - { offset: 0x60F41, size: 0x8, addend: 0x0, symName: _sqlite3InvalidFunction, symObjAddr: 0x15FC4, symBinAddr: 0x283FC, symSize: 0x64 }
  - { offset: 0x60FB5, size: 0x8, addend: 0x0, symName: _sqlite3_trace, symObjAddr: 0x16028, symBinAddr: 0x28460, symSize: 0x80 }
  - { offset: 0x6101B, size: 0x8, addend: 0x0, symName: _sqlite3_trace_v2, symObjAddr: 0x160A8, symBinAddr: 0x284E0, symSize: 0x90 }
  - { offset: 0x61081, size: 0x8, addend: 0x0, symName: _sqlite3_profile, symObjAddr: 0x16138, symBinAddr: 0x28570, symSize: 0x98 }
  - { offset: 0x610E7, size: 0x8, addend: 0x0, symName: _sqlite3_commit_hook, symObjAddr: 0x161D0, symBinAddr: 0x28608, symSize: 0x64 }
  - { offset: 0x6114D, size: 0x8, addend: 0x0, symName: _sqlite3_update_hook, symObjAddr: 0x16234, symBinAddr: 0x2866C, symSize: 0x64 }
  - { offset: 0x611B3, size: 0x8, addend: 0x0, symName: _sqlite3_rollback_hook, symObjAddr: 0x16298, symBinAddr: 0x286D0, symSize: 0x64 }
  - { offset: 0x61219, size: 0x8, addend: 0x0, symName: _sqlite3_wal_autocheckpoint, symObjAddr: 0x162FC, symBinAddr: 0x28734, symSize: 0x60 }
  - { offset: 0x6125B, size: 0x8, addend: 0x0, symName: _sqlite3_wal_hook, symObjAddr: 0x1635C, symBinAddr: 0x28794, symSize: 0x64 }
  - { offset: 0x612C1, size: 0x8, addend: 0x0, symName: _sqlite3WalDefaultHook, symObjAddr: 0x163C0, symBinAddr: 0x287F8, symSize: 0x58 }
  - { offset: 0x61327, size: 0x8, addend: 0x0, symName: _sqlite3_wal_checkpoint_v2, symObjAddr: 0x16418, symBinAddr: 0x28850, symSize: 0x188 }
  - { offset: 0x613C3, size: 0x8, addend: 0x0, symName: _sqlite3Checkpoint, symObjAddr: 0x165A0, symBinAddr: 0x289D8, symSize: 0x13C }
  - { offset: 0x61471, size: 0x8, addend: 0x0, symName: _sqlite3_wal_checkpoint, symObjAddr: 0x166DC, symBinAddr: 0x28B14, symSize: 0x38 }
  - { offset: 0x614B3, size: 0x8, addend: 0x0, symName: _sqlite3SafetyCheckSickOrOk, symObjAddr: 0x16714, symBinAddr: 0x28B4C, symSize: 0x94 }
  - { offset: 0x614EF, size: 0x8, addend: 0x0, symName: _sqlite3OomClear, symObjAddr: 0x168B4, symBinAddr: 0x28CEC, symSize: 0x94 }
  - { offset: 0x61517, size: 0x8, addend: 0x0, symName: _sqlite3_errcode, symObjAddr: 0x16948, symBinAddr: 0x28D80, symSize: 0x94 }
  - { offset: 0x61547, size: 0x8, addend: 0x0, symName: _sqlite3_extended_errcode, symObjAddr: 0x169DC, symBinAddr: 0x28E14, symSize: 0x88 }
  - { offset: 0x61577, size: 0x8, addend: 0x0, symName: _sqlite3_system_errno, symObjAddr: 0x16A64, symBinAddr: 0x28E9C, symSize: 0x3C }
  - { offset: 0x615A7, size: 0x8, addend: 0x0, symName: _sqlite3_errstr, symObjAddr: 0x16AA0, symBinAddr: 0x28ED8, symSize: 0x24 }
  - { offset: 0x615D7, size: 0x8, addend: 0x0, symName: _sqlite3_limit, symObjAddr: 0x16AC4, symBinAddr: 0x28EFC, symSize: 0xC0 }
  - { offset: 0x6163D, size: 0x8, addend: 0x0, symName: _sqlite3_open, symObjAddr: 0x16B84, symBinAddr: 0x28FBC, symSize: 0x34 }
  - { offset: 0x6167F, size: 0x8, addend: 0x0, symName: _openDatabase, symObjAddr: 0x16BB8, symBinAddr: 0x28FF0, symSize: 0x6F0 }
  - { offset: 0x61766, size: 0x8, addend: 0x0, symName: _sqlite3_open_v2, symObjAddr: 0x172A8, symBinAddr: 0x296E0, symSize: 0x3C }
  - { offset: 0x617CC, size: 0x8, addend: 0x0, symName: _sqlite3_open16, symObjAddr: 0x172E4, symBinAddr: 0x2971C, symSize: 0x140 }
  - { offset: 0x61844, size: 0x8, addend: 0x0, symName: _sqlite3_create_collation, symObjAddr: 0x17424, symBinAddr: 0x2985C, symSize: 0x48 }
  - { offset: 0x618BC, size: 0x8, addend: 0x0, symName: _sqlite3_create_collation_v2, symObjAddr: 0x1746C, symBinAddr: 0x298A4, symSize: 0x80 }
  - { offset: 0x61958, size: 0x8, addend: 0x0, symName: _createCollation, symObjAddr: 0x174EC, symBinAddr: 0x29924, symSize: 0x264 }
  - { offset: 0x61A58, size: 0x8, addend: 0x0, symName: _sqlite3_create_collation16, symObjAddr: 0x17750, symBinAddr: 0x29B88, symSize: 0xB4 }
  - { offset: 0x61AF4, size: 0x8, addend: 0x0, symName: _sqlite3_collation_needed, symObjAddr: 0x17804, symBinAddr: 0x29C3C, symSize: 0x60 }
  - { offset: 0x61B48, size: 0x8, addend: 0x0, symName: _sqlite3_collation_needed16, symObjAddr: 0x17864, symBinAddr: 0x29C9C, symSize: 0x60 }
  - { offset: 0x61B9C, size: 0x8, addend: 0x0, symName: _sqlite3_global_recover, symObjAddr: 0x178C4, symBinAddr: 0x29CFC, symSize: 0x8 }
  - { offset: 0x61BB9, size: 0x8, addend: 0x0, symName: _sqlite3_get_autocommit, symObjAddr: 0x178CC, symBinAddr: 0x29D04, symSize: 0x18 }
  - { offset: 0x61BE9, size: 0x8, addend: 0x0, symName: _sqlite3_thread_cleanup, symObjAddr: 0x178E4, symBinAddr: 0x29D1C, symSize: 0x4 }
  - { offset: 0x61C02, size: 0x8, addend: 0x0, symName: _sqlite3_table_column_metadata, symObjAddr: 0x178E8, symBinAddr: 0x29D20, symSize: 0x424 }
  - { offset: 0x61D91, size: 0x8, addend: 0x0, symName: _sqlite3Init, symObjAddr: 0x17D0C, symBinAddr: 0x2A144, symSize: 0x158 }
  - { offset: 0x61E09, size: 0x8, addend: 0x0, symName: _sqlite3FindTable, symObjAddr: 0x17E64, symBinAddr: 0x2A29C, symSize: 0x3B0 }
  - { offset: 0x61E81, size: 0x8, addend: 0x0, symName: _sqlite3IsRowid, symObjAddr: 0x18214, symBinAddr: 0x2A64C, symSize: 0x94 }
  - { offset: 0x61EB1, size: 0x8, addend: 0x0, symName: _sqlite3ColumnType, symObjAddr: 0x182A8, symBinAddr: 0x2A6E0, symSize: 0x6C }
  - { offset: 0x61EED, size: 0x8, addend: 0x0, symName: _sqlite3_sleep, symObjAddr: 0x18314, symBinAddr: 0x2A74C, symSize: 0x70 }
  - { offset: 0x61F41, size: 0x8, addend: 0x0, symName: _sqlite3OsSleep, symObjAddr: 0x18384, symBinAddr: 0x2A7BC, symSize: 0x34 }
  - { offset: 0x61F7D, size: 0x8, addend: 0x0, symName: _sqlite3_extended_result_codes, symObjAddr: 0x183B8, symBinAddr: 0x2A7F0, symSize: 0x5C }
  - { offset: 0x61FBF, size: 0x8, addend: 0x0, symName: _sqlite3_file_control, symObjAddr: 0x18414, symBinAddr: 0x2A84C, symSize: 0x1D8 }
  - { offset: 0x620BB, size: 0x8, addend: 0x0, symName: _sqlite3DbNameToBtree, symObjAddr: 0x185EC, symBinAddr: 0x2AA24, symSize: 0x8C }
  - { offset: 0x6210F, size: 0x8, addend: 0x0, symName: _sqlite3PagerVfs, symObjAddr: 0x18678, symBinAddr: 0x2AAB0, symSize: 0x18 }
  - { offset: 0x6213B, size: 0x8, addend: 0x0, symName: _sqlite3PagerJrnlFile, symObjAddr: 0x18690, symBinAddr: 0x2AAC8, symSize: 0x54 }
  - { offset: 0x62167, size: 0x8, addend: 0x0, symName: _sqlite3PagerDataVersion, symObjAddr: 0x186E4, symBinAddr: 0x2AB1C, symSize: 0x18 }
  - { offset: 0x62193, size: 0x8, addend: 0x0, symName: _sqlite3BtreeGetRequestedReserve, symObjAddr: 0x186FC, symBinAddr: 0x2AB34, symSize: 0x78 }
  - { offset: 0x621E7, size: 0x8, addend: 0x0, symName: _sqlite3BtreeSetPageSize, symObjAddr: 0x18774, symBinAddr: 0x2ABAC, symSize: 0x164 }
  - { offset: 0x62283, size: 0x8, addend: 0x0, symName: _sqlite3OsFileControl, symObjAddr: 0x188D8, symBinAddr: 0x2AD10, symSize: 0x68 }
  - { offset: 0x622CF, size: 0x8, addend: 0x0, symName: _sqlite3_test_control, symObjAddr: 0x18940, symBinAddr: 0x2AD78, symSize: 0x550 }
  - { offset: 0x62519, size: 0x8, addend: 0x0, symName: _sqlite3PrngSaveState, symObjAddr: 0x18EF8, symBinAddr: 0x2B330, symSize: 0x28 }
  - { offset: 0x62530, size: 0x8, addend: 0x0, symName: _sqlite3PrngRestoreState, symObjAddr: 0x18F20, symBinAddr: 0x2B358, symSize: 0x28 }
  - { offset: 0x62547, size: 0x8, addend: 0x0, symName: _sqlite3BitvecBuiltinTest, symObjAddr: 0x18F48, symBinAddr: 0x2B380, symSize: 0x3A8 }
  - { offset: 0x62614, size: 0x8, addend: 0x0, symName: _sqlite3FaultSim, symObjAddr: 0x192F0, symBinAddr: 0x2B728, symSize: 0x5C }
  - { offset: 0x62650, size: 0x8, addend: 0x0, symName: _sqlite3BenignMallocHooks, symObjAddr: 0x1934C, symBinAddr: 0x2B784, symSize: 0x30 }
  - { offset: 0x62688, size: 0x8, addend: 0x0, symName: _sqlite3ResultIntReal, symObjAddr: 0x1937C, symBinAddr: 0x2B7B4, symSize: 0x50 }
  - { offset: 0x626B4, size: 0x8, addend: 0x0, symName: _sqlite3_create_filename, symObjAddr: 0x193CC, symBinAddr: 0x2B804, symSize: 0x1BC }
  - { offset: 0x62774, size: 0x8, addend: 0x0, symName: _appendText, symObjAddr: 0x19588, symBinAddr: 0x2B9C0, symSize: 0x54 }
  - { offset: 0x627C8, size: 0x8, addend: 0x0, symName: _sqlite3_free_filename, symObjAddr: 0x195DC, symBinAddr: 0x2BA14, symSize: 0x48 }
  - { offset: 0x627F4, size: 0x8, addend: 0x0, symName: _databaseName, symObjAddr: 0x19624, symBinAddr: 0x2BA5C, symSize: 0x94 }
  - { offset: 0x62824, size: 0x8, addend: 0x0, symName: _sqlite3_uri_parameter, symObjAddr: 0x196B8, symBinAddr: 0x2BAF0, symSize: 0x64 }
  - { offset: 0x62866, size: 0x8, addend: 0x0, symName: _uriParameter, symObjAddr: 0x1971C, symBinAddr: 0x2BB54, symSize: 0xB4 }
  - { offset: 0x628C8, size: 0x8, addend: 0x0, symName: _sqlite3_uri_key, symObjAddr: 0x197D0, symBinAddr: 0x2BC08, symSize: 0x114 }
  - { offset: 0x6290A, size: 0x8, addend: 0x0, symName: _sqlite3_uri_boolean, symObjAddr: 0x198E4, symBinAddr: 0x2BD1C, symSize: 0x78 }
  - { offset: 0x62970, size: 0x8, addend: 0x0, symName: _sqlite3GetBoolean, symObjAddr: 0x1995C, symBinAddr: 0x2BD94, symSize: 0x38 }
  - { offset: 0x629B2, size: 0x8, addend: 0x0, symName: _sqlite3_uri_int64, symObjAddr: 0x19994, symBinAddr: 0x2BDCC, symSize: 0x64 }
  - { offset: 0x62A2A, size: 0x8, addend: 0x0, symName: _sqlite3DecOrHexToI64, symObjAddr: 0x199F8, symBinAddr: 0x2BE30, symSize: 0x1B4 }
  - { offset: 0x62AA4, size: 0x8, addend: 0x0, symName: _sqlite3_filename_database, symObjAddr: 0x19BAC, symBinAddr: 0x2BFE4, symSize: 0x24 }
  - { offset: 0x62AD4, size: 0x8, addend: 0x0, symName: _sqlite3_filename_journal, symObjAddr: 0x19BD0, symBinAddr: 0x2C008, symSize: 0x90 }
  - { offset: 0x62B04, size: 0x8, addend: 0x0, symName: _sqlite3_filename_wal, symObjAddr: 0x19C60, symBinAddr: 0x2C098, symSize: 0x44 }
  - { offset: 0x62B34, size: 0x8, addend: 0x0, symName: _sqlite3_db_filename, symObjAddr: 0x19CA4, symBinAddr: 0x2C0DC, symSize: 0x5C }
  - { offset: 0x62B88, size: 0x8, addend: 0x0, symName: _sqlite3BtreeGetFilename, symObjAddr: 0x19D00, symBinAddr: 0x2C138, symSize: 0x30 }
  - { offset: 0x62BB8, size: 0x8, addend: 0x0, symName: _sqlite3_db_readonly, symObjAddr: 0x19D30, symBinAddr: 0x2C168, symSize: 0x5C }
  - { offset: 0x62C0C, size: 0x8, addend: 0x0, symName: _sqlite3BtreeIsReadonly, symObjAddr: 0x19D8C, symBinAddr: 0x2C1C4, symSize: 0x24 }
  - { offset: 0x62C3C, size: 0x8, addend: 0x0, symName: _sqlite3_compileoption_used, symObjAddr: 0x19DB0, symBinAddr: 0x2C1E8, symSize: 0xE8 }
  - { offset: 0x62CB4, size: 0x8, addend: 0x0, symName: _sqlite3CompileOptions, symObjAddr: 0x19E98, symBinAddr: 0x2C2D0, symSize: 0x24 }
  - { offset: 0x62CE0, size: 0x8, addend: 0x0, symName: _sqlite3IsIdChar, symObjAddr: 0x19EBC, symBinAddr: 0x2C2F4, symSize: 0x30 }
  - { offset: 0x62D10, size: 0x8, addend: 0x0, symName: _sqlite3_compileoption_get, symObjAddr: 0x19EEC, symBinAddr: 0x2C324, symSize: 0x68 }
  - { offset: 0x62D64, size: 0x8, addend: 0x0, symName: _sqlite3_rtree_geometry_callback, symObjAddr: 0x19F54, symBinAddr: 0x2C38C, symSize: 0xB8 }
  - { offset: 0x62DDC, size: 0x8, addend: 0x0, symName: _geomCallback, symObjAddr: 0x1A00C, symBinAddr: 0x2C444, symSize: 0x19C }
  - { offset: 0x62E94, size: 0x8, addend: 0x0, symName: _rtreeFreeCallback, symObjAddr: 0x1A1A8, symBinAddr: 0x2C5E0, symSize: 0x54 }
  - { offset: 0x62ED2, size: 0x8, addend: 0x0, symName: _sqlite3_rtree_query_callback, symObjAddr: 0x1A1FC, symBinAddr: 0x2C634, symSize: 0xC0 }
  - { offset: 0x62F5C, size: 0x8, addend: 0x0, symName: _sqlite3_sourceid, symObjAddr: 0x1A2BC, symBinAddr: 0x2C6F4, symSize: 0xC }
  - { offset: 0x62F79, size: 0x8, addend: 0x0, symName: _countLookasideSlots, symObjAddr: 0x1A2C8, symBinAddr: 0x2C700, symSize: 0x44 }
  - { offset: 0x62FB5, size: 0x8, addend: 0x0, symName: _pthreadMutexInit, symObjAddr: 0x1A324, symBinAddr: 0x2C75C, symSize: 0x8 }
  - { offset: 0x62FD0, size: 0x8, addend: 0x0, symName: _pthreadMutexEnd, symObjAddr: 0x1A32C, symBinAddr: 0x2C764, symSize: 0x8 }
  - { offset: 0x62FEB, size: 0x8, addend: 0x0, symName: _pthreadMutexFree, symObjAddr: 0x1A448, symBinAddr: 0x2C880, symSize: 0x2C }
  - { offset: 0x63013, size: 0x8, addend: 0x0, symName: _pthreadMutexEnter, symObjAddr: 0x1A474, symBinAddr: 0x2C8AC, symSize: 0x24 }
  - { offset: 0x6303B, size: 0x8, addend: 0x0, symName: _pthreadMutexTry, symObjAddr: 0x1A498, symBinAddr: 0x2C8D0, symSize: 0x44 }
  - { offset: 0x63077, size: 0x8, addend: 0x0, symName: _pthreadMutexLeave, symObjAddr: 0x1A4DC, symBinAddr: 0x2C914, symSize: 0x24 }
  - { offset: 0x6309F, size: 0x8, addend: 0x0, symName: _noopMutexInit, symObjAddr: 0x1A500, symBinAddr: 0x2C938, symSize: 0x8 }
  - { offset: 0x630BA, size: 0x8, addend: 0x0, symName: _noopMutexEnd, symObjAddr: 0x1A508, symBinAddr: 0x2C940, symSize: 0x8 }
  - { offset: 0x630D5, size: 0x8, addend: 0x0, symName: _noopMutexAlloc, symObjAddr: 0x1A510, symBinAddr: 0x2C948, symSize: 0x14 }
  - { offset: 0x63101, size: 0x8, addend: 0x0, symName: _noopMutexFree, symObjAddr: 0x1A524, symBinAddr: 0x2C95C, symSize: 0x10 }
  - { offset: 0x63129, size: 0x8, addend: 0x0, symName: _noopMutexEnter, symObjAddr: 0x1A534, symBinAddr: 0x2C96C, symSize: 0x10 }
  - { offset: 0x63151, size: 0x8, addend: 0x0, symName: _noopMutexTry, symObjAddr: 0x1A544, symBinAddr: 0x2C97C, symSize: 0x14 }
  - { offset: 0x6317D, size: 0x8, addend: 0x0, symName: _noopMutexLeave, symObjAddr: 0x1A558, symBinAddr: 0x2C990, symSize: 0x10 }
  - { offset: 0x631A5, size: 0x8, addend: 0x0, symName: _mallocWithAlarm, symObjAddr: 0x1A568, symBinAddr: 0x2C9A0, symSize: 0x184 }
  - { offset: 0x6321B, size: 0x8, addend: 0x0, symName: _sqlite3StatusHighwater, symObjAddr: 0x1A6EC, symBinAddr: 0x2CB24, symSize: 0x5C }
  - { offset: 0x63263, size: 0x8, addend: 0x0, symName: _sqlite3MallocAlarm, symObjAddr: 0x1A748, symBinAddr: 0x2CB80, symSize: 0x60 }
  - { offset: 0x6328B, size: 0x8, addend: 0x0, symName: _sqlite3StatusUp, symObjAddr: 0x1A7A8, symBinAddr: 0x2CBE0, symSize: 0x70 }
  - { offset: 0x632C3, size: 0x8, addend: 0x0, symName: _sqlite3DbFreeNN, symObjAddr: 0x1A818, symBinAddr: 0x2CC50, symSize: 0xF8 }
  - { offset: 0x63337, size: 0x8, addend: 0x0, symName: _measureAllocationSize, symObjAddr: 0x1A910, symBinAddr: 0x2CD48, symSize: 0x40 }
  - { offset: 0x6336F, size: 0x8, addend: 0x0, symName: _setStrAccumError, symObjAddr: 0x1A950, symBinAddr: 0x2CD88, symSize: 0x6C }
  - { offset: 0x633A7, size: 0x8, addend: 0x0, symName: _sqlite3ErrorToParser, symObjAddr: 0x1A9BC, symBinAddr: 0x2CDF4, symSize: 0x6C }
  - { offset: 0x633F3, size: 0x8, addend: 0x0, symName: _sqlite3DbRealloc, symObjAddr: 0x1AA28, symBinAddr: 0x2CE60, symSize: 0xF8 }
  - { offset: 0x6343F, size: 0x8, addend: 0x0, symName: _sqlite3DbMallocRawNN, symObjAddr: 0x1AB20, symBinAddr: 0x2CF58, symSize: 0x1D4 }
  - { offset: 0x6348B, size: 0x8, addend: 0x0, symName: _dbReallocFinish, symObjAddr: 0x1ACF4, symBinAddr: 0x2D12C, symSize: 0xE8 }
  - { offset: 0x634E7, size: 0x8, addend: 0x0, symName: _dbMallocRawFinish, symObjAddr: 0x1ADDC, symBinAddr: 0x2D214, symSize: 0x48 }
  - { offset: 0x63533, size: 0x8, addend: 0x0, symName: _isLookaside, symObjAddr: 0x1AE24, symBinAddr: 0x2D25C, symSize: 0x58 }
  - { offset: 0x6356F, size: 0x8, addend: 0x0, symName: _lookasideMallocSize, symObjAddr: 0x1AE7C, symBinAddr: 0x2D2B4, symSize: 0x4C }
  - { offset: 0x635AB, size: 0x8, addend: 0x0, symName: _strAccumFinishRealloc, symObjAddr: 0x1AEC8, symBinAddr: 0x2D300, symSize: 0xA8 }
  - { offset: 0x635E7, size: 0x8, addend: 0x0, symName: _unixClose, symObjAddr: 0x1B13C, symBinAddr: 0x2D574, symSize: 0xA4 }
  - { offset: 0x63643, size: 0x8, addend: 0x0, symName: _unixRead, symObjAddr: 0x1B1E0, symBinAddr: 0x2D618, symSize: 0x1DC }
  - { offset: 0x636DD, size: 0x8, addend: 0x0, symName: _unixWrite, symObjAddr: 0x1B3BC, symBinAddr: 0x2D7F4, symSize: 0x120 }
  - { offset: 0x63759, size: 0x8, addend: 0x0, symName: _unixTruncate, symObjAddr: 0x1B4DC, symBinAddr: 0x2D914, symSize: 0x104 }
  - { offset: 0x637B5, size: 0x8, addend: 0x0, symName: _unixSync, symObjAddr: 0x1B5E0, symBinAddr: 0x2DA18, symSize: 0x138 }
  - { offset: 0x6384F, size: 0x8, addend: 0x0, symName: _unixFileSize, symObjAddr: 0x1B718, symBinAddr: 0x2DB50, symSize: 0xAC }
  - { offset: 0x638AB, size: 0x8, addend: 0x0, symName: _unixLock, symObjAddr: 0x1B7C4, symBinAddr: 0x2DBFC, symSize: 0x44C }
  - { offset: 0x63948, size: 0x8, addend: 0x0, symName: _unixUnlock, symObjAddr: 0x1BC10, symBinAddr: 0x2E048, symSize: 0x30 }
  - { offset: 0x63984, size: 0x8, addend: 0x0, symName: _unixCheckReservedLock, symObjAddr: 0x1BC40, symBinAddr: 0x2E078, symSize: 0x14C }
  - { offset: 0x63A0E, size: 0x8, addend: 0x0, symName: _unixFileControl, symObjAddr: 0x1BD8C, symBinAddr: 0x2E1C4, symSize: 0x334 }
  - { offset: 0x63AD4, size: 0x8, addend: 0x0, symName: _unixSectorSize, symObjAddr: 0x1C0C0, symBinAddr: 0x2E4F8, symSize: 0x34 }
  - { offset: 0x63B10, size: 0x8, addend: 0x0, symName: _unixDeviceCharacteristics, symObjAddr: 0x1C0F4, symBinAddr: 0x2E52C, symSize: 0x34 }
  - { offset: 0x63B4C, size: 0x8, addend: 0x0, symName: _unixShmLock, symObjAddr: 0x1C5C0, symBinAddr: 0x2E9F8, symSize: 0x404 }
  - { offset: 0x63C54, size: 0x8, addend: 0x0, symName: _unixShmBarrier, symObjAddr: 0x1C9C4, symBinAddr: 0x2EDFC, symSize: 0x28 }
  - { offset: 0x63C7C, size: 0x8, addend: 0x0, symName: _unixShmUnmap, symObjAddr: 0x1C9EC, symBinAddr: 0x2EE24, symSize: 0x144 }
  - { offset: 0x63CF8, size: 0x8, addend: 0x0, symName: _unixFetch, symObjAddr: 0x1CB30, symBinAddr: 0x2EF68, symSize: 0xE4 }
  - { offset: 0x63D82, size: 0x8, addend: 0x0, symName: _unixUnfetch, symObjAddr: 0x1CC14, symBinAddr: 0x2F04C, symSize: 0x5C }
  - { offset: 0x63DDE, size: 0x8, addend: 0x0, symName: _verifyDbFile, symObjAddr: 0x1CC70, symBinAddr: 0x2F0A8, symSize: 0x138 }
  - { offset: 0x63E26, size: 0x8, addend: 0x0, symName: _unixEnterMutex, symObjAddr: 0x1CDA8, symBinAddr: 0x2F1E0, symSize: 0x1C }
  - { offset: 0x63E3D, size: 0x8, addend: 0x0, symName: _setPendingFd, symObjAddr: 0x1CDC4, symBinAddr: 0x2F1FC, symSize: 0x58 }
  - { offset: 0x63E85, size: 0x8, addend: 0x0, symName: _releaseInodeInfo, symObjAddr: 0x1CE1C, symBinAddr: 0x2F254, symSize: 0xF4 }
  - { offset: 0x63EBD, size: 0x8, addend: 0x0, symName: _closeUnixFile, symObjAddr: 0x1CF10, symBinAddr: 0x2F348, symSize: 0x88 }
  - { offset: 0x63EF9, size: 0x8, addend: 0x0, symName: _unixLeaveMutex, symObjAddr: 0x1CF98, symBinAddr: 0x2F3D0, symSize: 0x1C }
  - { offset: 0x63F10, size: 0x8, addend: 0x0, symName: _fileHasMoved, symObjAddr: 0x1CFB4, symBinAddr: 0x2F3EC, symSize: 0x94 }
  - { offset: 0x63F4C, size: 0x8, addend: 0x0, symName: _closePendingFds, symObjAddr: 0x1D048, symBinAddr: 0x2F480, symSize: 0x84 }
  - { offset: 0x63FA4, size: 0x8, addend: 0x0, symName: _robust_close, symObjAddr: 0x1D0CC, symBinAddr: 0x2F504, symSize: 0x84 }
  - { offset: 0x63FEC, size: 0x8, addend: 0x0, symName: _unixLogErrorAtLine, symObjAddr: 0x1D150, symBinAddr: 0x2F588, symSize: 0xA4 }
  - { offset: 0x64068, size: 0x8, addend: 0x0, symName: _unixUnmapfile, symObjAddr: 0x1D1F4, symBinAddr: 0x2F62C, symSize: 0x68 }
  - { offset: 0x64090, size: 0x8, addend: 0x0, symName: _seekAndRead, symObjAddr: 0x1D25C, symBinAddr: 0x2F694, symSize: 0x13C }
  - { offset: 0x6410C, size: 0x8, addend: 0x0, symName: _storeLastErrno, symObjAddr: 0x1D398, symBinAddr: 0x2F7D0, symSize: 0x20 }
  - { offset: 0x64144, size: 0x8, addend: 0x0, symName: _seekAndWrite, symObjAddr: 0x1D3B8, symBinAddr: 0x2F7F0, symSize: 0x48 }
  - { offset: 0x641A0, size: 0x8, addend: 0x0, symName: _seekAndWriteFd, symObjAddr: 0x1D400, symBinAddr: 0x2F838, symSize: 0xC8 }
  - { offset: 0x6421C, size: 0x8, addend: 0x0, symName: _robust_ftruncate, symObjAddr: 0x1D4C8, symBinAddr: 0x2F900, symSize: 0x80 }
  - { offset: 0x64268, size: 0x8, addend: 0x0, symName: _full_fsync, symObjAddr: 0x1D548, symBinAddr: 0x2F980, symSize: 0x84 }
  - { offset: 0x642C4, size: 0x8, addend: 0x0, symName: _unixFileLock, symObjAddr: 0x1D5CC, symBinAddr: 0x2FA04, symSize: 0x130 }
  - { offset: 0x6433E, size: 0x8, addend: 0x0, symName: _sqliteErrorFromPosixError, symObjAddr: 0x1D6FC, symBinAddr: 0x2FB34, symSize: 0xB0 }
  - { offset: 0x6437A, size: 0x8, addend: 0x0, symName: _posixUnlock, symObjAddr: 0x1D7AC, symBinAddr: 0x2FBE4, symSize: 0x3F4 }
  - { offset: 0x64445, size: 0x8, addend: 0x0, symName: _fcntlSizeHint, symObjAddr: 0x1DBA0, symBinAddr: 0x2FFD8, symSize: 0x278 }
  - { offset: 0x6450B, size: 0x8, addend: 0x0, symName: _unixModeBit, symObjAddr: 0x1DE18, symBinAddr: 0x30250, symSize: 0x8C }
  - { offset: 0x64553, size: 0x8, addend: 0x0, symName: _unixGetTempname, symObjAddr: 0x1DEA4, symBinAddr: 0x302DC, symSize: 0x108 }
  - { offset: 0x645C6, size: 0x8, addend: 0x0, symName: _unixMapfile, symObjAddr: 0x1DFAC, symBinAddr: 0x303E4, symSize: 0xE0 }
  - { offset: 0x64620, size: 0x8, addend: 0x0, symName: _proxyFileControl, symObjAddr: 0x1E08C, symBinAddr: 0x304C4, symSize: 0x1F0 }
  - { offset: 0x64722, size: 0x8, addend: 0x0, symName: _unixRemapfile, symObjAddr: 0x1E3B4, symBinAddr: 0x307EC, symSize: 0x24C }
  - { offset: 0x647F8, size: 0x8, addend: 0x0, symName: _proxyTakeConch, symObjAddr: 0x1E600, symBinAddr: 0x30A38, symSize: 0x6E4 }
  - { offset: 0x64A19, size: 0x8, addend: 0x0, symName: _switchLockProxyPath, symObjAddr: 0x1ECE4, symBinAddr: 0x3111C, symSize: 0x14C }
  - { offset: 0x64AA3, size: 0x8, addend: 0x0, symName: _proxyTransformUnixFile, symObjAddr: 0x1EE30, symBinAddr: 0x31268, symSize: 0x33C }
  - { offset: 0x64B82, size: 0x8, addend: 0x0, symName: _proxyClose, symObjAddr: 0x1F16C, symBinAddr: 0x315A4, symSize: 0x1DC }
  - { offset: 0x64C0C, size: 0x8, addend: 0x0, symName: _proxyLock, symObjAddr: 0x1F348, symBinAddr: 0x31780, symSize: 0xA8 }
  - { offset: 0x64CA4, size: 0x8, addend: 0x0, symName: _proxyUnlock, symObjAddr: 0x1F3F0, symBinAddr: 0x31828, symSize: 0xA8 }
  - { offset: 0x64D3C, size: 0x8, addend: 0x0, symName: _proxyCheckReservedLock, symObjAddr: 0x1F498, symBinAddr: 0x318D0, symSize: 0xA8 }
  - { offset: 0x64DD4, size: 0x8, addend: 0x0, symName: _proxyReleaseConch, symObjAddr: 0x1F540, symBinAddr: 0x31978, symSize: 0x78 }
  - { offset: 0x64E30, size: 0x8, addend: 0x0, symName: _proxyGetHostID, symObjAddr: 0x1F5B8, symBinAddr: 0x319F0, symSize: 0x98 }
  - { offset: 0x64EA8, size: 0x8, addend: 0x0, symName: _proxyConchLock, symObjAddr: 0x1F650, symBinAddr: 0x31A88, symSize: 0x350 }
  - { offset: 0x64F99, size: 0x8, addend: 0x0, symName: _proxyGetLockPath, symObjAddr: 0x1F9A0, symBinAddr: 0x31DD8, symSize: 0x1B0 }
  - { offset: 0x65033, size: 0x8, addend: 0x0, symName: _robust_open, symObjAddr: 0x1FB50, symBinAddr: 0x31F88, symSize: 0x1A8 }
  - { offset: 0x650BD, size: 0x8, addend: 0x0, symName: _sqlite3CantopenError, symObjAddr: 0x1FCF8, symBinAddr: 0x32130, symSize: 0x30 }
  - { offset: 0x650ED, size: 0x8, addend: 0x0, symName: _proxyCreateUnixFile, symObjAddr: 0x1FD28, symBinAddr: 0x32160, symSize: 0x2D4 }
  - { offset: 0x651BA, size: 0x8, addend: 0x0, symName: _proxyBreakConchLock, symObjAddr: 0x1FFFC, symBinAddr: 0x32434, symSize: 0x338 }
  - { offset: 0x652AE, size: 0x8, addend: 0x0, symName: _sqlite3ReportError, symObjAddr: 0x20334, symBinAddr: 0x3276C, symSize: 0x74 }
  - { offset: 0x65302, size: 0x8, addend: 0x0, symName: _findReusableFd, symObjAddr: 0x203A8, symBinAddr: 0x327E0, symSize: 0x1B8 }
  - { offset: 0x6539A, size: 0x8, addend: 0x0, symName: _proxyCreateLockPath, symObjAddr: 0x20560, symBinAddr: 0x32998, symSize: 0x228 }
  - { offset: 0x65424, size: 0x8, addend: 0x0, symName: _fillInUnixFile, symObjAddr: 0x20788, symBinAddr: 0x32BC0, symSize: 0x360 }
  - { offset: 0x6550C, size: 0x8, addend: 0x0, symName: _findInodeInfo, symObjAddr: 0x20AE8, symBinAddr: 0x32F20, symSize: 0x338 }
  - { offset: 0x65599, size: 0x8, addend: 0x0, symName: _proxyGetDbPathForUnixFile, symObjAddr: 0x20E20, symBinAddr: 0x33258, symSize: 0xD8 }
  - { offset: 0x655F3, size: 0x8, addend: 0x0, symName: _proxyCreateConchPathname, symObjAddr: 0x20EF8, symBinAddr: 0x33330, symSize: 0x174 }
  - { offset: 0x6565F, size: 0x8, addend: 0x0, symName: _setDeviceCharacteristics, symObjAddr: 0x2106C, symBinAddr: 0x334A4, symSize: 0x54 }
  - { offset: 0x65687, size: 0x8, addend: 0x0, symName: _unixShmRegionPerMap, symObjAddr: 0x210C0, symBinAddr: 0x334F8, symSize: 0x6C }
  - { offset: 0x656C3, size: 0x8, addend: 0x0, symName: _unixOpenSharedMemory, symObjAddr: 0x2112C, symBinAddr: 0x33564, symSize: 0x364 }
  - { offset: 0x65790, size: 0x8, addend: 0x0, symName: _unixLockSharedMemory, symObjAddr: 0x21490, symBinAddr: 0x338C8, symSize: 0x16C }
  - { offset: 0x657EC, size: 0x8, addend: 0x0, symName: _robustFchown, symObjAddr: 0x215FC, symBinAddr: 0x33A34, symSize: 0x70 }
  - { offset: 0x65838, size: 0x8, addend: 0x0, symName: _unixShmPurge, symObjAddr: 0x2166C, symBinAddr: 0x33AA4, symSize: 0x140 }
  - { offset: 0x6589E, size: 0x8, addend: 0x0, symName: _unixShmSystemLock, symObjAddr: 0x217AC, symBinAddr: 0x33BE4, symSize: 0xB8 }
  - { offset: 0x65948, size: 0x8, addend: 0x0, symName: _afpClose, symObjAddr: 0x21864, symBinAddr: 0x33C9C, symSize: 0xB4 }
  - { offset: 0x659B2, size: 0x8, addend: 0x0, symName: _afpLock, symObjAddr: 0x21918, symBinAddr: 0x33D50, symSize: 0x574 }
  - { offset: 0x65AF7, size: 0x8, addend: 0x0, symName: _afpUnlock, symObjAddr: 0x21E8C, symBinAddr: 0x342C4, symSize: 0x374 }
  - { offset: 0x65BBF, size: 0x8, addend: 0x0, symName: _afpCheckReservedLock, symObjAddr: 0x22200, symBinAddr: 0x34638, symSize: 0x174 }
  - { offset: 0x65C59, size: 0x8, addend: 0x0, symName: _afpSetLock, symObjAddr: 0x22374, symBinAddr: 0x347AC, symSize: 0xF8 }
  - { offset: 0x65D13, size: 0x8, addend: 0x0, symName: _nolockClose, symObjAddr: 0x2246C, symBinAddr: 0x348A4, symSize: 0x24 }
  - { offset: 0x65D3F, size: 0x8, addend: 0x0, symName: _nolockLock, symObjAddr: 0x22490, symBinAddr: 0x348C8, symSize: 0x18 }
  - { offset: 0x65D7B, size: 0x8, addend: 0x0, symName: _nolockUnlock, symObjAddr: 0x224A8, symBinAddr: 0x348E0, symSize: 0x18 }
  - { offset: 0x65DB7, size: 0x8, addend: 0x0, symName: _nolockCheckReservedLock, symObjAddr: 0x224C0, symBinAddr: 0x348F8, symSize: 0x20 }
  - { offset: 0x65DF3, size: 0x8, addend: 0x0, symName: _posixOpen, symObjAddr: 0x224E0, symBinAddr: 0x34918, symSize: 0x3C }
  - { offset: 0x65E3F, size: 0x8, addend: 0x0, symName: _openDirectory, symObjAddr: 0x2251C, symBinAddr: 0x34954, symSize: 0x1AC }
  - { offset: 0x65EAC, size: 0x8, addend: 0x0, symName: _unixGetpagesize, symObjAddr: 0x226C8, symBinAddr: 0x34B00, symSize: 0x18 }
  - { offset: 0x65EC7, size: 0x8, addend: 0x0, symName: _nfsUnlock, symObjAddr: 0x226E0, symBinAddr: 0x34B18, symSize: 0x30 }
  - { offset: 0x65F03, size: 0x8, addend: 0x0, symName: _dotlockClose, symObjAddr: 0x22710, symBinAddr: 0x34B48, symSize: 0x44 }
  - { offset: 0x65F3F, size: 0x8, addend: 0x0, symName: _dotlockLock, symObjAddr: 0x22754, symBinAddr: 0x34B8C, symSize: 0x11C }
  - { offset: 0x65FC9, size: 0x8, addend: 0x0, symName: _dotlockUnlock, symObjAddr: 0x22870, symBinAddr: 0x34CA8, symSize: 0xF8 }
  - { offset: 0x66053, size: 0x8, addend: 0x0, symName: _dotlockCheckReservedLock, symObjAddr: 0x22968, symBinAddr: 0x34DA0, symSize: 0x68 }
  - { offset: 0x660BF, size: 0x8, addend: 0x0, symName: _findCreateFileMode, symObjAddr: 0x229D0, symBinAddr: 0x34E08, symSize: 0x1CC }
  - { offset: 0x6618A, size: 0x8, addend: 0x0, symName: _getFileMode, symObjAddr: 0x22B9C, symBinAddr: 0x34FD4, symSize: 0x94 }
  - { offset: 0x66206, size: 0x8, addend: 0x0, symName: _mkFullPathname, symObjAddr: 0x22C30, symBinAddr: 0x35068, symSize: 0x3B0 }
  - { offset: 0x66292, size: 0x8, addend: 0x0, symName: _unixBackupDir, symObjAddr: 0x22FE0, symBinAddr: 0x35418, symSize: 0x114 }
  - { offset: 0x662EE, size: 0x8, addend: 0x0, symName: _nolockIoFinderImpl, symObjAddr: 0x230F4, symBinAddr: 0x3552C, symSize: 0x1C }
  - { offset: 0x6632A, size: 0x8, addend: 0x0, symName: _dotlockIoFinderImpl, symObjAddr: 0x23110, symBinAddr: 0x35548, symSize: 0x1C }
  - { offset: 0x66366, size: 0x8, addend: 0x0, symName: _posixIoFinderImpl, symObjAddr: 0x2312C, symBinAddr: 0x35564, symSize: 0x1C }
  - { offset: 0x663A2, size: 0x8, addend: 0x0, symName: _flockIoFinderImpl, symObjAddr: 0x23148, symBinAddr: 0x35580, symSize: 0x1C }
  - { offset: 0x663DE, size: 0x8, addend: 0x0, symName: _flockClose, symObjAddr: 0x23164, symBinAddr: 0x3559C, symSize: 0x30 }
  - { offset: 0x6640A, size: 0x8, addend: 0x0, symName: _flockLock, symObjAddr: 0x23194, symBinAddr: 0x355CC, symSize: 0xD8 }
  - { offset: 0x66484, size: 0x8, addend: 0x0, symName: _flockUnlock, symObjAddr: 0x2326C, symBinAddr: 0x356A4, symSize: 0xA4 }
  - { offset: 0x664D0, size: 0x8, addend: 0x0, symName: _flockCheckReservedLock, symObjAddr: 0x23310, symBinAddr: 0x35748, symSize: 0x13C }
  - { offset: 0x66596, size: 0x8, addend: 0x0, symName: _robust_flock, symObjAddr: 0x2344C, symBinAddr: 0x35884, symSize: 0x74 }
  - { offset: 0x665E2, size: 0x8, addend: 0x0, symName: _afpIoFinderImpl, symObjAddr: 0x234C0, symBinAddr: 0x358F8, symSize: 0x1C }
  - { offset: 0x6661E, size: 0x8, addend: 0x0, symName: _nfsIoFinderImpl, symObjAddr: 0x234DC, symBinAddr: 0x35914, symSize: 0x1C }
  - { offset: 0x6665A, size: 0x8, addend: 0x0, symName: _proxyIoFinderImpl, symObjAddr: 0x234F8, symBinAddr: 0x35930, symSize: 0x1C }
  - { offset: 0x66696, size: 0x8, addend: 0x0, symName: _sqlite3PcachePagecount, symObjAddr: 0x23514, symBinAddr: 0x3594C, symSize: 0x34 }
  - { offset: 0x666C2, size: 0x8, addend: 0x0, symName: _btreeEnterAll, symObjAddr: 0x23548, symBinAddr: 0x35980, symSize: 0xA8 }
  - { offset: 0x6671A, size: 0x8, addend: 0x0, symName: _btreeLeaveAll, symObjAddr: 0x235F0, symBinAddr: 0x35A28, symSize: 0x80 }
  - { offset: 0x66762, size: 0x8, addend: 0x0, symName: _sqlite3SystemError, symObjAddr: 0x23670, symBinAddr: 0x35AA8, symSize: 0x74 }
  - { offset: 0x6679A, size: 0x8, addend: 0x0, symName: _sqlite3VMPrintf, symObjAddr: 0x236E4, symBinAddr: 0x35B1C, symSize: 0xC0 }
  - { offset: 0x66819, size: 0x8, addend: 0x0, symName: _sqlite3OsGetLastError, symObjAddr: 0x237A4, symBinAddr: 0x35BDC, symSize: 0x5C }
  - { offset: 0x66845, size: 0x8, addend: 0x0, symName: _sqlite3ErrorFinish, symObjAddr: 0x23800, symBinAddr: 0x35C38, symSize: 0x4C }
  - { offset: 0x6687D, size: 0x8, addend: 0x0, symName: _sqlite3ValueSetNull, symObjAddr: 0x2384C, symBinAddr: 0x35C84, symSize: 0x24 }
  - { offset: 0x668A9, size: 0x8, addend: 0x0, symName: _sqlite3BtreeOpen, symObjAddr: 0x23970, symBinAddr: 0x35DA8, symSize: 0x9F4 }
  - { offset: 0x66AF5, size: 0x8, addend: 0x0, symName: _sqlite3TempInMemory, symObjAddr: 0x24364, symBinAddr: 0x3679C, symSize: 0x20 }
  - { offset: 0x66B25, size: 0x8, addend: 0x0, symName: _sqlite3OsFullPathname, symObjAddr: 0x24384, symBinAddr: 0x367BC, symSize: 0x4C }
  - { offset: 0x66B81, size: 0x8, addend: 0x0, symName: _sqlite3PagerOpen, symObjAddr: 0x24428, symBinAddr: 0x36860, symSize: 0x950 }
  - { offset: 0x66D74, size: 0x8, addend: 0x0, symName: _pageReinit, symObjAddr: 0x24D78, symBinAddr: 0x371B0, symSize: 0x64 }
  - { offset: 0x66DB2, size: 0x8, addend: 0x0, symName: _sqlite3PagerSetMmapLimit, symObjAddr: 0x24DDC, symBinAddr: 0x37214, symSize: 0x34 }
  - { offset: 0x66DEA, size: 0x8, addend: 0x0, symName: _sqlite3PagerReadFileheader, symObjAddr: 0x24E10, symBinAddr: 0x37248, symSize: 0x8C }
  - { offset: 0x66E46, size: 0x8, addend: 0x0, symName: _sqlite3PagerSetBusyHandler, symObjAddr: 0x24E9C, symBinAddr: 0x372D4, symSize: 0x5C }
  - { offset: 0x66E9E, size: 0x8, addend: 0x0, symName: _btreeInvokeBusyHandler, symObjAddr: 0x24EF8, symBinAddr: 0x37330, symSize: 0x34 }
  - { offset: 0x66EE0, size: 0x8, addend: 0x0, symName: _sqlite3PagerIsreadonly, symObjAddr: 0x24F2C, symBinAddr: 0x37364, symSize: 0x18 }
  - { offset: 0x66F0C, size: 0x8, addend: 0x0, symName: _sqlite3Get4byte, symObjAddr: 0x24F44, symBinAddr: 0x3737C, symSize: 0x40 }
  - { offset: 0x66F38, size: 0x8, addend: 0x0, symName: _sqlite3PagerSetPagesize, symObjAddr: 0x24F84, symBinAddr: 0x373BC, symSize: 0x210 }
  - { offset: 0x66FD2, size: 0x8, addend: 0x0, symName: _sqlite3PagerClose, symObjAddr: 0x25194, symBinAddr: 0x375CC, symSize: 0x148 }
  - { offset: 0x6703C, size: 0x8, addend: 0x0, symName: _sqlite3BtreeSchema, symObjAddr: 0x252DC, symBinAddr: 0x37714, symSize: 0x88 }
  - { offset: 0x670A2, size: 0x8, addend: 0x0, symName: _sqlite3BtreeSetCacheSize, symObjAddr: 0x25364, symBinAddr: 0x3779C, symSize: 0x50 }
  - { offset: 0x670F6, size: 0x8, addend: 0x0, symName: _sqlite3OsFileControlHint, symObjAddr: 0x253B4, symBinAddr: 0x377EC, symSize: 0x54 }
  - { offset: 0x6713E, size: 0x8, addend: 0x0, symName: _sqlite3PcacheSize, symObjAddr: 0x25408, symBinAddr: 0x37840, symSize: 0x8 }
  - { offset: 0x67159, size: 0x8, addend: 0x0, symName: _sqlite3JournalSize, symObjAddr: 0x25410, symBinAddr: 0x37848, symSize: 0x44 }
  - { offset: 0x67189, size: 0x8, addend: 0x0, symName: _sqlite3OsOpen, symObjAddr: 0x25454, symBinAddr: 0x3788C, symSize: 0x60 }
  - { offset: 0x67205, size: 0x8, addend: 0x0, symName: _sqlite3OsDeviceCharacteristics, symObjAddr: 0x254B4, symBinAddr: 0x378EC, symSize: 0x30 }
  - { offset: 0x67231, size: 0x8, addend: 0x0, symName: _setSectorSize, symObjAddr: 0x254E4, symBinAddr: 0x3791C, symSize: 0x68 }
  - { offset: 0x67259, size: 0x8, addend: 0x0, symName: _sqlite3PcacheOpen, symObjAddr: 0x2554C, symBinAddr: 0x37984, symSize: 0xAC }
  - { offset: 0x672D5, size: 0x8, addend: 0x0, symName: _pagerStress, symObjAddr: 0x255F8, symBinAddr: 0x37A30, symSize: 0x16C }
  - { offset: 0x67331, size: 0x8, addend: 0x0, symName: _sqlite3OsClose, symObjAddr: 0x25764, symBinAddr: 0x37B9C, symSize: 0x4C }
  - { offset: 0x67359, size: 0x8, addend: 0x0, symName: _sqlite3PageFree, symObjAddr: 0x257B0, symBinAddr: 0x37BE8, symSize: 0x24 }
  - { offset: 0x67381, size: 0x8, addend: 0x0, symName: _setGetterMethod, symObjAddr: 0x257D4, symBinAddr: 0x37C0C, symSize: 0x70 }
  - { offset: 0x673A9, size: 0x8, addend: 0x0, symName: _sqlite3SectorSize, symObjAddr: 0x25844, symBinAddr: 0x37C7C, symSize: 0x68 }
  - { offset: 0x673E5, size: 0x8, addend: 0x0, symName: _sqlite3OsSectorSize, symObjAddr: 0x258AC, symBinAddr: 0x37CE4, symSize: 0x5C }
  - { offset: 0x67421, size: 0x8, addend: 0x0, symName: _sqlite3PcacheSetPageSize, symObjAddr: 0x25908, symBinAddr: 0x37D40, symSize: 0xFC }
  - { offset: 0x6747B, size: 0x8, addend: 0x0, symName: _numberOfCachePages, symObjAddr: 0x25A04, symBinAddr: 0x37E3C, symSize: 0x6C }
  - { offset: 0x674A7, size: 0x8, addend: 0x0, symName: _subjournalPageIfRequired, symObjAddr: 0x25A70, symBinAddr: 0x37EA8, symSize: 0x48 }
  - { offset: 0x674D3, size: 0x8, addend: 0x0, symName: _pagerWalFrames, symObjAddr: 0x25AB8, symBinAddr: 0x37EF0, symSize: 0x184 }
  - { offset: 0x6757D, size: 0x8, addend: 0x0, symName: _pager_write_pagelist, symObjAddr: 0x25F4C, symBinAddr: 0x38384, symSize: 0x25C }
  - { offset: 0x67633, size: 0x8, addend: 0x0, symName: _sqlite3PcacheMakeClean, symObjAddr: 0x261A8, symBinAddr: 0x385E0, symSize: 0x64 }
  - { offset: 0x6765B, size: 0x8, addend: 0x0, symName: _pager_error, symObjAddr: 0x2620C, symBinAddr: 0x38644, symSize: 0x70 }
  - { offset: 0x676A7, size: 0x8, addend: 0x0, symName: _subjRequiresPage, symObjAddr: 0x2627C, symBinAddr: 0x386B4, symSize: 0xCC }
  - { offset: 0x67713, size: 0x8, addend: 0x0, symName: _subjournalPage, symObjAddr: 0x26348, symBinAddr: 0x38780, symSize: 0x120 }
  - { offset: 0x6779D, size: 0x8, addend: 0x0, symName: _sqlite3BitvecTestNotNull, symObjAddr: 0x26468, symBinAddr: 0x388A0, symSize: 0x19C }
  - { offset: 0x67815, size: 0x8, addend: 0x0, symName: _openSubJournal, symObjAddr: 0x26604, symBinAddr: 0x38A3C, symSize: 0xA8 }
  - { offset: 0x6787F, size: 0x8, addend: 0x0, symName: _write32bits, symObjAddr: 0x266AC, symBinAddr: 0x38AE4, symSize: 0x48 }
  - { offset: 0x678DB, size: 0x8, addend: 0x0, symName: _addToSavepointBitvecs, symObjAddr: 0x266F4, symBinAddr: 0x38B2C, symSize: 0xB0 }
  - { offset: 0x67955, size: 0x8, addend: 0x0, symName: _sqlite3JournalOpen, symObjAddr: 0x267A4, symBinAddr: 0x38BDC, symSize: 0xF0 }
  - { offset: 0x679DF, size: 0x8, addend: 0x0, symName: _memjrnlClose, symObjAddr: 0x26894, symBinAddr: 0x38CCC, symSize: 0x30 }
  - { offset: 0x67A21, size: 0x8, addend: 0x0, symName: _memjrnlRead, symObjAddr: 0x268C4, symBinAddr: 0x38CFC, symSize: 0x28C }
  - { offset: 0x67B2C, size: 0x8, addend: 0x0, symName: _memjrnlWrite, symObjAddr: 0x26B50, symBinAddr: 0x38F88, symSize: 0x24C }
  - { offset: 0x67C4C, size: 0x8, addend: 0x0, symName: _memjrnlTruncate, symObjAddr: 0x26D9C, symBinAddr: 0x391D4, symSize: 0x6C }
  - { offset: 0x67CA0, size: 0x8, addend: 0x0, symName: _memjrnlSync, symObjAddr: 0x26E08, symBinAddr: 0x39240, symSize: 0x18 }
  - { offset: 0x67CE2, size: 0x8, addend: 0x0, symName: _memjrnlFileSize, symObjAddr: 0x26E20, symBinAddr: 0x39258, symSize: 0x30 }
  - { offset: 0x67D36, size: 0x8, addend: 0x0, symName: _memjrnlFreeChunks, symObjAddr: 0x26E50, symBinAddr: 0x39288, symSize: 0x64 }
  - { offset: 0x67D86, size: 0x8, addend: 0x0, symName: _memjrnlCreateFile, symObjAddr: 0x26EB4, symBinAddr: 0x392EC, symSize: 0x160 }
  - { offset: 0x67E30, size: 0x8, addend: 0x0, symName: _sqlite3Put4byte, symObjAddr: 0x27014, symBinAddr: 0x3944C, symSize: 0x50 }
  - { offset: 0x67E68, size: 0x8, addend: 0x0, symName: _sqlite3BitvecSet, symObjAddr: 0x27064, symBinAddr: 0x3949C, symSize: 0x398 }
  - { offset: 0x67F32, size: 0x8, addend: 0x0, symName: _sqlite3BitvecCreate, symObjAddr: 0x273FC, symBinAddr: 0x39834, symSize: 0x48 }
  - { offset: 0x67F6E, size: 0x8, addend: 0x0, symName: _pager_write_changecounter, symObjAddr: 0x27444, symBinAddr: 0x3987C, symSize: 0x74 }
  - { offset: 0x67FA6, size: 0x8, addend: 0x0, symName: _sqlite3WalFrames, symObjAddr: 0x274B8, symBinAddr: 0x398F0, symSize: 0x858 }
  - { offset: 0x681C6, size: 0x8, addend: 0x0, symName: _sqlite3BackupUpdate, symObjAddr: 0x27D10, symBinAddr: 0x3A148, symSize: 0x44 }
  - { offset: 0x68216, size: 0x8, addend: 0x0, symName: _walIndexHdr, symObjAddr: 0x27D54, symBinAddr: 0x3A18C, symSize: 0x1C }
  - { offset: 0x68242, size: 0x8, addend: 0x0, symName: _walRestartLog, symObjAddr: 0x27D70, symBinAddr: 0x3A1A8, symSize: 0x12C }
  - { offset: 0x682E1, size: 0x8, addend: 0x0, symName: _walChecksumBytes, symObjAddr: 0x27E9C, symBinAddr: 0x3A2D4, symSize: 0x1C4 }
  - { offset: 0x68389, size: 0x8, addend: 0x0, symName: _sqlite3OsSync, symObjAddr: 0x28060, symBinAddr: 0x3A498, symSize: 0x5C }
  - { offset: 0x683C5, size: 0x8, addend: 0x0, symName: _sqlite3WalFindFrame, symObjAddr: 0x280BC, symBinAddr: 0x3A4F4, symSize: 0x1E0 }
  - { offset: 0x684CD, size: 0x8, addend: 0x0, symName: _walWriteOneFrame, symObjAddr: 0x2829C, symBinAddr: 0x3A6D4, symSize: 0xF0 }
  - { offset: 0x68559, size: 0x8, addend: 0x0, symName: _walRewriteChecksums, symObjAddr: 0x2838C, symBinAddr: 0x3A7C4, symSize: 0x254 }
  - { offset: 0x68641, size: 0x8, addend: 0x0, symName: _walLimitSize, symObjAddr: 0x285E0, symBinAddr: 0x3AA18, symSize: 0xA4 }
  - { offset: 0x68699, size: 0x8, addend: 0x0, symName: _walIndexAppend, symObjAddr: 0x28684, symBinAddr: 0x3AABC, symSize: 0x170 }
  - { offset: 0x68761, size: 0x8, addend: 0x0, symName: _walIndexWriteHdr, symObjAddr: 0x287F4, symBinAddr: 0x3AC2C, symSize: 0xAC }
  - { offset: 0x687A9, size: 0x8, addend: 0x0, symName: _walCkptInfo, symObjAddr: 0x288A0, symBinAddr: 0x3ACD8, symSize: 0x20 }
  - { offset: 0x687D5, size: 0x8, addend: 0x0, symName: _walLockExclusive, symObjAddr: 0x288C0, symBinAddr: 0x3ACF8, symSize: 0x68 }
  - { offset: 0x68831, size: 0x8, addend: 0x0, symName: _walRestartHdr, symObjAddr: 0x28928, symBinAddr: 0x3AD60, symSize: 0xFC }
  - { offset: 0x68899, size: 0x8, addend: 0x0, symName: _walUnlockExclusive, symObjAddr: 0x28A24, symBinAddr: 0x3AE5C, symSize: 0x54 }
  - { offset: 0x688E1, size: 0x8, addend: 0x0, symName: _walUnlockShared, symObjAddr: 0x28A78, symBinAddr: 0x3AEB0, symSize: 0x50 }
  - { offset: 0x68919, size: 0x8, addend: 0x0, symName: _walTryBeginRead, symObjAddr: 0x28AC8, symBinAddr: 0x3AF00, symSize: 0x518 }
  - { offset: 0x68A11, size: 0x8, addend: 0x0, symName: _sqlite3OsShmLock, symObjAddr: 0x28FE0, symBinAddr: 0x3B418, symSize: 0x48 }
  - { offset: 0x68A6D, size: 0x8, addend: 0x0, symName: _walIndexReadHdr, symObjAddr: 0x29028, symBinAddr: 0x3B460, symSize: 0x290 }
  - { offset: 0x68AF7, size: 0x8, addend: 0x0, symName: _walLockShared, symObjAddr: 0x292B8, symBinAddr: 0x3B6F0, symSize: 0x64 }
  - { offset: 0x68B43, size: 0x8, addend: 0x0, symName: _walBeginShmUnreliable, symObjAddr: 0x2931C, symBinAddr: 0x3B754, symSize: 0x3B8 }
  - { offset: 0x68C70, size: 0x8, addend: 0x0, symName: _walShmBarrier, symObjAddr: 0x296D4, symBinAddr: 0x3BB0C, symSize: 0x40 }
  - { offset: 0x68C98, size: 0x8, addend: 0x0, symName: _walIndexPage, symObjAddr: 0x29714, symBinAddr: 0x3BB4C, symSize: 0x80 }
  - { offset: 0x68CE4, size: 0x8, addend: 0x0, symName: _walIndexTryHdr, symObjAddr: 0x29794, symBinAddr: 0x3BBCC, symSize: 0x198 }
  - { offset: 0x68D61, size: 0x8, addend: 0x0, symName: _walIndexRecover, symObjAddr: 0x2992C, symBinAddr: 0x3BD64, symSize: 0x7D8 }
  - { offset: 0x68FA0, size: 0x8, addend: 0x0, symName: _walIndexClose, symObjAddr: 0x2A104, symBinAddr: 0x3C53C, symSize: 0xCC }
  - { offset: 0x68FF6, size: 0x8, addend: 0x0, symName: _walIndexPageRealloc, symObjAddr: 0x2A1D0, symBinAddr: 0x3C608, symSize: 0x21C }
  - { offset: 0x69080, size: 0x8, addend: 0x0, symName: _sqlite3OsShmMap, symObjAddr: 0x2A3EC, symBinAddr: 0x3C824, symSize: 0x50 }
  - { offset: 0x690EC, size: 0x8, addend: 0x0, symName: _sqlite3OsFileSize, symObjAddr: 0x2A43C, symBinAddr: 0x3C874, symSize: 0x38 }
  - { offset: 0x69128, size: 0x8, addend: 0x0, symName: _sqlite3OsRead, symObjAddr: 0x2A474, symBinAddr: 0x3C8AC, symSize: 0x48 }
  - { offset: 0x69184, size: 0x8, addend: 0x0, symName: _walFramePage, symObjAddr: 0x2A4BC, symBinAddr: 0x3C8F4, symSize: 0x34 }
  - { offset: 0x691C0, size: 0x8, addend: 0x0, symName: _walDecodeFrame, symObjAddr: 0x2A4F0, symBinAddr: 0x3C928, symSize: 0x150 }
  - { offset: 0x6925C, size: 0x8, addend: 0x0, symName: _sqlite3OsShmUnmap, symObjAddr: 0x2A640, symBinAddr: 0x3CA78, symSize: 0x38 }
  - { offset: 0x69298, size: 0x8, addend: 0x0, symName: _sqlite3WalEndReadTransaction, symObjAddr: 0x2A678, symBinAddr: 0x3CAB0, symSize: 0x58 }
  - { offset: 0x692C0, size: 0x8, addend: 0x0, symName: _sqlite3WalEndWriteTransaction, symObjAddr: 0x2A6D0, symBinAddr: 0x3CB08, symSize: 0x5C }
  - { offset: 0x692EC, size: 0x8, addend: 0x0, symName: _sqlite3OsShmBarrier, symObjAddr: 0x2A72C, symBinAddr: 0x3CB64, symSize: 0x30 }
  - { offset: 0x69314, size: 0x8, addend: 0x0, symName: _walHashGet, symObjAddr: 0x2A75C, symBinAddr: 0x3CB94, symSize: 0xC8 }
  - { offset: 0x69370, size: 0x8, addend: 0x0, symName: _walHash, symObjAddr: 0x2A824, symBinAddr: 0x3CC5C, symSize: 0x20 }
  - { offset: 0x6939C, size: 0x8, addend: 0x0, symName: _sqlite3CorruptError, symObjAddr: 0x2A844, symBinAddr: 0x3CC7C, symSize: 0x30 }
  - { offset: 0x693CC, size: 0x8, addend: 0x0, symName: _walNextHash, symObjAddr: 0x2A874, symBinAddr: 0x3CCAC, symSize: 0x1C }
  - { offset: 0x693F8, size: 0x8, addend: 0x0, symName: _walEncodeFrame, symObjAddr: 0x2A890, symBinAddr: 0x3CCC8, symSize: 0x110 }
  - { offset: 0x69480, size: 0x8, addend: 0x0, symName: _walWriteToLog, symObjAddr: 0x2A9A0, symBinAddr: 0x3CDD8, symSize: 0x148 }
  - { offset: 0x6950A, size: 0x8, addend: 0x0, symName: _sqlite3BeginBenignMalloc, symObjAddr: 0x2AAE8, symBinAddr: 0x3CF20, symSize: 0x30 }
  - { offset: 0x69521, size: 0x8, addend: 0x0, symName: _sqlite3OsTruncate, symObjAddr: 0x2AB18, symBinAddr: 0x3CF50, symSize: 0x38 }
  - { offset: 0x6955D, size: 0x8, addend: 0x0, symName: _sqlite3EndBenignMalloc, symObjAddr: 0x2AB50, symBinAddr: 0x3CF88, symSize: 0x38 }
  - { offset: 0x69574, size: 0x8, addend: 0x0, symName: _walCleanupHash, symObjAddr: 0x2AB88, symBinAddr: 0x3CFC0, symSize: 0x11C }
  - { offset: 0x695EC, size: 0x8, addend: 0x0, symName: _backupUpdate, symObjAddr: 0x2ACA4, symBinAddr: 0x3D0DC, symSize: 0xC4 }
  - { offset: 0x6965C, size: 0x8, addend: 0x0, symName: _sqlite3PagerExclusiveLock, symObjAddr: 0x2AD68, symBinAddr: 0x3D1A0, symSize: 0x68 }
  - { offset: 0x69698, size: 0x8, addend: 0x0, symName: _journalHdrOffset, symObjAddr: 0x2ADD0, symBinAddr: 0x3D208, symSize: 0x5C }
  - { offset: 0x696E4, size: 0x8, addend: 0x0, symName: _writeJournalHdr, symObjAddr: 0x2AE2C, symBinAddr: 0x3D264, symSize: 0x288 }
  - { offset: 0x69760, size: 0x8, addend: 0x0, symName: _sqlite3PcacheClearSyncFlags, symObjAddr: 0x2B0B4, symBinAddr: 0x3D4EC, symSize: 0x60 }
  - { offset: 0x69798, size: 0x8, addend: 0x0, symName: _pager_wait_on_lock, symObjAddr: 0x2B114, symBinAddr: 0x3D54C, symSize: 0x84 }
  - { offset: 0x697E4, size: 0x8, addend: 0x0, symName: _pagerLockDb, symObjAddr: 0x2B198, symBinAddr: 0x3D5D0, symSize: 0xD4 }
  - { offset: 0x69830, size: 0x8, addend: 0x0, symName: _sqlite3OsLock, symObjAddr: 0x2B26C, symBinAddr: 0x3D6A4, symSize: 0x38 }
  - { offset: 0x6986C, size: 0x8, addend: 0x0, symName: _pagerOpentemp, symObjAddr: 0x2B2A4, symBinAddr: 0x3D6DC, symSize: 0x54 }
  - { offset: 0x698C8, size: 0x8, addend: 0x0, symName: _pcacheManageDirtyList, symObjAddr: 0x2B2F8, symBinAddr: 0x3D730, symSize: 0x1AC }
  - { offset: 0x69910, size: 0x8, addend: 0x0, symName: _pcacheUnpin, symObjAddr: 0x2B4A4, symBinAddr: 0x3D8DC, symSize: 0x5C }
  - { offset: 0x69938, size: 0x8, addend: 0x0, symName: _pcache1Free, symObjAddr: 0x2B500, symBinAddr: 0x3D938, symSize: 0x118 }
  - { offset: 0x6999C, size: 0x8, addend: 0x0, symName: _getPageError, symObjAddr: 0x2B618, symBinAddr: 0x3DA50, symSize: 0x2C }
  - { offset: 0x699F8, size: 0x8, addend: 0x0, symName: _getPageMMap, symObjAddr: 0x2B644, symBinAddr: 0x3DA7C, symSize: 0x274 }
  - { offset: 0x69AB2, size: 0x8, addend: 0x0, symName: _getPageNormal, symObjAddr: 0x2B8B8, symBinAddr: 0x3DCF0, symSize: 0x2A0 }
  - { offset: 0x69B5F, size: 0x8, addend: 0x0, symName: _sqlite3OsFetch, symObjAddr: 0x2BB58, symBinAddr: 0x3DF90, symSize: 0x48 }
  - { offset: 0x69BBB, size: 0x8, addend: 0x0, symName: _sqlite3PagerLookup, symObjAddr: 0x2BBA0, symBinAddr: 0x3DFD8, symSize: 0x6C }
  - { offset: 0x69C07, size: 0x8, addend: 0x0, symName: _pagerAcquireMapPage, symObjAddr: 0x2BC0C, symBinAddr: 0x3E044, symSize: 0x14C }
  - { offset: 0x69C73, size: 0x8, addend: 0x0, symName: _sqlite3OsUnfetch, symObjAddr: 0x2BD58, symBinAddr: 0x3E190, symSize: 0x40 }
  - { offset: 0x69CBF, size: 0x8, addend: 0x0, symName: _sqlite3PcacheFetch, symObjAddr: 0x2BD98, symBinAddr: 0x3E1D0, symSize: 0x60 }
  - { offset: 0x69D2B, size: 0x8, addend: 0x0, symName: _sqlite3PcacheFetchFinish, symObjAddr: 0x2BDF8, symBinAddr: 0x3E230, symSize: 0x88 }
  - { offset: 0x69D87, size: 0x8, addend: 0x0, symName: _pcacheFetchFinishWithInit, symObjAddr: 0x2BE80, symBinAddr: 0x3E2B8, symSize: 0xC8 }
  - { offset: 0x69DE3, size: 0x8, addend: 0x0, symName: _sqlite3PcacheFetchStress, symObjAddr: 0x2BF48, symBinAddr: 0x3E380, symSize: 0x1F8 }
  - { offset: 0x69E5D, size: 0x8, addend: 0x0, symName: _readDbPage, symObjAddr: 0x2C140, symBinAddr: 0x3E578, symSize: 0x188 }
  - { offset: 0x69EF5, size: 0x8, addend: 0x0, symName: _sqlite3PcacheDrop, symObjAddr: 0x2C2C8, symBinAddr: 0x3E700, symSize: 0x78 }
  - { offset: 0x69F1D, size: 0x8, addend: 0x0, symName: _pagerUnlockIfUnused, symObjAddr: 0x2C340, symBinAddr: 0x3E778, symSize: 0x3C }
  - { offset: 0x69F45, size: 0x8, addend: 0x0, symName: _sqlite3WalReadFrame, symObjAddr: 0x2C37C, symBinAddr: 0x3E7B4, symSize: 0xCC }
  - { offset: 0x69FC1, size: 0x8, addend: 0x0, symName: _sqlite3PcacheRefCount, symObjAddr: 0x2C448, symBinAddr: 0x3E880, symSize: 0x18 }
  - { offset: 0x69FED, size: 0x8, addend: 0x0, symName: _pagerUnlockAndRollback, symObjAddr: 0x2C460, symBinAddr: 0x3E898, symSize: 0x9C }
  - { offset: 0x6A015, size: 0x8, addend: 0x0, symName: _sqlite3PagerRollback, symObjAddr: 0x2C4FC, symBinAddr: 0x3E934, symSize: 0x180 }
  - { offset: 0x6A08D, size: 0x8, addend: 0x0, symName: _pager_end_transaction, symObjAddr: 0x2C67C, symBinAddr: 0x3EAB4, symSize: 0x3E8 }
  - { offset: 0x6A117, size: 0x8, addend: 0x0, symName: _pager_unlock, symObjAddr: 0x2CA64, symBinAddr: 0x3EE9C, symSize: 0x1E8 }
  - { offset: 0x6A16D, size: 0x8, addend: 0x0, symName: _sqlite3PagerSavepoint, symObjAddr: 0x2CC4C, symBinAddr: 0x3F084, symSize: 0x1C0 }
  - { offset: 0x6A215, size: 0x8, addend: 0x0, symName: _pager_playback, symObjAddr: 0x2CE0C, symBinAddr: 0x3F244, symSize: 0x4A8 }
  - { offset: 0x6A312, size: 0x8, addend: 0x0, symName: _sqlite3BitvecDestroy, symObjAddr: 0x2D2B4, symBinAddr: 0x3F6EC, symSize: 0x8C }
  - { offset: 0x6A358, size: 0x8, addend: 0x0, symName: _sqlite3JournalIsInMemory, symObjAddr: 0x2D340, symBinAddr: 0x3F778, symSize: 0x28 }
  - { offset: 0x6A388, size: 0x8, addend: 0x0, symName: _pagerPlaybackSavepoint, symObjAddr: 0x2D368, symBinAddr: 0x3F7A0, symSize: 0x420 }
  - { offset: 0x6A470, size: 0x8, addend: 0x0, symName: _pagerRollbackWal, symObjAddr: 0x2D788, symBinAddr: 0x3FBC0, symSize: 0xC0 }
  - { offset: 0x6A4DA, size: 0x8, addend: 0x0, symName: _pager_playback_one_page, symObjAddr: 0x2D848, symBinAddr: 0x3FC80, symSize: 0x4F4 }
  - { offset: 0x6A5F3, size: 0x8, addend: 0x0, symName: _readJournalHdr, symObjAddr: 0x2DD3C, symBinAddr: 0x40174, symSize: 0x2FC }
  - { offset: 0x6A6BD, size: 0x8, addend: 0x0, symName: _sqlite3WalSavepointUndo, symObjAddr: 0x2E038, symBinAddr: 0x40470, symSize: 0xB8 }
  - { offset: 0x6A709, size: 0x8, addend: 0x0, symName: _sqlite3WalUndo, symObjAddr: 0x2E0F0, symBinAddr: 0x40528, symSize: 0x128 }
  - { offset: 0x6A793, size: 0x8, addend: 0x0, symName: _pagerUndoCallback, symObjAddr: 0x2E218, symBinAddr: 0x40650, symSize: 0xB4 }
  - { offset: 0x6A7FF, size: 0x8, addend: 0x0, symName: _sqlite3PcacheDirtyList, symObjAddr: 0x2E2CC, symBinAddr: 0x40704, symSize: 0x68 }
  - { offset: 0x6A83B, size: 0x8, addend: 0x0, symName: _walFramePgno, symObjAddr: 0x2E334, symBinAddr: 0x4076C, symSize: 0x9C }
  - { offset: 0x6A887, size: 0x8, addend: 0x0, symName: _sqlite3PcachePageRefcount, symObjAddr: 0x2E3D0, symBinAddr: 0x40808, symSize: 0x18 }
  - { offset: 0x6A8B3, size: 0x8, addend: 0x0, symName: _sqlite3PagerUnrefNotNull, symObjAddr: 0x2E3E8, symBinAddr: 0x40820, symSize: 0x44 }
  - { offset: 0x6A8DB, size: 0x8, addend: 0x0, symName: _sqlite3BackupRestart, symObjAddr: 0x2E42C, symBinAddr: 0x40864, symSize: 0x48 }
  - { offset: 0x6A919, size: 0x8, addend: 0x0, symName: _pagerReleaseMapPage, symObjAddr: 0x2E474, symBinAddr: 0x408AC, symSize: 0x84 }
  - { offset: 0x6A951, size: 0x8, addend: 0x0, symName: _sqlite3PcacheRelease, symObjAddr: 0x2E4F8, symBinAddr: 0x40930, symSize: 0x80 }
  - { offset: 0x6A979, size: 0x8, addend: 0x0, symName: _pcacheSortDirtyList, symObjAddr: 0x2E578, symBinAddr: 0x409B0, symSize: 0x1F0 }
  - { offset: 0x6A9D5, size: 0x8, addend: 0x0, symName: _pcacheMergeDirtyList, symObjAddr: 0x2E768, symBinAddr: 0x40BA0, symSize: 0xC4 }
  - { offset: 0x6AA33, size: 0x8, addend: 0x0, symName: _read32bits, symObjAddr: 0x2E82C, symBinAddr: 0x40C64, symSize: 0x60 }
  - { offset: 0x6AA9F, size: 0x8, addend: 0x0, symName: _sqlite3BitvecTest, symObjAddr: 0x2E88C, symBinAddr: 0x40CC4, symSize: 0x58 }
  - { offset: 0x6AADB, size: 0x8, addend: 0x0, symName: _pager_cksum, symObjAddr: 0x2E8E4, symBinAddr: 0x40D1C, symSize: 0x70 }
  - { offset: 0x6AB37, size: 0x8, addend: 0x0, symName: _sqlite3PcacheMakeDirty, symObjAddr: 0x2E954, symBinAddr: 0x40D8C, symSize: 0x78 }
  - { offset: 0x6AB5F, size: 0x8, addend: 0x0, symName: _readSuperJournal, symObjAddr: 0x2E9CC, symBinAddr: 0x40E04, symSize: 0x20C }
  - { offset: 0x6AC0B, size: 0x8, addend: 0x0, symName: _sqlite3OsAccess, symObjAddr: 0x2EBD8, symBinAddr: 0x41010, symSize: 0x44 }
  - { offset: 0x6AC67, size: 0x8, addend: 0x0, symName: _pager_truncate, symObjAddr: 0x2EC1C, symBinAddr: 0x41054, symSize: 0x168 }
  - { offset: 0x6AD0F, size: 0x8, addend: 0x0, symName: _pager_reset, symObjAddr: 0x2ED84, symBinAddr: 0x411BC, symSize: 0x44 }
  - { offset: 0x6AD37, size: 0x8, addend: 0x0, symName: _pager_delsuper, symObjAddr: 0x2EDC8, symBinAddr: 0x41200, symSize: 0x320 }
  - { offset: 0x6AE8E, size: 0x8, addend: 0x0, symName: _sqlite3PcacheClear, symObjAddr: 0x2F0E8, symBinAddr: 0x41520, symSize: 0x28 }
  - { offset: 0x6AEB6, size: 0x8, addend: 0x0, symName: _sqlite3PcacheTruncate, symObjAddr: 0x2F110, symBinAddr: 0x41548, symSize: 0x128 }
  - { offset: 0x6AF3A, size: 0x8, addend: 0x0, symName: _sqlite3OsDelete, symObjAddr: 0x2F238, symBinAddr: 0x41670, symSize: 0x3C }
  - { offset: 0x6AF86, size: 0x8, addend: 0x0, symName: _releaseAllSavepoints, symObjAddr: 0x2F274, symBinAddr: 0x416AC, symSize: 0xC8 }
  - { offset: 0x6AFBE, size: 0x8, addend: 0x0, symName: _pagerFlushOnCommit, symObjAddr: 0x2F484, symBinAddr: 0x418BC, symSize: 0x8C }
  - { offset: 0x6AFFA, size: 0x8, addend: 0x0, symName: _sqlite3PcacheCleanAll, symObjAddr: 0x2F510, symBinAddr: 0x41948, symSize: 0x40 }
  - { offset: 0x6B032, size: 0x8, addend: 0x0, symName: _sqlite3PcacheClearWritable, symObjAddr: 0x2F550, symBinAddr: 0x41988, symSize: 0x60 }
  - { offset: 0x6B06A, size: 0x8, addend: 0x0, symName: _sqlite3WalExclusiveMode, symObjAddr: 0x2F5B0, symBinAddr: 0x419E8, symSize: 0xF0 }
  - { offset: 0x6B0B6, size: 0x8, addend: 0x0, symName: _pagerUnlockDb, symObjAddr: 0x2F6A0, symBinAddr: 0x41AD8, symSize: 0xB0 }
  - { offset: 0x6B102, size: 0x8, addend: 0x0, symName: _sqlite3PCachePercentDirty, symObjAddr: 0x2F750, symBinAddr: 0x41B88, symSize: 0xA0 }
  - { offset: 0x6B15E, size: 0x8, addend: 0x0, symName: _sqlite3OsUnlock, symObjAddr: 0x2F7F0, symBinAddr: 0x41C28, symSize: 0x38 }
  - { offset: 0x6B19A, size: 0x8, addend: 0x0, symName: _sqlite3PagerGetExtra, symObjAddr: 0x2F828, symBinAddr: 0x41C60, symSize: 0x18 }
  - { offset: 0x6B1C6, size: 0x8, addend: 0x0, symName: _sqlite3PagerPageRefcount, symObjAddr: 0x2F840, symBinAddr: 0x41C78, symSize: 0x24 }
  - { offset: 0x6B1F2, size: 0x8, addend: 0x0, symName: _btreeInitPage, symObjAddr: 0x2F864, symBinAddr: 0x41C9C, symSize: 0x19C }
  - { offset: 0x6B246, size: 0x8, addend: 0x0, symName: _decodeFlags, symObjAddr: 0x2FA00, symBinAddr: 0x41E38, symSize: 0x198 }
  - { offset: 0x6B29A, size: 0x8, addend: 0x0, symName: _btreeCellSizeCheck, symObjAddr: 0x2FB98, symBinAddr: 0x41FD0, symSize: 0x190 }
  - { offset: 0x6B35A, size: 0x8, addend: 0x0, symName: _cellSizePtr, symObjAddr: 0x2FD28, symBinAddr: 0x42160, symSize: 0x220 }
  - { offset: 0x6B3F2, size: 0x8, addend: 0x0, symName: _btreeParseCellPtr, symObjAddr: 0x2FF48, symBinAddr: 0x42380, symSize: 0x234 }
  - { offset: 0x6B4B8, size: 0x8, addend: 0x0, symName: _cellSizePtrNoPayload, symObjAddr: 0x3017C, symBinAddr: 0x425B4, symSize: 0x88 }
  - { offset: 0x6B51E, size: 0x8, addend: 0x0, symName: _btreeParseCellPtrNoPayload, symObjAddr: 0x30204, symBinAddr: 0x4263C, symSize: 0x58 }
  - { offset: 0x6B56E, size: 0x8, addend: 0x0, symName: _btreeParseCellPtrIndex, symObjAddr: 0x3025C, symBinAddr: 0x42694, symSize: 0x180 }
  - { offset: 0x6B602, size: 0x8, addend: 0x0, symName: _btreeParseCellAdjustSizeForOverflow, symObjAddr: 0x303DC, symBinAddr: 0x42814, symSize: 0xC8 }
  - { offset: 0x6B688, size: 0x8, addend: 0x0, symName: _sqlite3GetVarint, symObjAddr: 0x304A4, symBinAddr: 0x428DC, symSize: 0x50C }
  - { offset: 0x6B6F4, size: 0x8, addend: 0x0, symName: _pagerFixMaplimit, symObjAddr: 0x309B0, symBinAddr: 0x42DE8, symSize: 0x98 }
  - { offset: 0x6B74A, size: 0x8, addend: 0x0, symName: _sqlite3InvokeBusyHandler, symObjAddr: 0x30A48, symBinAddr: 0x42E80, symSize: 0xA4 }
  - { offset: 0x6B78C, size: 0x8, addend: 0x0, symName: _sqlite3PageMalloc, symObjAddr: 0x30AEC, symBinAddr: 0x42F24, symSize: 0x24 }
  - { offset: 0x6B7B8, size: 0x8, addend: 0x0, symName: _pcache1Alloc, symObjAddr: 0x30B10, symBinAddr: 0x42F48, symSize: 0x140 }
  - { offset: 0x6B812, size: 0x8, addend: 0x0, symName: _pagerFreeMapHdrs, symObjAddr: 0x30C50, symBinAddr: 0x43088, symSize: 0x5C }
  - { offset: 0x6B85A, size: 0x8, addend: 0x0, symName: _databaseIsUnmoved, symObjAddr: 0x30CAC, symBinAddr: 0x430E4, symSize: 0xB8 }
  - { offset: 0x6B8A6, size: 0x8, addend: 0x0, symName: _sqlite3WalClose, symObjAddr: 0x30D64, symBinAddr: 0x4319C, symSize: 0x190 }
  - { offset: 0x6B95E, size: 0x8, addend: 0x0, symName: _pagerSyncHotJournal, symObjAddr: 0x30EF4, symBinAddr: 0x4332C, symSize: 0x74 }
  - { offset: 0x6B99A, size: 0x8, addend: 0x0, symName: _sqlite3PcacheClose, symObjAddr: 0x30F68, symBinAddr: 0x433A0, symSize: 0x34 }
  - { offset: 0x6B9C2, size: 0x8, addend: 0x0, symName: _sqlite3WalCheckpoint, symObjAddr: 0x30F9C, symBinAddr: 0x433D4, symSize: 0x2EC }
  - { offset: 0x6BABE, size: 0x8, addend: 0x0, symName: _walBusyLock, symObjAddr: 0x31288, symBinAddr: 0x436C0, symSize: 0xA0 }
  - { offset: 0x6BB3A, size: 0x8, addend: 0x0, symName: _walPagesize, symObjAddr: 0x31328, symBinAddr: 0x43760, symSize: 0x2C }
  - { offset: 0x6BB66, size: 0x8, addend: 0x0, symName: _walCheckpoint, symObjAddr: 0x31354, symBinAddr: 0x4378C, symSize: 0x644 }
  - { offset: 0x6BD7F, size: 0x8, addend: 0x0, symName: _walIteratorInit, symObjAddr: 0x31998, symBinAddr: 0x43DD0, symSize: 0x300 }
  - { offset: 0x6BE97, size: 0x8, addend: 0x0, symName: _walIteratorNext, symObjAddr: 0x31C98, symBinAddr: 0x440D0, symSize: 0x14C }
  - { offset: 0x6BF4F, size: 0x8, addend: 0x0, symName: _walIteratorFree, symObjAddr: 0x31DE4, symBinAddr: 0x4421C, symSize: 0x24 }
  - { offset: 0x6BF77, size: 0x8, addend: 0x0, symName: _walMergesort, symObjAddr: 0x31E08, symBinAddr: 0x44240, symSize: 0x204 }
  - { offset: 0x6C094, size: 0x8, addend: 0x0, symName: _walMerge, symObjAddr: 0x3200C, symBinAddr: 0x44444, symSize: 0x1EC }
  - { offset: 0x6C18A, size: 0x8, addend: 0x0, symName: _sqlite3PagerSetCachesize, symObjAddr: 0x321F8, symBinAddr: 0x44630, symSize: 0x30 }
  - { offset: 0x6C1C2, size: 0x8, addend: 0x0, symName: _sqlite3PcacheSetCachesize, symObjAddr: 0x32228, symBinAddr: 0x44660, symSize: 0x60 }
  - { offset: 0x6C1FA, size: 0x8, addend: 0x0, symName: _btreeLockCarefully, symObjAddr: 0x32288, symBinAddr: 0x446C0, symSize: 0xF8 }
  - { offset: 0x6C232, size: 0x8, addend: 0x0, symName: _unlockBtreeMutex, symObjAddr: 0x32380, symBinAddr: 0x447B8, symSize: 0x3C }
  - { offset: 0x6C26A, size: 0x8, addend: 0x0, symName: _lockBtreeMutex, symObjAddr: 0x323BC, symBinAddr: 0x447F4, symSize: 0x4C }
  - { offset: 0x6C292, size: 0x8, addend: 0x0, symName: _querySharedCacheTableLock, symObjAddr: 0x32408, symBinAddr: 0x44840, symSize: 0x124 }
  - { offset: 0x6C2FE, size: 0x8, addend: 0x0, symName: _lockBtree, symObjAddr: 0x3252C, symBinAddr: 0x44964, symSize: 0x4AC }
  - { offset: 0x6C3FF, size: 0x8, addend: 0x0, symName: _sqlite3PagerBegin, symObjAddr: 0x329D8, symBinAddr: 0x44E10, symSize: 0x198 }
  - { offset: 0x6C45B, size: 0x8, addend: 0x0, symName: _newDatabase, symObjAddr: 0x32B70, symBinAddr: 0x44FA8, symSize: 0x198 }
  - { offset: 0x6C4C1, size: 0x8, addend: 0x0, symName: _unlockBtreeIfUnused, symObjAddr: 0x32D08, symBinAddr: 0x45140, symSize: 0x5C }
  - { offset: 0x6C50D, size: 0x8, addend: 0x0, symName: _sqlite3PagerOpenSavepoint, symObjAddr: 0x32D64, symBinAddr: 0x4519C, symSize: 0x68 }
  - { offset: 0x6C549, size: 0x8, addend: 0x0, symName: _sqlite3PagerSharedLock, symObjAddr: 0x32DCC, symBinAddr: 0x45204, symSize: 0x3E0 }
  - { offset: 0x6C62E, size: 0x8, addend: 0x0, symName: _btreeGetPage, symObjAddr: 0x331AC, symBinAddr: 0x455E4, symSize: 0x80 }
  - { offset: 0x6C6B8, size: 0x8, addend: 0x0, symName: _sqlite3PagerOpenWal, symObjAddr: 0x3322C, symBinAddr: 0x45664, symSize: 0xC0 }
  - { offset: 0x6C704, size: 0x8, addend: 0x0, symName: _releasePageOne, symObjAddr: 0x332EC, symBinAddr: 0x45724, symSize: 0x28 }
  - { offset: 0x6C730, size: 0x8, addend: 0x0, symName: _freeTempSpace, symObjAddr: 0x33314, symBinAddr: 0x4574C, symSize: 0x54 }
  - { offset: 0x6C75C, size: 0x8, addend: 0x0, symName: _sqlite3WritableSchema, symObjAddr: 0x33368, symBinAddr: 0x457A0, symSize: 0x2C }
  - { offset: 0x6C78C, size: 0x8, addend: 0x0, symName: _hasHotJournal, symObjAddr: 0x33394, symBinAddr: 0x457CC, symSize: 0x248 }
  - { offset: 0x6C880, size: 0x8, addend: 0x0, symName: _pagerOpenWalIfPresent, symObjAddr: 0x335DC, symBinAddr: 0x45A14, symSize: 0x110 }
  - { offset: 0x6C8F8, size: 0x8, addend: 0x0, symName: _pagerBeginReadTransaction, symObjAddr: 0x336EC, symBinAddr: 0x45B24, symSize: 0x98 }
  - { offset: 0x6C944, size: 0x8, addend: 0x0, symName: _pagerPagecount, symObjAddr: 0x33784, symBinAddr: 0x45BBC, symSize: 0xE8 }
  - { offset: 0x6C9BE, size: 0x8, addend: 0x0, symName: _sqlite3OsCheckReservedLock, symObjAddr: 0x3386C, symBinAddr: 0x45CA4, symSize: 0x38 }
  - { offset: 0x6C9FA, size: 0x8, addend: 0x0, symName: _sqlite3WalBeginReadTransaction, symObjAddr: 0x338A4, symBinAddr: 0x45CDC, symSize: 0x60 }
  - { offset: 0x6CA56, size: 0x8, addend: 0x0, symName: _sqlite3WalDbsize, symObjAddr: 0x33904, symBinAddr: 0x45D3C, symSize: 0x48 }
  - { offset: 0x6CA82, size: 0x8, addend: 0x0, symName: _btreePageFromDbPage, symObjAddr: 0x3394C, symBinAddr: 0x45D84, symSize: 0xA0 }
  - { offset: 0x6CAE8, size: 0x8, addend: 0x0, symName: _sqlite3PagerWalSupported, symObjAddr: 0x339EC, symBinAddr: 0x45E24, symSize: 0xA4 }
  - { offset: 0x6CB24, size: 0x8, addend: 0x0, symName: _pagerOpenWal, symObjAddr: 0x33A90, symBinAddr: 0x45EC8, symSize: 0x94 }
  - { offset: 0x6CB60, size: 0x8, addend: 0x0, symName: _pagerExclusiveLock, symObjAddr: 0x33B24, symBinAddr: 0x45F5C, symSize: 0x4C }
  - { offset: 0x6CB9C, size: 0x8, addend: 0x0, symName: _sqlite3WalOpen, symObjAddr: 0x33B70, symBinAddr: 0x45FA8, symSize: 0x1C0 }
  - { offset: 0x6CC66, size: 0x8, addend: 0x0, symName: _sqlite3PagerUnrefPageOne, symObjAddr: 0x33D30, symBinAddr: 0x46168, symSize: 0x38 }
  - { offset: 0x6CC9E, size: 0x8, addend: 0x0, symName: _sqlite3WalBeginWriteTransaction, symObjAddr: 0x33D68, symBinAddr: 0x461A0, symSize: 0xD0 }
  - { offset: 0x6CCDA, size: 0x8, addend: 0x0, symName: _zeroPage, symObjAddr: 0x33E38, symBinAddr: 0x46270, symSize: 0x1D0 }
  - { offset: 0x6CD60, size: 0x8, addend: 0x0, symName: _pagerOpenSavepoint, symObjAddr: 0x34008, symBinAddr: 0x46440, symSize: 0x228 }
  - { offset: 0x6CDDC, size: 0x8, addend: 0x0, symName: _sqlite3WalSavepoint, symObjAddr: 0x34230, symBinAddr: 0x46668, symSize: 0x54 }
  - { offset: 0x6CE14, size: 0x8, addend: 0x0, symName: _btreePagecount, symObjAddr: 0x34284, symBinAddr: 0x466BC, symSize: 0x18 }
  - { offset: 0x6CE44, size: 0x8, addend: 0x0, symName: _sqlite3PagerIsMemdb, symObjAddr: 0x3429C, symBinAddr: 0x466D4, symSize: 0x18 }
  - { offset: 0x6CE70, size: 0x8, addend: 0x0, symName: _pagerWriteLargeSector, symObjAddr: 0x342B4, symBinAddr: 0x466EC, symSize: 0x308 }
  - { offset: 0x6CF68, size: 0x8, addend: 0x0, symName: _pager_write, symObjAddr: 0x345BC, symBinAddr: 0x469F4, symSize: 0x184 }
  - { offset: 0x6CFB4, size: 0x8, addend: 0x0, symName: _pager_open_journal, symObjAddr: 0x34740, symBinAddr: 0x46B78, symSize: 0x1FC }
  - { offset: 0x6D02E, size: 0x8, addend: 0x0, symName: _pagerAddPageToRollbackJournal, symObjAddr: 0x3493C, symBinAddr: 0x46D74, symSize: 0x180 }
  - { offset: 0x6D0AA, size: 0x8, addend: 0x0, symName: _sqlite3MemJournalOpen, symObjAddr: 0x34ABC, symBinAddr: 0x46EF4, symSize: 0x34 }
  - { offset: 0x6D0D6, size: 0x8, addend: 0x0, symName: _jrnlBufferSize, symObjAddr: 0x34AF0, symBinAddr: 0x46F28, symSize: 0x14 }
  - { offset: 0x6D102, size: 0x8, addend: 0x0, symName: _pager_incr_changecounter, symObjAddr: 0x34B04, symBinAddr: 0x46F3C, symSize: 0xB0 }
  - { offset: 0x6D16C, size: 0x8, addend: 0x0, symName: _writeSuperJournal, symObjAddr: 0x34BB4, symBinAddr: 0x46FEC, symSize: 0x25C }
  - { offset: 0x6D1F8, size: 0x8, addend: 0x0, symName: _sqlite3PagerCommitPhaseTwo, symObjAddr: 0x34E10, symBinAddr: 0x47248, symSize: 0xCC }
  - { offset: 0x6D234, size: 0x8, addend: 0x0, symName: _btreeClearHasContent, symObjAddr: 0x34EDC, symBinAddr: 0x47314, symSize: 0x30 }
  - { offset: 0x6D25C, size: 0x8, addend: 0x0, symName: _btreeEndTransaction, symObjAddr: 0x34F0C, symBinAddr: 0x47344, symSize: 0xD8 }
  - { offset: 0x6D2AC, size: 0x8, addend: 0x0, symName: _downgradeAllSharedCacheTableLocks, symObjAddr: 0x34FE4, symBinAddr: 0x4741C, symSize: 0x8C }
  - { offset: 0x6D302, size: 0x8, addend: 0x0, symName: _clearAllSharedCacheTableLocks, symObjAddr: 0x35070, symBinAddr: 0x474A8, symSize: 0x114 }
  - { offset: 0x6D368, size: 0x8, addend: 0x0, symName: _autoVacuumCommit, symObjAddr: 0x35184, symBinAddr: 0x475BC, symSize: 0x270 }
  - { offset: 0x6D412, size: 0x8, addend: 0x0, symName: _invalidateAllOverflowCache, symObjAddr: 0x353F4, symBinAddr: 0x4782C, symSize: 0x50 }
  - { offset: 0x6D44A, size: 0x8, addend: 0x0, symName: _ptrmapPageno, symObjAddr: 0x35444, symBinAddr: 0x4787C, symSize: 0xB4 }
  - { offset: 0x6D4C2, size: 0x8, addend: 0x0, symName: _finalDbSize, symObjAddr: 0x354F8, symBinAddr: 0x47930, symSize: 0x15C }
  - { offset: 0x6D54C, size: 0x8, addend: 0x0, symName: _saveAllCursors, symObjAddr: 0x35654, symBinAddr: 0x47A8C, symSize: 0xE0 }
  - { offset: 0x6D5A8, size: 0x8, addend: 0x0, symName: _incrVacuumStep, symObjAddr: 0x35734, symBinAddr: 0x47B6C, symSize: 0x318 }
  - { offset: 0x6D705, size: 0x8, addend: 0x0, symName: _saveCursorsOnList, symObjAddr: 0x35A4C, symBinAddr: 0x47E84, symSize: 0xE4 }
  - { offset: 0x6D76F, size: 0x8, addend: 0x0, symName: _saveCursorPosition, symObjAddr: 0x35B30, symBinAddr: 0x47F68, symSize: 0xB4 }
  - { offset: 0x6D7AB, size: 0x8, addend: 0x0, symName: _btreeReleaseAllCursorPages, symObjAddr: 0x35BE4, symBinAddr: 0x4801C, symSize: 0x90 }
  - { offset: 0x6D7E3, size: 0x8, addend: 0x0, symName: _saveCursorKey, symObjAddr: 0x35C74, symBinAddr: 0x480AC, symSize: 0xFC }
  - { offset: 0x6D83D, size: 0x8, addend: 0x0, symName: _sqlite3BtreeIntegerKey, symObjAddr: 0x35D70, symBinAddr: 0x481A8, symSize: 0x2C }
  - { offset: 0x6D86D, size: 0x8, addend: 0x0, symName: _sqlite3BtreePayloadSize, symObjAddr: 0x35D9C, symBinAddr: 0x481D4, symSize: 0x2C }
  - { offset: 0x6D89D, size: 0x8, addend: 0x0, symName: _sqlite3BtreePayload, symObjAddr: 0x35DC8, symBinAddr: 0x48200, symSize: 0x40 }
  - { offset: 0x6D903, size: 0x8, addend: 0x0, symName: _getCellInfo, symObjAddr: 0x35E08, symBinAddr: 0x48240, symSize: 0x60 }
  - { offset: 0x6D92F, size: 0x8, addend: 0x0, symName: _btreeParseCell, symObjAddr: 0x35E68, symBinAddr: 0x482A0, symSize: 0x84 }
  - { offset: 0x6D97F, size: 0x8, addend: 0x0, symName: _accessPayload, symObjAddr: 0x35EEC, symBinAddr: 0x48324, symSize: 0x530 }
  - { offset: 0x6DB24, size: 0x8, addend: 0x0, symName: _copyPayload, symObjAddr: 0x3641C, symBinAddr: 0x48854, symSize: 0x98 }
  - { offset: 0x6DBBC, size: 0x8, addend: 0x0, symName: _getOverflowPage, symObjAddr: 0x364B4, symBinAddr: 0x488EC, symSize: 0x1FC }
  - { offset: 0x6DC9C, size: 0x8, addend: 0x0, symName: _ptrmapGet, symObjAddr: 0x366B0, symBinAddr: 0x48AE8, symSize: 0x150 }
  - { offset: 0x6DD5C, size: 0x8, addend: 0x0, symName: _releasePage, symObjAddr: 0x36800, symBinAddr: 0x48C38, symSize: 0x34 }
  - { offset: 0x6DD88, size: 0x8, addend: 0x0, symName: _releasePageNotNull, symObjAddr: 0x36834, symBinAddr: 0x48C6C, symSize: 0x28 }
  - { offset: 0x6DDB4, size: 0x8, addend: 0x0, symName: _allocateBtreePage, symObjAddr: 0x3685C, symBinAddr: 0x48C94, symSize: 0xADC }
  - { offset: 0x6E05F, size: 0x8, addend: 0x0, symName: _relocatePage, symObjAddr: 0x37338, symBinAddr: 0x49770, symSize: 0x214 }
  - { offset: 0x6E151, size: 0x8, addend: 0x0, symName: _btreeGetUnusedPage, symObjAddr: 0x3754C, symBinAddr: 0x49984, symSize: 0xBC }
  - { offset: 0x6E1C9, size: 0x8, addend: 0x0, symName: _sqlite3AbsInt32, symObjAddr: 0x37608, symBinAddr: 0x49A40, symSize: 0x60 }
  - { offset: 0x6E1F5, size: 0x8, addend: 0x0, symName: _btreeGetHasContent, symObjAddr: 0x37668, symBinAddr: 0x49AA0, symSize: 0x98 }
  - { offset: 0x6E241, size: 0x8, addend: 0x0, symName: _sqlite3BitvecSize, symObjAddr: 0x37700, symBinAddr: 0x49B38, symSize: 0x18 }
  - { offset: 0x6E26D, size: 0x8, addend: 0x0, symName: _sqlite3PagerMovepage, symObjAddr: 0x37718, symBinAddr: 0x49B50, symSize: 0x260 }
  - { offset: 0x6E327, size: 0x8, addend: 0x0, symName: _setChildPtrmaps, symObjAddr: 0x37978, symBinAddr: 0x49DB0, symSize: 0x1B4 }
  - { offset: 0x6E411, size: 0x8, addend: 0x0, symName: _ptrmapPut, symObjAddr: 0x37B2C, symBinAddr: 0x49F64, symSize: 0x1C8 }
  - { offset: 0x6E4F2, size: 0x8, addend: 0x0, symName: _modifyPagePointer, symObjAddr: 0x37CF4, symBinAddr: 0x4A12C, symSize: 0x2E8 }
  - { offset: 0x6E5DC, size: 0x8, addend: 0x0, symName: _sqlite3PcacheMove, symObjAddr: 0x37FDC, symBinAddr: 0x4A414, symSize: 0x94 }
  - { offset: 0x6E624, size: 0x8, addend: 0x0, symName: _sqlite3BitvecClear, symObjAddr: 0x38070, symBinAddr: 0x4A4A8, symSize: 0x240 }
  - { offset: 0x6E6D6, size: 0x8, addend: 0x0, symName: _ptrmapPutOvflPtr, symObjAddr: 0x382B0, symBinAddr: 0x4A6E8, symSize: 0xF4 }
  - { offset: 0x6E76A, size: 0x8, addend: 0x0, symName: _sqlite3BtreeTripAllCursors, symObjAddr: 0x383A4, symBinAddr: 0x4A7DC, symSize: 0x120 }
  - { offset: 0x6E7E2, size: 0x8, addend: 0x0, symName: _btreeSetNPage, symObjAddr: 0x384C4, symBinAddr: 0x4A8FC, symSize: 0x60 }
  - { offset: 0x6E832, size: 0x8, addend: 0x0, symName: _sqlite3BtreeClearCursor, symObjAddr: 0x38524, symBinAddr: 0x4A95C, symSize: 0x3C }
  - { offset: 0x6E85A, size: 0x8, addend: 0x0, symName: _releaseMemArray, symObjAddr: 0x38560, symBinAddr: 0x4A998, symSize: 0x148 }
  - { offset: 0x6E8CA, size: 0x8, addend: 0x0, symName: _vdbeFreeOpArray, symObjAddr: 0x386A8, symBinAddr: 0x4AAE0, symSize: 0xB4 }
  - { offset: 0x6E93A, size: 0x8, addend: 0x0, symName: _freeP4, symObjAddr: 0x3875C, symBinAddr: 0x4AB94, symSize: 0x14C }
  - { offset: 0x6E98A, size: 0x8, addend: 0x0, symName: _freeP4FuncCtx, symObjAddr: 0x388A8, symBinAddr: 0x4ACE0, symSize: 0x3C }
  - { offset: 0x6E9C8, size: 0x8, addend: 0x0, symName: _sqlite3KeyInfoUnref, symObjAddr: 0x388E4, symBinAddr: 0x4AD1C, symSize: 0x60 }
  - { offset: 0x6E9F4, size: 0x8, addend: 0x0, symName: _freeEphemeralFunction, symObjAddr: 0x38944, symBinAddr: 0x4AD7C, symSize: 0x40 }
  - { offset: 0x6EA32, size: 0x8, addend: 0x0, symName: _freeP4Mem, symObjAddr: 0x38984, symBinAddr: 0x4ADBC, symSize: 0x50 }
  - { offset: 0x6EA70, size: 0x8, addend: 0x0, symName: _sqlite3VtabUnlock, symObjAddr: 0x389D4, symBinAddr: 0x4AE0C, symSize: 0x9C }
  - { offset: 0x6EACE, size: 0x8, addend: 0x0, symName: _sqlite3VtabModuleUnref, symObjAddr: 0x38A70, symBinAddr: 0x4AEA8, symSize: 0x78 }
  - { offset: 0x6EB0C, size: 0x8, addend: 0x0, symName: _sqlite3OsCurrentTimeInt64, symObjAddr: 0x38AE8, symBinAddr: 0x4AF20, symSize: 0xA0 }
  - { offset: 0x6EB76, size: 0x8, addend: 0x0, symName: _sqlite3VdbeDelete, symObjAddr: 0x38B88, symBinAddr: 0x4AFC0, symSize: 0xBC }
  - { offset: 0x6EBB4, size: 0x8, addend: 0x0, symName: _apiHandleError, symObjAddr: 0x38C44, symBinAddr: 0x4B07C, symSize: 0x80 }
  - { offset: 0x6EBF0, size: 0x8, addend: 0x0, symName: _sqlite3VdbeHalt, symObjAddr: 0x38CC4, symBinAddr: 0x4B0FC, symSize: 0x600 }
  - { offset: 0x6EC88, size: 0x8, addend: 0x0, symName: _sqlite3VdbeTransferError, symObjAddr: 0x392C4, symBinAddr: 0x4B6FC, symSize: 0xF0 }
  - { offset: 0x6ECDC, size: 0x8, addend: 0x0, symName: _closeAllCursors, symObjAddr: 0x393B4, symBinAddr: 0x4B7EC, symSize: 0x118 }
  - { offset: 0x6ED48, size: 0x8, addend: 0x0, symName: _sqlite3VdbeEnter, symObjAddr: 0x394CC, symBinAddr: 0x4B904, symSize: 0xE4 }
  - { offset: 0x6EDBC, size: 0x8, addend: 0x0, symName: _sqlite3RollbackAll, symObjAddr: 0x395B0, symBinAddr: 0x4B9E8, symSize: 0x19C }
  - { offset: 0x6EE50, size: 0x8, addend: 0x0, symName: _sqlite3CloseSavepoints, symObjAddr: 0x3974C, symBinAddr: 0x4BB84, symSize: 0x74 }
  - { offset: 0x6EE9C, size: 0x8, addend: 0x0, symName: _sqlite3VdbeCheckFk, symObjAddr: 0x397C0, symBinAddr: 0x4BBF8, symSize: 0xB8 }
  - { offset: 0x6EEF0, size: 0x8, addend: 0x0, symName: _sqlite3VdbeLeave, symObjAddr: 0x39878, symBinAddr: 0x4BCB0, symSize: 0x3C }
  - { offset: 0x6EF1C, size: 0x8, addend: 0x0, symName: _sqlite3CommitInternalChanges, symObjAddr: 0x3A0D4, symBinAddr: 0x4C50C, symSize: 0x20 }
  - { offset: 0x6EF48, size: 0x8, addend: 0x0, symName: _sqlite3VdbeCloseStatement, symObjAddr: 0x3A0F4, symBinAddr: 0x4C52C, symSize: 0x64 }
  - { offset: 0x6EF8A, size: 0x8, addend: 0x0, symName: _sqlite3VdbeSetChanges, symObjAddr: 0x3A158, symBinAddr: 0x4C590, symSize: 0x34 }
  - { offset: 0x6EFC8, size: 0x8, addend: 0x0, symName: _sqlite3VdbeFrameRestore, symObjAddr: 0x3A18C, symBinAddr: 0x4C5C4, symSize: 0x104 }
  - { offset: 0x6F00A, size: 0x8, addend: 0x0, symName: _closeCursorsInFrame, symObjAddr: 0x3A290, symBinAddr: 0x4C6C8, symSize: 0xA8 }
  - { offset: 0x6F076, size: 0x8, addend: 0x0, symName: _sqlite3VdbeFrameDelete, symObjAddr: 0x3A338, symBinAddr: 0x4C770, symSize: 0xD4 }
  - { offset: 0x6F0D8, size: 0x8, addend: 0x0, symName: _sqlite3VdbeDeleteAuxData, symObjAddr: 0x3A40C, symBinAddr: 0x4C844, symSize: 0x10C }
  - { offset: 0x6F15A, size: 0x8, addend: 0x0, symName: _sqlite3VdbeFreeCursor, symObjAddr: 0x3A518, symBinAddr: 0x4C950, symSize: 0x104 }
  - { offset: 0x6F1CA, size: 0x8, addend: 0x0, symName: _sqlite3VdbeSorterClose, symObjAddr: 0x3A61C, symBinAddr: 0x4CA54, symSize: 0x68 }
  - { offset: 0x6F21A, size: 0x8, addend: 0x0, symName: _sqlite3BtreeClose, symObjAddr: 0x3A684, symBinAddr: 0x4CABC, symSize: 0x18C }
  - { offset: 0x6F28E, size: 0x8, addend: 0x0, symName: _sqlite3BtreeCloseCursor, symObjAddr: 0x3A810, symBinAddr: 0x4CC48, symSize: 0x110 }
  - { offset: 0x6F310, size: 0x8, addend: 0x0, symName: _sqlite3VdbeSorterReset, symObjAddr: 0x3A920, symBinAddr: 0x4CD58, symSize: 0x144 }
  - { offset: 0x6F380, size: 0x8, addend: 0x0, symName: _vdbeSorterJoinAll, symObjAddr: 0x3AA64, symBinAddr: 0x4CE9C, symSize: 0xA0 }
  - { offset: 0x6F418, size: 0x8, addend: 0x0, symName: _vdbePmaReaderClear, symObjAddr: 0x3AB04, symBinAddr: 0x4CF3C, symSize: 0x80 }
  - { offset: 0x6F444, size: 0x8, addend: 0x0, symName: _vdbeMergeEngineFree, symObjAddr: 0x3AB84, symBinAddr: 0x4CFBC, symSize: 0x84 }
  - { offset: 0x6F482, size: 0x8, addend: 0x0, symName: _vdbeSortSubtaskCleanup, symObjAddr: 0x3AC08, symBinAddr: 0x4D040, symSize: 0xB8 }
  - { offset: 0x6F4C0, size: 0x8, addend: 0x0, symName: _vdbeSorterRecordFree, symObjAddr: 0x3ACC0, symBinAddr: 0x4D0F8, symSize: 0x60 }
  - { offset: 0x6F522, size: 0x8, addend: 0x0, symName: _vdbeSorterJoinThread, symObjAddr: 0x3AD20, symBinAddr: 0x4D158, symSize: 0x68 }
  - { offset: 0x6F584, size: 0x8, addend: 0x0, symName: _sqlite3ThreadJoin, symObjAddr: 0x3AD88, symBinAddr: 0x4D1C0, symSize: 0x9C }
  - { offset: 0x6F5D0, size: 0x8, addend: 0x0, symName: _vdbeIncrFree, symObjAddr: 0x3AE24, symBinAddr: 0x4D25C, symSize: 0xA0 }
  - { offset: 0x6F5FC, size: 0x8, addend: 0x0, symName: _sqlite3OsCloseFree, symObjAddr: 0x3AEC4, symBinAddr: 0x4D2FC, symSize: 0x2C }
  - { offset: 0x6F624, size: 0x8, addend: 0x0, symName: _removeFromSharingList, symObjAddr: 0x3AEF0, symBinAddr: 0x4D328, symSize: 0x128 }
  - { offset: 0x6F68A, size: 0x8, addend: 0x0, symName: _sqlite3VtabRollback, symObjAddr: 0x3B018, symBinAddr: 0x4D450, symSize: 0x2C }
  - { offset: 0x6F6BA, size: 0x8, addend: 0x0, symName: _callFinaliser, symObjAddr: 0x3B044, symBinAddr: 0x4D47C, symSize: 0xFC }
  - { offset: 0x6F77C, size: 0x8, addend: 0x0, symName: _sqlite3VdbeError, symObjAddr: 0x3B140, symBinAddr: 0x4D578, symSize: 0x5C }
  - { offset: 0x6F7CD, size: 0x8, addend: 0x0, symName: _vdbeLeave, symObjAddr: 0x3B19C, symBinAddr: 0x4D5D4, symSize: 0xD0 }
  - { offset: 0x6F841, size: 0x8, addend: 0x0, symName: _sqlite3VtabSync, symObjAddr: 0x3B26C, symBinAddr: 0x4D6A4, symSize: 0xF8 }
  - { offset: 0x6F8EB, size: 0x8, addend: 0x0, symName: _sqlite3VtabCommit, symObjAddr: 0x3B364, symBinAddr: 0x4D79C, symSize: 0x2C }
  - { offset: 0x6F91B, size: 0x8, addend: 0x0, symName: _sqlite3OsOpenMalloc, symObjAddr: 0x3B390, symBinAddr: 0x4D7C8, symSize: 0xA0 }
  - { offset: 0x6F9A7, size: 0x8, addend: 0x0, symName: _sqlite3BtreeGetJournalname, symObjAddr: 0x3B430, symBinAddr: 0x4D868, symSize: 0x2C }
  - { offset: 0x6F9D7, size: 0x8, addend: 0x0, symName: _sqlite3VtabImportErrmsg, symObjAddr: 0x3B45C, symBinAddr: 0x4D894, symSize: 0x7C }
  - { offset: 0x6FA35, size: 0x8, addend: 0x0, symName: _sqlite3PagerJournalname, symObjAddr: 0x3B4D8, symBinAddr: 0x4D910, symSize: 0x18 }
  - { offset: 0x6FA61, size: 0x8, addend: 0x0, symName: _vdbeCloseStatement, symObjAddr: 0x3B4F0, symBinAddr: 0x4D928, symSize: 0x1B0 }
  - { offset: 0x6FB1D, size: 0x8, addend: 0x0, symName: _sqlite3BtreeSavepoint, symObjAddr: 0x3B6A0, symBinAddr: 0x4DAD8, symSize: 0x110 }
  - { offset: 0x6FBA3, size: 0x8, addend: 0x0, symName: _sqlite3VtabSavepoint, symObjAddr: 0x3B7B0, symBinAddr: 0x4DBE8, symSize: 0x194 }
  - { offset: 0x6FC7B, size: 0x8, addend: 0x0, symName: _sqlite3VtabLock, symObjAddr: 0x3B944, symBinAddr: 0x4DD7C, symSize: 0x20 }
  - { offset: 0x6FCA7, size: 0x8, addend: 0x0, symName: _vdbeMemClear, symObjAddr: 0x3B964, symBinAddr: 0x4DD9C, symSize: 0x78 }
  - { offset: 0x6FCD3, size: 0x8, addend: 0x0, symName: _vdbeMemClearExternAndSetNull, symObjAddr: 0x3B9DC, symBinAddr: 0x4DE14, symSize: 0x74 }
  - { offset: 0x6FCFF, size: 0x8, addend: 0x0, symName: _sqlite3VdbeMemFinalize, symObjAddr: 0x3BA50, symBinAddr: 0x4DE88, symSize: 0xD0 }
  - { offset: 0x6FD66, size: 0x8, addend: 0x0, symName: _sqlite3VdbeMemGrow, symObjAddr: 0x3BB20, symBinAddr: 0x4DF58, symSize: 0x224 }
  - { offset: 0x6FDBA, size: 0x8, addend: 0x0, symName: _sqlite3DbReallocOrFree, symObjAddr: 0x3BD44, symBinAddr: 0x4E17C, symSize: 0x58 }
  - { offset: 0x6FE16, size: 0x8, addend: 0x0, symName: _valueBytes, symObjAddr: 0x3BD9C, symBinAddr: 0x4E1D4, symSize: 0x54 }
  - { offset: 0x6FE58, size: 0x8, addend: 0x0, symName: _valueToText, symObjAddr: 0x3BDF0, symBinAddr: 0x4E228, symSize: 0x14C }
  - { offset: 0x6FE9A, size: 0x8, addend: 0x0, symName: _sqlite3VdbeChangeEncoding, symObjAddr: 0x3BF3C, symBinAddr: 0x4E374, symSize: 0x74 }
  - { offset: 0x6FEEE, size: 0x8, addend: 0x0, symName: _sqlite3VdbeMemNulTerminate, symObjAddr: 0x3BFB0, symBinAddr: 0x4E3E8, symSize: 0x54 }
  - { offset: 0x6FF1E, size: 0x8, addend: 0x0, symName: _sqlite3VdbeMemStringify, symObjAddr: 0x3C004, symBinAddr: 0x4E43C, symSize: 0xD8 }
  - { offset: 0x6FF84, size: 0x8, addend: 0x0, symName: _sqlite3VdbeMemTranslate, symObjAddr: 0x3C0DC, symBinAddr: 0x4E514, symSize: 0xB34 }
  - { offset: 0x7009B, size: 0x8, addend: 0x0, symName: _vdbeMemAddTerminator, symObjAddr: 0x3CC10, symBinAddr: 0x4F048, symSize: 0xB4 }
  - { offset: 0x700CB, size: 0x8, addend: 0x0, symName: _sqlite3VdbeMemClearAndResize, symObjAddr: 0x3CCC4, symBinAddr: 0x4F0FC, symSize: 0x80 }
  - { offset: 0x7010D, size: 0x8, addend: 0x0, symName: _vdbeMemRenderNum, symObjAddr: 0x3CD44, symBinAddr: 0x4F17C, symSize: 0xC4 }
  - { offset: 0x7016F, size: 0x8, addend: 0x0, symName: _sqlite3Int64ToText, symObjAddr: 0x3CE08, symBinAddr: 0x4F240, symSize: 0x15C }
  - { offset: 0x701D7, size: 0x8, addend: 0x0, symName: _memRealValue, symObjAddr: 0x3CF64, symBinAddr: 0x4F39C, symSize: 0x48 }
  - { offset: 0x70219, size: 0x8, addend: 0x0, symName: _sqlite3AtoF, symObjAddr: 0x3CFAC, symBinAddr: 0x4F3E4, symSize: 0x9D0 }
  - { offset: 0x70397, size: 0x8, addend: 0x0, symName: _sqlite3Pow10, symObjAddr: 0x3D97C, symBinAddr: 0x4FDB4, symSize: 0x78 }
  - { offset: 0x703E3, size: 0x8, addend: 0x0, symName: _memIntValue, symObjAddr: 0x3DA60, symBinAddr: 0x4FE98, symSize: 0x44 }
  - { offset: 0x70425, size: 0x8, addend: 0x0, symName: _sqlite3Atoi64, symObjAddr: 0x3DAA4, symBinAddr: 0x4FEDC, symSize: 0x53C }
  - { offset: 0x70530, size: 0x8, addend: 0x0, symName: _compare2pow63, symObjAddr: 0x3DFE0, symBinAddr: 0x50418, symSize: 0xD4 }
  - { offset: 0x7059C, size: 0x8, addend: 0x0, symName: _sqlite3VdbeMemHandleBom, symObjAddr: 0x3E0B4, symBinAddr: 0x504EC, symSize: 0x168 }
  - { offset: 0x70616, size: 0x8, addend: 0x0, symName: _vdbeReleaseAndSetInt64, symObjAddr: 0x3E21C, symBinAddr: 0x50654, symSize: 0x40 }
  - { offset: 0x70654, size: 0x8, addend: 0x0, symName: _sqlite3NoopDestructor, symObjAddr: 0x3E25C, symBinAddr: 0x50694, symSize: 0x10 }
  - { offset: 0x70680, size: 0x8, addend: 0x0, symName: _sqlite3VdbeList, symObjAddr: 0x3E26C, symBinAddr: 0x506A4, symSize: 0x360 }
  - { offset: 0x70761, size: 0x8, addend: 0x0, symName: _doWalCallbacks, symObjAddr: 0x47820, symBinAddr: 0x59C58, symSize: 0x104 }
  - { offset: 0x707F5, size: 0x8, addend: 0x0, symName: _sqlite3VdbeNextOpcode, symObjAddr: 0x47924, symBinAddr: 0x59D5C, symSize: 0x3F4 }
  - { offset: 0x7094F, size: 0x8, addend: 0x0, symName: _out2Prerelease, symObjAddr: 0x482F4, symBinAddr: 0x5A72C, symSize: 0x84 }
  - { offset: 0x709A3, size: 0x8, addend: 0x0, symName: _sqlite3VdbeMemTooBig, symObjAddr: 0x48378, symBinAddr: 0x5A7B0, symSize: 0x88 }
  - { offset: 0x709F3, size: 0x8, addend: 0x0, symName: _sqlite3VdbeMemMove, symObjAddr: 0x48400, symBinAddr: 0x5A838, symSize: 0x50 }
  - { offset: 0x70A31, size: 0x8, addend: 0x0, symName: _sqlite3VdbeMemShallowCopy, symObjAddr: 0x48450, symBinAddr: 0x5A888, symSize: 0x9C }
  - { offset: 0x70A81, size: 0x8, addend: 0x0, symName: _numericType, symObjAddr: 0x484EC, symBinAddr: 0x5A924, symSize: 0x80 }
  - { offset: 0x70AB1, size: 0x8, addend: 0x0, symName: _sqlite3AddInt64, symObjAddr: 0x4856C, symBinAddr: 0x5A9A4, symSize: 0xCC }
  - { offset: 0x70AFD, size: 0x8, addend: 0x0, symName: _sqlite3SubInt64, symObjAddr: 0x48638, symBinAddr: 0x5AA70, symSize: 0x8C }
  - { offset: 0x70B39, size: 0x8, addend: 0x0, symName: _sqlite3MulInt64, symObjAddr: 0x486C4, symBinAddr: 0x5AAFC, symSize: 0x17C }
  - { offset: 0x70B85, size: 0x8, addend: 0x0, symName: _sqlite3VdbeMemIntegerify, symObjAddr: 0x48840, symBinAddr: 0x5AC78, symSize: 0x4C }
  - { offset: 0x70BB5, size: 0x8, addend: 0x0, symName: _applyAffinity, symObjAddr: 0x4888C, symBinAddr: 0x5ACC4, symSize: 0xF8 }
  - { offset: 0x70C05, size: 0x8, addend: 0x0, symName: _sqlite3VdbeMemRealify, symObjAddr: 0x48984, symBinAddr: 0x5ADBC, symSize: 0x4C }
  - { offset: 0x70C35, size: 0x8, addend: 0x0, symName: _sqlite3VdbeMemCast, symObjAddr: 0x489D0, symBinAddr: 0x5AE08, symSize: 0x174 }
  - { offset: 0x70C89, size: 0x8, addend: 0x0, symName: _sqlite3MemCompare, symObjAddr: 0x48B44, symBinAddr: 0x5AF7C, symSize: 0x2F8 }
  - { offset: 0x70D13, size: 0x8, addend: 0x0, symName: _sqlite3VdbeBooleanValue, symObjAddr: 0x48E3C, symBinAddr: 0x5B274, symSize: 0x88 }
  - { offset: 0x70D55, size: 0x8, addend: 0x0, symName: _sqlite3VdbeCursorMoveto, symObjAddr: 0x48EC4, symBinAddr: 0x5B2FC, symSize: 0xEC }
  - { offset: 0x70DC9, size: 0x8, addend: 0x0, symName: _sqlite3BtreePayloadFetch, symObjAddr: 0x48FB0, symBinAddr: 0x5B3E8, symSize: 0x2C }
  - { offset: 0x70E0B, size: 0x8, addend: 0x0, symName: _sqlite3GetVarint32, symObjAddr: 0x48FDC, symBinAddr: 0x5B414, symSize: 0x164 }
  - { offset: 0x70E95, size: 0x8, addend: 0x0, symName: _sqlite3VdbeMemFromBtreeZeroOffset, symObjAddr: 0x49140, symBinAddr: 0x5B578, symSize: 0x90 }
  - { offset: 0x70F0D, size: 0x8, addend: 0x0, symName: _sqlite3VdbeOneByteSerialTypeLen, symObjAddr: 0x491D0, symBinAddr: 0x5B608, symSize: 0x24 }
  - { offset: 0x70F3D, size: 0x8, addend: 0x0, symName: _sqlite3VdbeSerialTypeLen, symObjAddr: 0x491F4, symBinAddr: 0x5B62C, symSize: 0x58 }
  - { offset: 0x70F6D, size: 0x8, addend: 0x0, symName: _sqlite3VdbeMemFromBtree, symObjAddr: 0x49584, symBinAddr: 0x5B9BC, symSize: 0x100 }
  - { offset: 0x70FE5, size: 0x8, addend: 0x0, symName: _sqlite3VarintLen, symObjAddr: 0x49684, symBinAddr: 0x5BABC, symSize: 0x48 }
  - { offset: 0x71021, size: 0x8, addend: 0x0, symName: _sqlite3PutVarint, symObjAddr: 0x496CC, symBinAddr: 0x5BB04, symSize: 0xA8 }
  - { offset: 0x7105D, size: 0x8, addend: 0x0, symName: _sqlite3VdbeSerialPut, symObjAddr: 0x49774, symBinAddr: 0x5BBAC, symSize: 0x138 }
  - { offset: 0x710F5, size: 0x8, addend: 0x0, symName: _sqlite3BtreeRowCountEst, symObjAddr: 0x498AC, symBinAddr: 0x5BCE4, symSize: 0xC4 }
  - { offset: 0x71149, size: 0x8, addend: 0x0, symName: _sqlite3BtreeCount, symObjAddr: 0x49970, symBinAddr: 0x5BDA8, symSize: 0x248 }
  - { offset: 0x711F3, size: 0x8, addend: 0x0, symName: _sqlite3BtreeBeginStmt, symObjAddr: 0x49BB8, symBinAddr: 0x5BFF0, symSize: 0x54 }
  - { offset: 0x71259, size: 0x8, addend: 0x0, symName: _sqlite3ResetOneSchema, symObjAddr: 0x49C0C, symBinAddr: 0x5C044, symSize: 0x104 }
  - { offset: 0x712A9, size: 0x8, addend: 0x0, symName: _sqlite3BtreeGetMeta, symObjAddr: 0x49D10, symBinAddr: 0x5C148, symSize: 0xA0 }
  - { offset: 0x7130B, size: 0x8, addend: 0x0, symName: _allocateCursor, symObjAddr: 0x49DB0, symBinAddr: 0x5C1E8, symSize: 0x21C }
  - { offset: 0x713B9, size: 0x8, addend: 0x0, symName: _sqlite3BtreeCursor, symObjAddr: 0x49FCC, symBinAddr: 0x5C404, symSize: 0x80 }
  - { offset: 0x71431, size: 0x8, addend: 0x0, symName: _sqlite3BtreeCursorHintFlags, symObjAddr: 0x4A04C, symBinAddr: 0x5C484, symSize: 0x20 }
  - { offset: 0x7146F, size: 0x8, addend: 0x0, symName: _sqlite3BtreeClearTable, symObjAddr: 0x4A06C, symBinAddr: 0x5C4A4, symSize: 0x94 }
  - { offset: 0x714E7, size: 0x8, addend: 0x0, symName: _sqlite3BtreeCreateTable, symObjAddr: 0x4A100, symBinAddr: 0x5C538, symSize: 0x4C }
  - { offset: 0x7154D, size: 0x8, addend: 0x0, symName: _sqlite3VdbeSorterInit, symObjAddr: 0x4A14C, symBinAddr: 0x5C584, symSize: 0x3C4 }
  - { offset: 0x716A3, size: 0x8, addend: 0x0, symName: _sqlite3BtreeLast, symObjAddr: 0x4A51C, symBinAddr: 0x5C954, symSize: 0xEC }
  - { offset: 0x716F7, size: 0x8, addend: 0x0, symName: _sqlite3BtreeMovetoUnpacked, symObjAddr: 0x4A608, symBinAddr: 0x5CA40, symSize: 0x80C }
  - { offset: 0x718CD, size: 0x8, addend: 0x0, symName: _sqlite3BtreeCursorHasHint, symObjAddr: 0x4AE14, symBinAddr: 0x5D24C, symSize: 0x28 }
  - { offset: 0x7190F, size: 0x8, addend: 0x0, symName: _sqlite3BtreeNext, symObjAddr: 0x4AE3C, symBinAddr: 0x5D274, symSize: 0xD8 }
  - { offset: 0x71963, size: 0x8, addend: 0x0, symName: _sqlite3BtreePrevious, symObjAddr: 0x4AF14, symBinAddr: 0x5D34C, symSize: 0x9C }
  - { offset: 0x719A5, size: 0x8, addend: 0x0, symName: _sqlite3BtreeEof, symObjAddr: 0x4AFB0, symBinAddr: 0x5D3E8, symSize: 0x24 }
  - { offset: 0x719D5, size: 0x8, addend: 0x0, symName: _sqlite3BtreeCursorIsValidNN, symObjAddr: 0x4AFD4, symBinAddr: 0x5D40C, symSize: 0x20 }
  - { offset: 0x71A05, size: 0x8, addend: 0x0, symName: _sqlite3VdbeIdxKeyCompare, symObjAddr: 0x4AFF4, symBinAddr: 0x5D42C, symSize: 0x108 }
  - { offset: 0x71AB3, size: 0x8, addend: 0x0, symName: _sqlite3VdbeAllocUnpackedRecord, symObjAddr: 0x4B0FC, symBinAddr: 0x5D534, symSize: 0xA8 }
  - { offset: 0x71B07, size: 0x8, addend: 0x0, symName: _sqlite3VdbeRecordUnpack, symObjAddr: 0x4B1A4, symBinAddr: 0x5D5DC, symSize: 0x200 }
  - { offset: 0x71BF5, size: 0x8, addend: 0x0, symName: _sqlite3BtreeInsert, symObjAddr: 0x4B3A4, symBinAddr: 0x5D7DC, symSize: 0x6F0 }
  - { offset: 0x71D74, size: 0x8, addend: 0x0, symName: _sqlite3BtreeDelete, symObjAddr: 0x4BA94, symBinAddr: 0x5DECC, symSize: 0x654 }
  - { offset: 0x71EC2, size: 0x8, addend: 0x0, symName: _sqlite3VdbeSorterCompare, symObjAddr: 0x4C0E8, symBinAddr: 0x5E520, symSize: 0x150 }
  - { offset: 0x71F94, size: 0x8, addend: 0x0, symName: _sqlite3VdbeSorterRowkey, symObjAddr: 0x4C238, symBinAddr: 0x5E670, symSize: 0xA8 }
  - { offset: 0x7200C, size: 0x8, addend: 0x0, symName: _sqlite3VdbeCursorRestore, symObjAddr: 0x4C2E0, symBinAddr: 0x5E718, symSize: 0x4C }
  - { offset: 0x7203C, size: 0x8, addend: 0x0, symName: _sqlite3BtreeFirst, symObjAddr: 0x4C32C, symBinAddr: 0x5E764, symSize: 0x7C }
  - { offset: 0x72090, size: 0x8, addend: 0x0, symName: _sqlite3VdbeSorterRewind, symObjAddr: 0x4C4AC, symBinAddr: 0x5E8E4, symSize: 0xE0 }
  - { offset: 0x720F6, size: 0x8, addend: 0x0, symName: _sqlite3VdbeSorterNext, symObjAddr: 0x4C58C, symBinAddr: 0x5E9C4, symSize: 0x138 }
  - { offset: 0x7219C, size: 0x8, addend: 0x0, symName: _sqlite3VdbeSorterWrite, symObjAddr: 0x4C6C4, symBinAddr: 0x5EAFC, symSize: 0x4C0 }
  - { offset: 0x722C0, size: 0x8, addend: 0x0, symName: _sqlite3VdbeIdxRowid, symObjAddr: 0x4CB84, symBinAddr: 0x5EFBC, symSize: 0x1E8 }
  - { offset: 0x723A6, size: 0x8, addend: 0x0, symName: _sqlite3VdbeFinishMoveto, symObjAddr: 0x4CD6C, symBinAddr: 0x5F1A4, symSize: 0x94 }
  - { offset: 0x723FA, size: 0x8, addend: 0x0, symName: _sqlite3VdbeMemInit, symObjAddr: 0x4CE00, symBinAddr: 0x5F238, symSize: 0x38 }
  - { offset: 0x7244A, size: 0x8, addend: 0x0, symName: _sqlite3VdbeRecordCompareWithSkip, symObjAddr: 0x4CE38, symBinAddr: 0x5F270, symSize: 0x8B4 }
  - { offset: 0x72642, size: 0x8, addend: 0x0, symName: _sqlite3BtreeDropTable, symObjAddr: 0x4D6EC, symBinAddr: 0x5FB24, symSize: 0x4C }
  - { offset: 0x726A8, size: 0x8, addend: 0x0, symName: _sqlite3RootPageMoved, symObjAddr: 0x4D738, symBinAddr: 0x5FB70, symSize: 0x118 }
  - { offset: 0x72780, size: 0x8, addend: 0x0, symName: _sqlite3BtreeClearTableOfCursor, symObjAddr: 0x4D850, symBinAddr: 0x5FC88, symSize: 0x34 }
  - { offset: 0x727B0, size: 0x8, addend: 0x0, symName: _sqlite3SchemaClear, symObjAddr: 0x4D884, symBinAddr: 0x5FCBC, symSize: 0x14C }
  - { offset: 0x72844, size: 0x8, addend: 0x0, symName: _sqlite3InitOne, symObjAddr: 0x4D9D0, symBinAddr: 0x5FE08, symSize: 0x600 }
  - { offset: 0x729F3, size: 0x8, addend: 0x0, symName: _sqlite3InitCallback, symObjAddr: 0x4DFD0, symBinAddr: 0x60408, symSize: 0x400 }
  - { offset: 0x72AF3, size: 0x8, addend: 0x0, symName: _sqlite3AnalysisLoad, symObjAddr: 0x4E3D0, symBinAddr: 0x60808, symSize: 0x204 }
  - { offset: 0x72BEF, size: 0x8, addend: 0x0, symName: _sqlite3UnlinkAndDeleteTable, symObjAddr: 0x4E5D4, symBinAddr: 0x60A0C, symSize: 0x70 }
  - { offset: 0x72C63, size: 0x8, addend: 0x0, symName: _sqlite3UnlinkAndDeleteIndex, symObjAddr: 0x4E644, symBinAddr: 0x60A7C, symSize: 0x150 }
  - { offset: 0x72CF7, size: 0x8, addend: 0x0, symName: _sqlite3UnlinkAndDeleteTrigger, symObjAddr: 0x4E794, symBinAddr: 0x60BCC, symSize: 0x124 }
  - { offset: 0x72DAB, size: 0x8, addend: 0x0, symName: _sqlite3BtreeIntegrityCheck, symObjAddr: 0x4E8B8, symBinAddr: 0x60CF0, symSize: 0x628 }
  - { offset: 0x72F28, size: 0x8, addend: 0x0, symName: _sqlite3VdbeMemSetRowSet, symObjAddr: 0x4EEE0, symBinAddr: 0x61318, symSize: 0x88 }
  - { offset: 0x72F7C, size: 0x8, addend: 0x0, symName: _sqlite3RowSetInsert, symObjAddr: 0x4EF68, symBinAddr: 0x613A0, symSize: 0xC4 }
  - { offset: 0x72FD4, size: 0x8, addend: 0x0, symName: _sqlite3RowSetNext, symObjAddr: 0x4F02C, symBinAddr: 0x61464, symSize: 0xD8 }
  - { offset: 0x73010, size: 0x8, addend: 0x0, symName: _sqlite3RowSetTest, symObjAddr: 0x4F104, symBinAddr: 0x6153C, symSize: 0x258 }
  - { offset: 0x730C8, size: 0x8, addend: 0x0, symName: _sqlite3VdbeFrameMemDel, symObjAddr: 0x4F35C, symBinAddr: 0x61794, symSize: 0x3C }
  - { offset: 0x73106, size: 0x8, addend: 0x0, symName: _sqlite3VdbeMemAggValue, symObjAddr: 0x4F398, symBinAddr: 0x617D0, symSize: 0x6C }
  - { offset: 0x7316C, size: 0x8, addend: 0x0, symName: _sqlite3PagerOkToChangeJournalMode, symObjAddr: 0x4F404, symBinAddr: 0x6183C, symSize: 0x6C }
  - { offset: 0x73198, size: 0x8, addend: 0x0, symName: _sqlite3PagerCloseWal, symObjAddr: 0x4F470, symBinAddr: 0x618A8, symSize: 0x14C }
  - { offset: 0x73202, size: 0x8, addend: 0x0, symName: _sqlite3PagerSetJournalMode, symObjAddr: 0x4F5BC, symBinAddr: 0x619F4, symSize: 0x1F8 }
  - { offset: 0x7327C, size: 0x8, addend: 0x0, symName: _sqlite3BtreeIncrVacuum, symObjAddr: 0x4FF38, symBinAddr: 0x62370, symSize: 0x178 }
  - { offset: 0x73314, size: 0x8, addend: 0x0, symName: _sqlite3BtreeCursorPin, symObjAddr: 0x500B0, symBinAddr: 0x624E8, symSize: 0x20 }
  - { offset: 0x73340, size: 0x8, addend: 0x0, symName: _sqlite3BtreeCursorUnpin, symObjAddr: 0x500D0, symBinAddr: 0x62508, symSize: 0x20 }
  - { offset: 0x7336C, size: 0x8, addend: 0x0, symName: _sqlite3BtreeLockTable, symObjAddr: 0x500F0, symBinAddr: 0x62528, symSize: 0x94 }
  - { offset: 0x733F2, size: 0x8, addend: 0x0, symName: _sqlite3VtabBegin, symObjAddr: 0x50184, symBinAddr: 0x625BC, symSize: 0x1AC }
  - { offset: 0x73498, size: 0x8, addend: 0x0, symName: _sqlite3VtabCallCreate, symObjAddr: 0x50330, symBinAddr: 0x62768, symSize: 0x164 }
  - { offset: 0x73546, size: 0x8, addend: 0x0, symName: _sqlite3VtabCallDestroy, symObjAddr: 0x50494, symBinAddr: 0x628CC, symSize: 0x170 }
  - { offset: 0x735F0, size: 0x8, addend: 0x0, symName: _sqlite3BtreeMaxPageCount, symObjAddr: 0x50604, symBinAddr: 0x62A3C, symSize: 0x4C }
  - { offset: 0x73644, size: 0x8, addend: 0x0, symName: _out2PrereleaseWithClear, symObjAddr: 0x50650, symBinAddr: 0x62A88, symSize: 0x34 }
  - { offset: 0x73674, size: 0x8, addend: 0x0, symName: _vdbeClrCopy, symObjAddr: 0x50684, symBinAddr: 0x62ABC, symSize: 0x3C }
  - { offset: 0x736C4, size: 0x8, addend: 0x0, symName: _computeNumericType, symObjAddr: 0x506C0, symBinAddr: 0x62AF8, symSize: 0x130 }
  - { offset: 0x73718, size: 0x8, addend: 0x0, symName: _sqlite3VdbeIntegerAffinity, symObjAddr: 0x507F0, symBinAddr: 0x62C28, symSize: 0x9C }
  - { offset: 0x73756, size: 0x8, addend: 0x0, symName: _sqlite3ValueApplyAffinity, symObjAddr: 0x5088C, symBinAddr: 0x62CC4, symSize: 0x34 }
  - { offset: 0x737A6, size: 0x8, addend: 0x0, symName: _sqlite3VdbeMemNumerify, symObjAddr: 0x508C0, symBinAddr: 0x62CF8, symSize: 0x12C }
  - { offset: 0x73808, size: 0x8, addend: 0x0, symName: _sqlite3RealSameAsInt, symObjAddr: 0x509EC, symBinAddr: 0x62E24, symSize: 0xAC }
  - { offset: 0x7385C, size: 0x8, addend: 0x0, symName: _sqlite3IntFloatCompare, symObjAddr: 0x50A98, symBinAddr: 0x62ED0, symSize: 0x100 }
  - { offset: 0x738D0, size: 0x8, addend: 0x0, symName: _vdbeCompareMemString, symObjAddr: 0x50B98, symBinAddr: 0x62FD0, symSize: 0x18C }
  - { offset: 0x7399F, size: 0x8, addend: 0x0, symName: _sqlite3BlobCompare, symObjAddr: 0x50D24, symBinAddr: 0x6315C, symSize: 0x1AC }
  - { offset: 0x73A17, size: 0x8, addend: 0x0, symName: _isAllZero, symObjAddr: 0x50ED0, symBinAddr: 0x63308, symSize: 0x74 }
  - { offset: 0x73A6B, size: 0x8, addend: 0x0, symName: _sqlite3BtreeCursorHasMoved, symObjAddr: 0x50F44, symBinAddr: 0x6337C, symSize: 0x24 }
  - { offset: 0x73A9B, size: 0x8, addend: 0x0, symName: _handleMovedCursor, symObjAddr: 0x50F68, symBinAddr: 0x633A0, symSize: 0x58 }
  - { offset: 0x73AEF, size: 0x8, addend: 0x0, symName: _sqlite3BtreeCursorRestore, symObjAddr: 0x50FC0, symBinAddr: 0x633F8, symSize: 0xB4 }
  - { offset: 0x73B43, size: 0x8, addend: 0x0, symName: _btreeRestoreCursorPosition, symObjAddr: 0x51074, symBinAddr: 0x634AC, symSize: 0x114 }
  - { offset: 0x73B97, size: 0x8, addend: 0x0, symName: _btreeMoveto, symObjAddr: 0x51188, symBinAddr: 0x635C0, symSize: 0x120 }
  - { offset: 0x73C5C, size: 0x8, addend: 0x0, symName: _fetchPayload, symObjAddr: 0x512A8, symBinAddr: 0x636E0, symSize: 0xC0 }
  - { offset: 0x73CB0, size: 0x8, addend: 0x0, symName: _serialGet, symObjAddr: 0x51368, symBinAddr: 0x637A0, symSize: 0x138 }
  - { offset: 0x73D28, size: 0x8, addend: 0x0, symName: _sqlite3BtreeMaxRecordSize, symObjAddr: 0x514A0, symBinAddr: 0x638D8, symSize: 0x2C }
  - { offset: 0x73D58, size: 0x8, addend: 0x0, symName: _putVarint64, symObjAddr: 0x514CC, symBinAddr: 0x63904, symSize: 0x1A0 }
  - { offset: 0x73DD4, size: 0x8, addend: 0x0, symName: _moveToRoot, symObjAddr: 0x5166C, symBinAddr: 0x63AA4, symSize: 0x2CC }
  - { offset: 0x73E5B, size: 0x8, addend: 0x0, symName: _moveToParent, symObjAddr: 0x51938, symBinAddr: 0x63D70, symSize: 0x9C }
  - { offset: 0x73E99, size: 0x8, addend: 0x0, symName: _moveToChild, symObjAddr: 0x519D4, symBinAddr: 0x63E0C, symSize: 0xEC }
  - { offset: 0x73EED, size: 0x8, addend: 0x0, symName: _getAndInitPage, symObjAddr: 0x51AC0, symBinAddr: 0x63EF8, symSize: 0x1A4 }
  - { offset: 0x73FAF, size: 0x8, addend: 0x0, symName: _sqlite3BtreeCursorSize, symObjAddr: 0x51C64, symBinAddr: 0x6409C, symSize: 0x8 }
  - { offset: 0x73FCC, size: 0x8, addend: 0x0, symName: _sqlite3BtreeCursorZero, symObjAddr: 0x51C6C, symBinAddr: 0x640A4, symSize: 0x30 }
  - { offset: 0x73FF8, size: 0x8, addend: 0x0, symName: _btreeCursorWithLock, symObjAddr: 0x51C9C, symBinAddr: 0x640D4, symSize: 0x5C }
  - { offset: 0x74082, size: 0x8, addend: 0x0, symName: _btreeCursor, symObjAddr: 0x51CF8, symBinAddr: 0x64130, symSize: 0x1CC }
  - { offset: 0x7411E, size: 0x8, addend: 0x0, symName: _allocateTempSpace, symObjAddr: 0x51EC4, symBinAddr: 0x642FC, symSize: 0x80 }
  - { offset: 0x7414A, size: 0x8, addend: 0x0, symName: _invalidateIncrblobCursors, symObjAddr: 0x51F44, symBinAddr: 0x6437C, symSize: 0xD8 }
  - { offset: 0x741B2, size: 0x8, addend: 0x0, symName: _clearDatabasePage, symObjAddr: 0x5201C, symBinAddr: 0x64454, symSize: 0x2C4 }
  - { offset: 0x74297, size: 0x8, addend: 0x0, symName: _clearCell, symObjAddr: 0x522E0, symBinAddr: 0x64718, symSize: 0x254 }
  - { offset: 0x74377, size: 0x8, addend: 0x0, symName: _freePage, symObjAddr: 0x52534, symBinAddr: 0x6496C, symSize: 0x54 }
  - { offset: 0x743B5, size: 0x8, addend: 0x0, symName: _btreePageLookup, symObjAddr: 0x52588, symBinAddr: 0x649C0, symSize: 0x64 }
  - { offset: 0x74409, size: 0x8, addend: 0x0, symName: _freePage2, symObjAddr: 0x525EC, symBinAddr: 0x64A24, symSize: 0x404 }
  - { offset: 0x744FC, size: 0x8, addend: 0x0, symName: _sqlite3PagerRef, symObjAddr: 0x529F0, symBinAddr: 0x64E28, symSize: 0x24 }
  - { offset: 0x74524, size: 0x8, addend: 0x0, symName: _sqlite3PagerDontWrite, symObjAddr: 0x52A14, symBinAddr: 0x64E4C, symSize: 0x70 }
  - { offset: 0x7455C, size: 0x8, addend: 0x0, symName: _btreeSetHasContent, symObjAddr: 0x52A84, symBinAddr: 0x64EBC, symSize: 0xB4 }
  - { offset: 0x745A8, size: 0x8, addend: 0x0, symName: _sqlite3PcacheRef, symObjAddr: 0x52B38, symBinAddr: 0x64F70, symSize: 0x34 }
  - { offset: 0x745D0, size: 0x8, addend: 0x0, symName: _btreeCreateTable, symObjAddr: 0x52B6C, symBinAddr: 0x64FA4, symSize: 0x3DC }
  - { offset: 0x746E2, size: 0x8, addend: 0x0, symName: _moveToRightmost, symObjAddr: 0x52F48, symBinAddr: 0x65380, symSize: 0xC0 }
  - { offset: 0x74748, size: 0x8, addend: 0x0, symName: _sqlite3VdbeFindCompare, symObjAddr: 0x53008, symBinAddr: 0x65440, symSize: 0x11C }
  - { offset: 0x74798, size: 0x8, addend: 0x0, symName: _sqlite3VdbeRecordCompare, symObjAddr: 0x53124, symBinAddr: 0x6555C, symSize: 0x38 }
  - { offset: 0x747EC, size: 0x8, addend: 0x0, symName: _vdbeRecordCompareInt, symObjAddr: 0x5315C, symBinAddr: 0x65594, symSize: 0x38C }
  - { offset: 0x748BE, size: 0x8, addend: 0x0, symName: _vdbeRecordCompareString, symObjAddr: 0x534E8, symBinAddr: 0x65920, symSize: 0x25C }
  - { offset: 0x7498C, size: 0x8, addend: 0x0, symName: _btreeNext, symObjAddr: 0x53744, symBinAddr: 0x65B7C, symSize: 0x274 }
  - { offset: 0x749F2, size: 0x8, addend: 0x0, symName: _moveToLeftmost, symObjAddr: 0x539B8, symBinAddr: 0x65DF0, symSize: 0xDC }
  - { offset: 0x74A58, size: 0x8, addend: 0x0, symName: _btreePrevious, symObjAddr: 0x53A94, symBinAddr: 0x65ECC, symSize: 0x250 }
  - { offset: 0x74ACC, size: 0x8, addend: 0x0, symName: _btreeOverwriteCell, symObjAddr: 0x53CE4, symBinAddr: 0x6611C, symSize: 0x268 }
  - { offset: 0x74B8C, size: 0x8, addend: 0x0, symName: _btreeComputeFreeSpace, symObjAddr: 0x53F4C, symBinAddr: 0x66384, symSize: 0x2A8 }
  - { offset: 0x74C7E, size: 0x8, addend: 0x0, symName: _fillInCell, symObjAddr: 0x541F4, symBinAddr: 0x6662C, symSize: 0x59C }
  - { offset: 0x74E27, size: 0x8, addend: 0x0, symName: _dropCell, symObjAddr: 0x54790, symBinAddr: 0x66BC8, symSize: 0x248 }
  - { offset: 0x74EE3, size: 0x8, addend: 0x0, symName: _insertCell, symObjAddr: 0x549D8, symBinAddr: 0x66E10, symSize: 0x2D8 }
  - { offset: 0x74FE3, size: 0x8, addend: 0x0, symName: _balance, symObjAddr: 0x54CB0, symBinAddr: 0x670E8, symSize: 0x350 }
  - { offset: 0x750D8, size: 0x8, addend: 0x0, symName: _btreeOverwriteContent, symObjAddr: 0x55000, symBinAddr: 0x67438, symSize: 0x20C }
  - { offset: 0x751E2, size: 0x8, addend: 0x0, symName: _freeSpace, symObjAddr: 0x5520C, symBinAddr: 0x67644, symSize: 0x534 }
  - { offset: 0x752E6, size: 0x8, addend: 0x0, symName: _allocateSpace, symObjAddr: 0x55740, symBinAddr: 0x67B78, symSize: 0x2EC }
  - { offset: 0x753D4, size: 0x8, addend: 0x0, symName: _pageFindSlot, symObjAddr: 0x55A2C, symBinAddr: 0x67E64, symSize: 0x2A0 }
  - { offset: 0x754A6, size: 0x8, addend: 0x0, symName: _defragmentPage, symObjAddr: 0x55CCC, symBinAddr: 0x68104, symSize: 0x78C }
  - { offset: 0x756CF, size: 0x8, addend: 0x0, symName: _sqlite3PagerTempSpace, symObjAddr: 0x56458, symBinAddr: 0x68890, symSize: 0x18 }
  - { offset: 0x756FB, size: 0x8, addend: 0x0, symName: _anotherValidCursor, symObjAddr: 0x56470, symBinAddr: 0x688A8, symSize: 0xB0 }
  - { offset: 0x7573D, size: 0x8, addend: 0x0, symName: _balance_deeper, symObjAddr: 0x56520, symBinAddr: 0x68958, symSize: 0x188 }
  - { offset: 0x757C7, size: 0x8, addend: 0x0, symName: _balance_quick, symObjAddr: 0x566A8, symBinAddr: 0x68AE0, symSize: 0x358 }
  - { offset: 0x758CE, size: 0x8, addend: 0x0, symName: _balance_nonroot, symObjAddr: 0x56A00, symBinAddr: 0x68E38, symSize: 0x1E80 }
  - { offset: 0x75EFD, size: 0x8, addend: 0x0, symName: _copyNodeContent, symObjAddr: 0x58880, symBinAddr: 0x6ACB8, symSize: 0x1A0 }
  - { offset: 0x75FD9, size: 0x8, addend: 0x0, symName: _rebuildPage, symObjAddr: 0x58A20, symBinAddr: 0x6AE58, symSize: 0x450 }
  - { offset: 0x7614C, size: 0x8, addend: 0x0, symName: _cachedCellSize, symObjAddr: 0x58E70, symBinAddr: 0x6B2A8, symSize: 0x70 }
  - { offset: 0x7618E, size: 0x8, addend: 0x0, symName: _sqlite3PagerRekey, symObjAddr: 0x58EE0, symBinAddr: 0x6B318, symSize: 0x3C }
  - { offset: 0x761D6, size: 0x8, addend: 0x0, symName: _editPage, symObjAddr: 0x58F1C, symBinAddr: 0x6B354, symSize: 0x4F8 }
  - { offset: 0x76384, size: 0x8, addend: 0x0, symName: _computeCellSize, symObjAddr: 0x59414, symBinAddr: 0x6B84C, symSize: 0x68 }
  - { offset: 0x763C6, size: 0x8, addend: 0x0, symName: _pageFreeArray, symObjAddr: 0x5947C, symBinAddr: 0x6B8B4, symSize: 0x200 }
  - { offset: 0x764FC, size: 0x8, addend: 0x0, symName: _pageInsertArray, symObjAddr: 0x5967C, symBinAddr: 0x6BAB4, symSize: 0x2CC }
  - { offset: 0x76648, size: 0x8, addend: 0x0, symName: _populateCellCache, symObjAddr: 0x59948, symBinAddr: 0x6BD80, symSize: 0xAC }
  - { offset: 0x76698, size: 0x8, addend: 0x0, symName: _vdbeSorterRowkey, symObjAddr: 0x599F4, symBinAddr: 0x6BE2C, symSize: 0xC0 }
  - { offset: 0x7670C, size: 0x8, addend: 0x0, symName: _vdbeSorterSort, symObjAddr: 0x59AB4, symBinAddr: 0x6BEEC, symSize: 0x258 }
  - { offset: 0x767B9, size: 0x8, addend: 0x0, symName: _vdbeSorterFlushPMA, symObjAddr: 0x59D0C, symBinAddr: 0x6C144, symSize: 0x240 }
  - { offset: 0x76883, size: 0x8, addend: 0x0, symName: _vdbeSorterSetupMerge, symObjAddr: 0x59F4C, symBinAddr: 0x6C384, symSize: 0x2E0 }
  - { offset: 0x769A3, size: 0x8, addend: 0x0, symName: _vdbeSortAllocUnpacked, symObjAddr: 0x5A22C, symBinAddr: 0x6C664, symSize: 0x98 }
  - { offset: 0x769D3, size: 0x8, addend: 0x0, symName: _vdbeSorterGetCompare, symObjAddr: 0x5A2C4, symBinAddr: 0x6C6FC, symSize: 0x70 }
  - { offset: 0x76A03, size: 0x8, addend: 0x0, symName: _vdbeSorterMerge, symObjAddr: 0x5A334, symBinAddr: 0x6C76C, symSize: 0x114 }
  - { offset: 0x76AAD, size: 0x8, addend: 0x0, symName: _vdbeSorterCompareText, symObjAddr: 0x5A6F4, symBinAddr: 0x6CB2C, symSize: 0x1D4 }
  - { offset: 0x76BB6, size: 0x8, addend: 0x0, symName: _vdbeSorterCompare, symObjAddr: 0x5A8C8, symBinAddr: 0x6CD00, symSize: 0x88 }
  - { offset: 0x76C52, size: 0x8, addend: 0x0, symName: _vdbeSorterCompareTail, symObjAddr: 0x5A950, symBinAddr: 0x6CD88, symSize: 0x8C }
  - { offset: 0x76CEE, size: 0x8, addend: 0x0, symName: _vdbeSorterListToPMA, symObjAddr: 0x5A9DC, symBinAddr: 0x6CE14, symSize: 0x1C8 }
  - { offset: 0x76D98, size: 0x8, addend: 0x0, symName: _vdbeSorterCreateThread, symObjAddr: 0x5ABA4, symBinAddr: 0x6CFDC, symSize: 0x34 }
  - { offset: 0x76DEC, size: 0x8, addend: 0x0, symName: _vdbeSorterFlushThread, symObjAddr: 0x5ABD8, symBinAddr: 0x6D010, symSize: 0x48 }
  - { offset: 0x76E40, size: 0x8, addend: 0x0, symName: _vdbeSorterOpenTempFile, symObjAddr: 0x5AC20, symBinAddr: 0x6D058, symSize: 0xC4 }
  - { offset: 0x76EC6, size: 0x8, addend: 0x0, symName: _vdbeSorterExtendFile, symObjAddr: 0x5ACE4, symBinAddr: 0x6D11C, symSize: 0xB8 }
  - { offset: 0x76F48, size: 0x8, addend: 0x0, symName: _vdbePmaWriterInit, symObjAddr: 0x5AD9C, symBinAddr: 0x6D1D4, symSize: 0xC8 }
  - { offset: 0x76FAA, size: 0x8, addend: 0x0, symName: _vdbePmaWriteVarint, symObjAddr: 0x5AE64, symBinAddr: 0x6D29C, symSize: 0x74 }
  - { offset: 0x7700C, size: 0x8, addend: 0x0, symName: _vdbePmaWriteBlob, symObjAddr: 0x5AED8, symBinAddr: 0x6D310, symSize: 0x1A8 }
  - { offset: 0x7708E, size: 0x8, addend: 0x0, symName: _vdbePmaWriterFinish, symObjAddr: 0x5B080, symBinAddr: 0x6D4B8, symSize: 0xFC }
  - { offset: 0x770E2, size: 0x8, addend: 0x0, symName: _sqlite3ThreadCreate, symObjAddr: 0x5B17C, symBinAddr: 0x6D5B4, symSize: 0xFC }
  - { offset: 0x7714E, size: 0x8, addend: 0x0, symName: _vdbeSorterMergeTreeBuild, symObjAddr: 0x5B278, symBinAddr: 0x6D6B0, symSize: 0x2EC }
  - { offset: 0x7728E, size: 0x8, addend: 0x0, symName: _vdbeIncrMergerNew, symObjAddr: 0x5B564, symBinAddr: 0x6D99C, symSize: 0x12C }
  - { offset: 0x77306, size: 0x8, addend: 0x0, symName: _vdbeIncrMergerSetThreads, symObjAddr: 0x5B690, symBinAddr: 0x6DAC8, symSize: 0x38 }
  - { offset: 0x77332, size: 0x8, addend: 0x0, symName: _vdbePmaReaderIncrInit, symObjAddr: 0x5B6C8, symBinAddr: 0x6DB00, symSize: 0x90 }
  - { offset: 0x773B8, size: 0x8, addend: 0x0, symName: _vdbePmaReaderIncrMergeInit, symObjAddr: 0x5B758, symBinAddr: 0x6DB90, symSize: 0x1B0 }
  - { offset: 0x77462, size: 0x8, addend: 0x0, symName: _vdbeMergeEngineInit, symObjAddr: 0x5B908, symBinAddr: 0x6DD40, symSize: 0x148 }
  - { offset: 0x774EC, size: 0x8, addend: 0x0, symName: _vdbeMergeEngineNew, symObjAddr: 0x5BA50, symBinAddr: 0x6DE88, symSize: 0xF0 }
  - { offset: 0x77552, size: 0x8, addend: 0x0, symName: _vdbeSorterTreeDepth, symObjAddr: 0x5BB40, symBinAddr: 0x6DF78, symSize: 0x54 }
  - { offset: 0x775A6, size: 0x8, addend: 0x0, symName: _vdbeMergeEngineLevel0, symObjAddr: 0x5BB94, symBinAddr: 0x6DFCC, symSize: 0x13C }
  - { offset: 0x77686, size: 0x8, addend: 0x0, symName: _vdbeSorterAddToTree, symObjAddr: 0x5BCD0, symBinAddr: 0x6E108, symSize: 0x200 }
  - { offset: 0x777AA, size: 0x8, addend: 0x0, symName: _vdbePmaReaderInit, symObjAddr: 0x5BED0, symBinAddr: 0x6E308, symSize: 0xB4 }
  - { offset: 0x77854, size: 0x8, addend: 0x0, symName: _vdbePmaReaderSeek, symObjAddr: 0x5BF84, symBinAddr: 0x6E3BC, symSize: 0x200 }
  - { offset: 0x7791E, size: 0x8, addend: 0x0, symName: _vdbePmaReadVarint, symObjAddr: 0x5C184, symBinAddr: 0x6E5BC, symSize: 0x1B0 }
  - { offset: 0x779C8, size: 0x8, addend: 0x0, symName: _vdbePmaReaderNext, symObjAddr: 0x5C334, symBinAddr: 0x6E76C, symSize: 0x144 }
  - { offset: 0x77A4E, size: 0x8, addend: 0x0, symName: _vdbeSorterMapFile, symObjAddr: 0x5C478, symBinAddr: 0x6E8B0, symSize: 0x9C }
  - { offset: 0x77AD4, size: 0x8, addend: 0x0, symName: _vdbePmaReadBlob, symObjAddr: 0x5C514, symBinAddr: 0x6E94C, symSize: 0x36C }
  - { offset: 0x77C14, size: 0x8, addend: 0x0, symName: _vdbeIncrSwap, symObjAddr: 0x5C880, symBinAddr: 0x6ECB8, symSize: 0x118 }
  - { offset: 0x77C76, size: 0x8, addend: 0x0, symName: _vdbeIncrBgPopulate, symObjAddr: 0x5C998, symBinAddr: 0x6EDD0, symSize: 0x3C }
  - { offset: 0x77CB8, size: 0x8, addend: 0x0, symName: _vdbeIncrPopulate, symObjAddr: 0x5C9D4, symBinAddr: 0x6EE0C, symSize: 0x180 }
  - { offset: 0x77DBC, size: 0x8, addend: 0x0, symName: _vdbeIncrPopulateThread, symObjAddr: 0x5CB54, symBinAddr: 0x6EF8C, symSize: 0x4C }
  - { offset: 0x77E10, size: 0x8, addend: 0x0, symName: _vdbeMergeEngineStep, symObjAddr: 0x5CBA0, symBinAddr: 0x6EFD8, symSize: 0x2C4 }
  - { offset: 0x77EFE, size: 0x8, addend: 0x0, symName: _vdbePmaReaderBgIncrInit, symObjAddr: 0x5CE64, symBinAddr: 0x6F29C, symSize: 0x58 }
  - { offset: 0x77F52, size: 0x8, addend: 0x0, symName: _vdbeMergeEngineCompare, symObjAddr: 0x5CEBC, symBinAddr: 0x6F2F4, symSize: 0x1A0 }
  - { offset: 0x7802E, size: 0x8, addend: 0x0, symName: _sqlite3HeapNearlyFull, symObjAddr: 0x5D05C, symBinAddr: 0x6F494, symSize: 0x20 }
  - { offset: 0x78049, size: 0x8, addend: 0x0, symName: _vdbeRecordDecodeInt, symObjAddr: 0x5D07C, symBinAddr: 0x6F4B4, symSize: 0x238 }
  - { offset: 0x780BD, size: 0x8, addend: 0x0, symName: _btreeDropTable, symObjAddr: 0x5D2B4, symBinAddr: 0x6F6EC, symSize: 0x2C4 }
  - { offset: 0x78187, size: 0x8, addend: 0x0, symName: _sqlite3HashInit, symObjAddr: 0x5D578, symBinAddr: 0x6F9B0, symSize: 0x30 }
  - { offset: 0x781AF, size: 0x8, addend: 0x0, symName: _sqlite3HashClear, symObjAddr: 0x5D5A8, symBinAddr: 0x6F9E0, symSize: 0x84 }
  - { offset: 0x78205, size: 0x8, addend: 0x0, symName: _sqlite3SetString, symObjAddr: 0x5D62C, symBinAddr: 0x6FA64, symSize: 0x48 }
  - { offset: 0x7824D, size: 0x8, addend: 0x0, symName: _sqlite3SetTextEncoding, symObjAddr: 0x5D674, symBinAddr: 0x6FAAC, symSize: 0x4C }
  - { offset: 0x7828B, size: 0x8, addend: 0x0, symName: _sqlite3BtreeCommit, symObjAddr: 0x5D6C0, symBinAddr: 0x6FAF8, symSize: 0x60 }
  - { offset: 0x782CD, size: 0x8, addend: 0x0, symName: _sqlite3FindCollSeq, symObjAddr: 0x5D720, symBinAddr: 0x6FB58, symSize: 0x88 }
  - { offset: 0x78345, size: 0x8, addend: 0x0, symName: _findCollSeqEntry, symObjAddr: 0x5D7A8, symBinAddr: 0x6FBE0, symSize: 0x140 }
  - { offset: 0x783EB, size: 0x8, addend: 0x0, symName: _sqlite3HashFind, symObjAddr: 0x5D8E8, symBinAddr: 0x6FD20, symSize: 0x34 }
  - { offset: 0x78427, size: 0x8, addend: 0x0, symName: _sqlite3HashInsert, symObjAddr: 0x5D91C, symBinAddr: 0x6FD54, symSize: 0x1D0 }
  - { offset: 0x784C1, size: 0x8, addend: 0x0, symName: _strHash, symObjAddr: 0x5DC0C, symBinAddr: 0x70044, symSize: 0x70 }
  - { offset: 0x7850D, size: 0x8, addend: 0x0, symName: _removeElementGivenHash, symObjAddr: 0x5DC7C, symBinAddr: 0x700B4, symSize: 0x120 }
  - { offset: 0x78565, size: 0x8, addend: 0x0, symName: _rehash, symObjAddr: 0x5DD9C, symBinAddr: 0x701D4, symSize: 0x16C }
  - { offset: 0x785EF, size: 0x8, addend: 0x0, symName: _insertElement, symObjAddr: 0x5DF08, symBinAddr: 0x70340, symSize: 0x138 }
  - { offset: 0x78647, size: 0x8, addend: 0x0, symName: _corruptSchema, symObjAddr: 0x5E040, symBinAddr: 0x70478, symSize: 0x180 }
  - { offset: 0x786C9, size: 0x8, addend: 0x0, symName: _sqlite3GetUInt32, symObjAddr: 0x5E1C0, symBinAddr: 0x705F8, symSize: 0xEC }
  - { offset: 0x78725, size: 0x8, addend: 0x0, symName: _sqlite3Prepare, symObjAddr: 0x5E2AC, symBinAddr: 0x706E4, symSize: 0x400 }
  - { offset: 0x788B3, size: 0x8, addend: 0x0, symName: _sqlite3FindIndex, symObjAddr: 0x5E6AC, symBinAddr: 0x70AE4, symSize: 0xF8 }
  - { offset: 0x7895D, size: 0x8, addend: 0x0, symName: _sqlite3IndexHasDuplicateRootPage, symObjAddr: 0x5E7A4, symBinAddr: 0x70BDC, symSize: 0x8C }
  - { offset: 0x7899F, size: 0x8, addend: 0x0, symName: _sqlite3BtreeSchemaLocked, symObjAddr: 0x5E830, symBinAddr: 0x70C68, symSize: 0x44 }
  - { offset: 0x789E1, size: 0x8, addend: 0x0, symName: _sqlite3VtabUnlockList, symObjAddr: 0x5E874, symBinAddr: 0x70CAC, symSize: 0x7C }
  - { offset: 0x78A38, size: 0x8, addend: 0x0, symName: _sqlite3DbStrNDup, symObjAddr: 0x5E8F0, symBinAddr: 0x70D28, symSize: 0x94 }
  - { offset: 0x78A94, size: 0x8, addend: 0x0, symName: _schemaIsValid, symObjAddr: 0x5E984, symBinAddr: 0x70DBC, symSize: 0x160 }
  - { offset: 0x78B3A, size: 0x8, addend: 0x0, symName: _sqlite3VdbeSetSql, symObjAddr: 0x5EAE4, symBinAddr: 0x70F1C, symSize: 0x7C }
  - { offset: 0x78B9C, size: 0x8, addend: 0x0, symName: _sqlite3DbIsNamed, symObjAddr: 0x5EB60, symBinAddr: 0x70F98, symSize: 0x98 }
  - { offset: 0x78BF0, size: 0x8, addend: 0x0, symName: _analysisLoader, symObjAddr: 0x5EBF8, symBinAddr: 0x71030, symSize: 0x210 }
  - { offset: 0x78CF3, size: 0x8, addend: 0x0, symName: _decodeIntArray, symObjAddr: 0x5EF68, symBinAddr: 0x713A0, symSize: 0x2C8 }
  - { offset: 0x78DCF, size: 0x8, addend: 0x0, symName: _sqlite3Atoi, symObjAddr: 0x5F230, symBinAddr: 0x71668, symSize: 0x30 }
  - { offset: 0x78E0B, size: 0x8, addend: 0x0, symName: _sqlite3GetInt32, symObjAddr: 0x5F260, symBinAddr: 0x71698, symSize: 0x350 }
  - { offset: 0x78EA5, size: 0x8, addend: 0x0, symName: _sqlite3HexToInt, symObjAddr: 0x5F5B0, symBinAddr: 0x719E8, symSize: 0x38 }
  - { offset: 0x78ED1, size: 0x8, addend: 0x0, symName: _sqlite3FreeIndex, symObjAddr: 0x5F5E8, symBinAddr: 0x71A20, symSize: 0x90 }
  - { offset: 0x78F0F, size: 0x8, addend: 0x0, symName: _sqlite3DeleteIndexSamples, symObjAddr: 0x5F678, symBinAddr: 0x71AB0, symSize: 0x14 }
  - { offset: 0x78F4D, size: 0x8, addend: 0x0, symName: _sqlite3ExprDelete, symObjAddr: 0x5F68C, symBinAddr: 0x71AC4, symSize: 0x3C }
  - { offset: 0x78F8B, size: 0x8, addend: 0x0, symName: _sqlite3ExprListDelete, symObjAddr: 0x5F6C8, symBinAddr: 0x71B00, symSize: 0x3C }
  - { offset: 0x78FC9, size: 0x8, addend: 0x0, symName: _sqlite3ExprDeleteNN, symObjAddr: 0x5F704, symBinAddr: 0x71B3C, symSize: 0x140 }
  - { offset: 0x79007, size: 0x8, addend: 0x0, symName: _sqlite3SelectDelete, symObjAddr: 0x5F844, symBinAddr: 0x71C7C, symSize: 0x40 }
  - { offset: 0x79045, size: 0x8, addend: 0x0, symName: _sqlite3WindowDelete, symObjAddr: 0x5F884, symBinAddr: 0x71CBC, symSize: 0xB4 }
  - { offset: 0x79083, size: 0x8, addend: 0x0, symName: _clearSelect, symObjAddr: 0x5F938, symBinAddr: 0x71D70, symSize: 0x128 }
  - { offset: 0x790F3, size: 0x8, addend: 0x0, symName: _sqlite3SrcListDelete, symObjAddr: 0x5FA60, symBinAddr: 0x71E98, symSize: 0x1A8 }
  - { offset: 0x79155, size: 0x8, addend: 0x0, symName: _sqlite3WindowListDelete, symObjAddr: 0x5FC08, symBinAddr: 0x72040, symSize: 0x54 }
  - { offset: 0x791B3, size: 0x8, addend: 0x0, symName: _sqlite3WithDelete, symObjAddr: 0x5FC5C, symBinAddr: 0x72094, symSize: 0xB4 }
  - { offset: 0x79231, size: 0x8, addend: 0x0, symName: _sqlite3IdListDelete, symObjAddr: 0x5FD10, symBinAddr: 0x72148, symSize: 0xA0 }
  - { offset: 0x79281, size: 0x8, addend: 0x0, symName: _sqlite3WindowUnlinkFromSelect, symObjAddr: 0x5FDB0, symBinAddr: 0x721E8, symSize: 0x68 }
  - { offset: 0x792AD, size: 0x8, addend: 0x0, symName: _exprListDeleteNN, symObjAddr: 0x5FE18, symBinAddr: 0x72250, symSize: 0x90 }
  - { offset: 0x7930F, size: 0x8, addend: 0x0, symName: _tableOfTrigger, symObjAddr: 0x5FEA8, symBinAddr: 0x722E0, symSize: 0x34 }
  - { offset: 0x7933F, size: 0x8, addend: 0x0, symName: _setPageReferenced, symObjAddr: 0x5FEDC, symBinAddr: 0x72314, symSize: 0x44 }
  - { offset: 0x7937D, size: 0x8, addend: 0x0, symName: _checkList, symObjAddr: 0x5FF20, symBinAddr: 0x72358, symSize: 0x2FC }
  - { offset: 0x79487, size: 0x8, addend: 0x0, symName: _checkAppendMsg, symObjAddr: 0x6021C, symBinAddr: 0x72654, symSize: 0x10C }
  - { offset: 0x794D8, size: 0x8, addend: 0x0, symName: _checkPtrmap, symObjAddr: 0x60328, symBinAddr: 0x72760, symSize: 0x118 }
  - { offset: 0x79570, size: 0x8, addend: 0x0, symName: _checkTreePage, symObjAddr: 0x60440, symBinAddr: 0x72878, symSize: 0x9FC }
  - { offset: 0x7987B, size: 0x8, addend: 0x0, symName: _getPageReferenced, symObjAddr: 0x60E3C, symBinAddr: 0x73274, symSize: 0x40 }
  - { offset: 0x798BD, size: 0x8, addend: 0x0, symName: _checkRef, symObjAddr: 0x60E7C, symBinAddr: 0x732B4, symSize: 0xE8 }
  - { offset: 0x798FF, size: 0x8, addend: 0x0, symName: _btreeHeapInsert, symObjAddr: 0x60F64, symBinAddr: 0x7339C, symSize: 0xD8 }
  - { offset: 0x79961, size: 0x8, addend: 0x0, symName: _btreeHeapPull, symObjAddr: 0x6103C, symBinAddr: 0x73474, symSize: 0x158 }
  - { offset: 0x799D9, size: 0x8, addend: 0x0, symName: _sqlite3RowSetInit, symObjAddr: 0x61194, symBinAddr: 0x735CC, symSize: 0xB8 }
  - { offset: 0x79A33, size: 0x8, addend: 0x0, symName: _sqlite3RowSetDelete, symObjAddr: 0x6124C, symBinAddr: 0x73684, symSize: 0x34 }
  - { offset: 0x79A5B, size: 0x8, addend: 0x0, symName: _sqlite3RowSetClear, symObjAddr: 0x61280, symBinAddr: 0x736B8, symSize: 0xA0 }
  - { offset: 0x79AB3, size: 0x8, addend: 0x0, symName: _rowSetEntryAlloc, symObjAddr: 0x61320, symBinAddr: 0x73758, symSize: 0xC4 }
  - { offset: 0x79AFD, size: 0x8, addend: 0x0, symName: _rowSetEntrySort, symObjAddr: 0x613E4, symBinAddr: 0x7381C, symSize: 0x1B8 }
  - { offset: 0x79B59, size: 0x8, addend: 0x0, symName: _rowSetEntryMerge, symObjAddr: 0x6159C, symBinAddr: 0x739D4, symSize: 0xDC }
  - { offset: 0x79BB5, size: 0x8, addend: 0x0, symName: _rowSetListToTree, symObjAddr: 0x61678, symBinAddr: 0x73AB0, symSize: 0xAC }
  - { offset: 0x79C11, size: 0x8, addend: 0x0, symName: _rowSetTreeToList, symObjAddr: 0x61724, symBinAddr: 0x73B5C, symSize: 0xA4 }
  - { offset: 0x79C77, size: 0x8, addend: 0x0, symName: _rowSetNDeepTree, symObjAddr: 0x617C8, symBinAddr: 0x73C00, symSize: 0xF8 }
  - { offset: 0x79CD3, size: 0x8, addend: 0x0, symName: _execSqlF, symObjAddr: 0x618C0, symBinAddr: 0x73CF8, symSize: 0x8C }
  - { offset: 0x79D5E, size: 0x8, addend: 0x0, symName: _sqlite3BtreeSetSpillSize, symObjAddr: 0x6194C, symBinAddr: 0x73D84, symSize: 0x54 }
  - { offset: 0x79DC4, size: 0x8, addend: 0x0, symName: _sqlite3BtreeSetPagerFlags, symObjAddr: 0x619A0, symBinAddr: 0x73DD8, symSize: 0x50 }
  - { offset: 0x79E18, size: 0x8, addend: 0x0, symName: _execSql, symObjAddr: 0x619F0, symBinAddr: 0x73E28, symSize: 0x160 }
  - { offset: 0x79EB0, size: 0x8, addend: 0x0, symName: _sqlite3BtreeSetAutoVacuum, symObjAddr: 0x61B50, symBinAddr: 0x73F88, symSize: 0xBC }
  - { offset: 0x79F28, size: 0x8, addend: 0x0, symName: _sqlite3BtreeGetAutoVacuum, symObjAddr: 0x61C0C, symBinAddr: 0x74044, symSize: 0x78 }
  - { offset: 0x79F6A, size: 0x8, addend: 0x0, symName: _sqlite3BtreeCopyFile, symObjAddr: 0x61C84, symBinAddr: 0x740BC, symSize: 0x158 }
  - { offset: 0x7A015, size: 0x8, addend: 0x0, symName: _sqlite3PagerSetSpillsize, symObjAddr: 0x61DDC, symBinAddr: 0x74214, symSize: 0x30 }
  - { offset: 0x7A051, size: 0x8, addend: 0x0, symName: _sqlite3PcacheSetSpillsize, symObjAddr: 0x61E0C, symBinAddr: 0x74244, symSize: 0xB4 }
  - { offset: 0x7A09D, size: 0x8, addend: 0x0, symName: _sqlite3PagerSetFlags, symObjAddr: 0x61EC0, symBinAddr: 0x742F8, symSize: 0x184 }
  - { offset: 0x7A0E5, size: 0x8, addend: 0x0, symName: _sqlite3PagerClearCache, symObjAddr: 0x62044, symBinAddr: 0x7447C, symSize: 0x38 }
  - { offset: 0x7A10D, size: 0x8, addend: 0x0, symName: _setSharedCacheTableLock, symObjAddr: 0x6207C, symBinAddr: 0x744B4, symSize: 0x13C }
  - { offset: 0x7A189, size: 0x8, addend: 0x0, symName: _growVTrans, symObjAddr: 0x621B8, symBinAddr: 0x745F0, symSize: 0xC4 }
  - { offset: 0x7A1FD, size: 0x8, addend: 0x0, symName: _addToVTrans, symObjAddr: 0x6227C, symBinAddr: 0x746B4, symSize: 0x4C }
  - { offset: 0x7A23B, size: 0x8, addend: 0x0, symName: _vtabCallConstructor, symObjAddr: 0x622C8, symBinAddr: 0x74700, symSize: 0x5A0 }
  - { offset: 0x7A424, size: 0x8, addend: 0x0, symName: _sqlite3GetVTable, symObjAddr: 0x62868, symBinAddr: 0x74CA0, symSize: 0x78 }
  - { offset: 0x7A478, size: 0x8, addend: 0x0, symName: _vtabDisconnectAll, symObjAddr: 0x628E0, symBinAddr: 0x74D18, symSize: 0xB8 }
  - { offset: 0x7A510, size: 0x8, addend: 0x0, symName: _sqlite3PagerMaxPageCount, symObjAddr: 0x62998, symBinAddr: 0x74DD0, symSize: 0x3C }
  - { offset: 0x7A54C, size: 0x8, addend: 0x0, symName: _sqlite3PagerWalCallback, symObjAddr: 0x629D4, symBinAddr: 0x74E0C, symSize: 0x28 }
  - { offset: 0x7A578, size: 0x8, addend: 0x0, symName: _sqlite3WalCallback, symObjAddr: 0x629FC, symBinAddr: 0x74E34, symSize: 0x3C }
  - { offset: 0x7A5B4, size: 0x8, addend: 0x0, symName: _sqlite3VListNameToNum, symObjAddr: 0x62A44, symBinAddr: 0x74E7C, symSize: 0xE4 }
  - { offset: 0x7A637, size: 0x8, addend: 0x0, symName: _findNextHostParameter, symObjAddr: 0x62B28, symBinAddr: 0x74F60, symSize: 0x98 }
  - { offset: 0x7A6AF, size: 0x8, addend: 0x0, symName: _sqlite3GetToken, symObjAddr: 0x62BC0, symBinAddr: 0x74FF8, symSize: 0xE14 }
  - { offset: 0x7A755, size: 0x8, addend: 0x0, symName: _keywordCode, symObjAddr: 0x63A48, symBinAddr: 0x75E80, symSize: 0x1FC }
  - { offset: 0x7A7DF, size: 0x8, addend: 0x0, symName: _alsoAnInt, symObjAddr: 0x63C44, symBinAddr: 0x7607C, symSize: 0x94 }
  - { offset: 0x7A845, size: 0x8, addend: 0x0, symName: _sqlite3VdbeAddOp2, symObjAddr: 0x63CD8, symBinAddr: 0x76110, symSize: 0x40 }
  - { offset: 0x7A8AB, size: 0x8, addend: 0x0, symName: _sqlite3VdbeAddOp3, symObjAddr: 0x63D18, symBinAddr: 0x76150, symSize: 0xF4 }
  - { offset: 0x7A947, size: 0x8, addend: 0x0, symName: _growOp3, symObjAddr: 0x63E0C, symBinAddr: 0x76244, symSize: 0x70 }
  - { offset: 0x7A9BF, size: 0x8, addend: 0x0, symName: _growOpArray, symObjAddr: 0x63E7C, symBinAddr: 0x762B4, symSize: 0x12C }
  - { offset: 0x7AA37, size: 0x8, addend: 0x0, symName: _sqlite3BtreeSharable, symObjAddr: 0x63FA8, symBinAddr: 0x763E0, symSize: 0x18 }
  - { offset: 0x7AA67, size: 0x8, addend: 0x0, symName: _vdbeChangeP4Full, symObjAddr: 0x63FC0, symBinAddr: 0x763F8, symSize: 0xEC }
  - { offset: 0x7AAC9, size: 0x8, addend: 0x0, symName: _resolveP2Values, symObjAddr: 0x640AC, symBinAddr: 0x764E4, symSize: 0x2E0 }
  - { offset: 0x7AB6F, size: 0x8, addend: 0x0, symName: _sqlite3VdbeSetNumCols, symObjAddr: 0x6438C, symBinAddr: 0x767C4, symSize: 0xCC }
  - { offset: 0x7ABD1, size: 0x8, addend: 0x0, symName: _sqlite3VdbeSetColName, symObjAddr: 0x64458, symBinAddr: 0x76890, symSize: 0xA4 }
  - { offset: 0x7AC6D, size: 0x8, addend: 0x0, symName: _allocSpace, symObjAddr: 0x644FC, symBinAddr: 0x76934, symSize: 0x9C }
  - { offset: 0x7ACC1, size: 0x8, addend: 0x0, symName: _initMemArray, symObjAddr: 0x64598, symBinAddr: 0x769D0, symSize: 0x68 }
  - { offset: 0x7AD23, size: 0x8, addend: 0x0, symName: _sqlite3BtreeIncrblobCursor, symObjAddr: 0x64600, symBinAddr: 0x76A38, symSize: 0x30 }
  - { offset: 0x7AD4F, size: 0x8, addend: 0x0, symName: _sqlite3BtreeEnterCursor, symObjAddr: 0x64630, symBinAddr: 0x76A68, symSize: 0x28 }
  - { offset: 0x7AD77, size: 0x8, addend: 0x0, symName: _sqlite3BtreeLeaveCursor, symObjAddr: 0x64658, symBinAddr: 0x76A90, symSize: 0x28 }
  - { offset: 0x7AD9F, size: 0x8, addend: 0x0, symName: _accessPayloadChecked, symObjAddr: 0x64680, symBinAddr: 0x76AB8, symSize: 0x9C }
  - { offset: 0x7AE17, size: 0x8, addend: 0x0, symName: _sqlite3ReadSchema, symObjAddr: 0x6471C, symBinAddr: 0x76B54, symSize: 0xAC }
  - { offset: 0x7AE6B, size: 0x8, addend: 0x0, symName: _sqlite3PragmaVtabRegister, symObjAddr: 0x647C8, symBinAddr: 0x76C00, symSize: 0x88 }
  - { offset: 0x7AEBF, size: 0x8, addend: 0x0, symName: _sqlite3VtabEponymousTableInit, symObjAddr: 0x64850, symBinAddr: 0x76C88, symSize: 0x20C }
  - { offset: 0x7AF5B, size: 0x8, addend: 0x0, symName: _pragmaLocate, symObjAddr: 0x64A5C, symBinAddr: 0x76E94, symSize: 0x104 }
  - { offset: 0x7AFD3, size: 0x8, addend: 0x0, symName: _sqlite3VtabCreateModule, symObjAddr: 0x64B60, symBinAddr: 0x76F98, symSize: 0x184 }
  - { offset: 0x7B0A1, size: 0x8, addend: 0x0, symName: _sqlite3VtabEponymousTableClear, symObjAddr: 0x64CE4, symBinAddr: 0x7711C, symSize: 0x60 }
  - { offset: 0x7B0F1, size: 0x8, addend: 0x0, symName: _pragmaVtabConnect, symObjAddr: 0x64D44, symBinAddr: 0x7717C, symSize: 0x2C0 }
  - { offset: 0x7B218, size: 0x8, addend: 0x0, symName: _pragmaVtabBestIndex, symObjAddr: 0x65004, symBinAddr: 0x7743C, symSize: 0x234 }
  - { offset: 0x7B2B4, size: 0x8, addend: 0x0, symName: _pragmaVtabDisconnect, symObjAddr: 0x65238, symBinAddr: 0x77670, symSize: 0x30 }
  - { offset: 0x7B2F6, size: 0x8, addend: 0x0, symName: _pragmaVtabOpen, symObjAddr: 0x65268, symBinAddr: 0x776A0, symSize: 0x7C }
  - { offset: 0x7B34A, size: 0x8, addend: 0x0, symName: _pragmaVtabClose, symObjAddr: 0x652E4, symBinAddr: 0x7771C, symSize: 0x38 }
  - { offset: 0x7B38C, size: 0x8, addend: 0x0, symName: _pragmaVtabFilter, symObjAddr: 0x6531C, symBinAddr: 0x77754, symSize: 0x260 }
  - { offset: 0x7B4A5, size: 0x8, addend: 0x0, symName: _pragmaVtabNext, symObjAddr: 0x6557C, symBinAddr: 0x779B4, symSize: 0x7C }
  - { offset: 0x7B4F9, size: 0x8, addend: 0x0, symName: _pragmaVtabEof, symObjAddr: 0x655F8, symBinAddr: 0x77A30, symSize: 0x28 }
  - { offset: 0x7B53B, size: 0x8, addend: 0x0, symName: _pragmaVtabColumn, symObjAddr: 0x65620, symBinAddr: 0x77A58, symSize: 0xAC }
  - { offset: 0x7B5B3, size: 0x8, addend: 0x0, symName: _pragmaVtabRowid, symObjAddr: 0x656CC, symBinAddr: 0x77B04, symSize: 0x30 }
  - { offset: 0x7B607, size: 0x8, addend: 0x0, symName: _pragmaVtabCursorClear, symObjAddr: 0x656FC, symBinAddr: 0x77B34, symSize: 0x84 }
  - { offset: 0x7B645, size: 0x8, addend: 0x0, symName: _addModuleArgument, symObjAddr: 0x65780, symBinAddr: 0x77BB8, symSize: 0x110 }
  - { offset: 0x7B6EB, size: 0x8, addend: 0x0, symName: _sqlite3CollapseDatabaseArray, symObjAddr: 0x65890, symBinAddr: 0x77CC8, symSize: 0x168 }
  - { offset: 0x7B75B, size: 0x8, addend: 0x0, symName: _deleteTable, symObjAddr: 0x659F8, symBinAddr: 0x77E30, symSize: 0x128 }
  - { offset: 0x7B7DD, size: 0x8, addend: 0x0, symName: _sqlite3FkDelete, symObjAddr: 0x65B20, symBinAddr: 0x77F58, symSize: 0x154 }
  - { offset: 0x7B871, size: 0x8, addend: 0x0, symName: _sqlite3DeleteColumnNames, symObjAddr: 0x65C74, symBinAddr: 0x780AC, symSize: 0xB8 }
  - { offset: 0x7B8D3, size: 0x8, addend: 0x0, symName: _sqlite3VtabClear, symObjAddr: 0x65D2C, symBinAddr: 0x78164, symSize: 0xD0 }
  - { offset: 0x7B931, size: 0x8, addend: 0x0, symName: _fkTriggerDelete, symObjAddr: 0x65DFC, symBinAddr: 0x78234, symSize: 0x88 }
  - { offset: 0x7B98F, size: 0x8, addend: 0x0, symName: _sqlite3Utf8Read, symObjAddr: 0x65E84, symBinAddr: 0x782BC, symSize: 0xF0 }
  - { offset: 0x7B9CB, size: 0x8, addend: 0x0, symName: _logBadConnection, symObjAddr: 0x65F74, symBinAddr: 0x783AC, symSize: 0x38 }
  - { offset: 0x7B9F3, size: 0x8, addend: 0x0, symName: _sqlite3OsDlOpen, symObjAddr: 0x65FAC, symBinAddr: 0x783E4, symSize: 0x34 }
  - { offset: 0x7BA2F, size: 0x8, addend: 0x0, symName: _sqlite3OsDlError, symObjAddr: 0x65FE0, symBinAddr: 0x78418, symSize: 0x3C }
  - { offset: 0x7BA77, size: 0x8, addend: 0x0, symName: _sqlite3OsDlSym, symObjAddr: 0x6601C, symBinAddr: 0x78454, symSize: 0x3C }
  - { offset: 0x7BAC3, size: 0x8, addend: 0x0, symName: _sqlite3OsDlClose, symObjAddr: 0x66058, symBinAddr: 0x78490, symSize: 0x34 }
  - { offset: 0x7BAFB, size: 0x8, addend: 0x0, symName: _agginfoFree, symObjAddr: 0x6608C, symBinAddr: 0x784C4, symSize: 0x4C }
  - { offset: 0x7BB39, size: 0x8, addend: 0x0, symName: _sqlite3VdbeDb, symObjAddr: 0x660D8, symBinAddr: 0x78510, symSize: 0x18 }
  - { offset: 0x7BB69, size: 0x8, addend: 0x0, symName: _sqlite3VdbePrepareFlags, symObjAddr: 0x660F0, symBinAddr: 0x78528, symSize: 0x18 }
  - { offset: 0x7BB99, size: 0x8, addend: 0x0, symName: _sqlite3VdbeSwap, symObjAddr: 0x66108, symBinAddr: 0x78540, symSize: 0x124 }
  - { offset: 0x7BC0D, size: 0x8, addend: 0x0, symName: _sqlite3VdbeResetStepResult, symObjAddr: 0x6622C, symBinAddr: 0x78664, symSize: 0x18 }
  - { offset: 0x7BC39, size: 0x8, addend: 0x0, symName: _sqlite3Utf8CharLen, symObjAddr: 0x66244, symBinAddr: 0x7867C, symSize: 0xEC }
  - { offset: 0x7BCA5, size: 0x8, addend: 0x0, symName: _sqlite3Utf16ByteLen, symObjAddr: 0x66330, symBinAddr: 0x78768, symSize: 0xD4 }
  - { offset: 0x7BD11, size: 0x8, addend: 0x0, symName: _sqlite3DeleteTriggerStep, symObjAddr: 0x66404, symBinAddr: 0x7883C, symSize: 0xC4 }
  - { offset: 0x7BD6F, size: 0x8, addend: 0x0, symName: _sqlite3UpsertDelete, symObjAddr: 0x664C8, symBinAddr: 0x78900, symSize: 0x7C }
  - { offset: 0x7BDAD, size: 0x8, addend: 0x0, symName: _sqlite3BinaryCompareCollSeq, symObjAddr: 0x66544, symBinAddr: 0x7897C, symSize: 0xB4 }
  - { offset: 0x7BE13, size: 0x8, addend: 0x0, symName: _sqlite3ExprCollSeq, symObjAddr: 0x665F8, symBinAddr: 0x78A30, symSize: 0x2D4 }
  - { offset: 0x7BF2B, size: 0x8, addend: 0x0, symName: _sqlite3GetCollSeq, symObjAddr: 0x668CC, symBinAddr: 0x78D04, symSize: 0x120 }
  - { offset: 0x7BFB5, size: 0x8, addend: 0x0, symName: _sqlite3CheckCollSeq, symObjAddr: 0x669EC, symBinAddr: 0x78E24, symSize: 0x98 }
  - { offset: 0x7C03B, size: 0x8, addend: 0x0, symName: _callCollNeeded, symObjAddr: 0x66A84, symBinAddr: 0x78EBC, symSize: 0x108 }
  - { offset: 0x7C0DD, size: 0x8, addend: 0x0, symName: _sqlite3ParserInit, symObjAddr: 0x66C4C, symBinAddr: 0x79084, symSize: 0x58 }
  - { offset: 0x7C12D, size: 0x8, addend: 0x0, symName: _analyzeWindowKeyword, symObjAddr: 0x66CA4, symBinAddr: 0x790DC, symSize: 0x80 }
  - { offset: 0x7C16F, size: 0x8, addend: 0x0, symName: _analyzeOverKeyword, symObjAddr: 0x66D24, symBinAddr: 0x7915C, symSize: 0x7C }
  - { offset: 0x7C1D1, size: 0x8, addend: 0x0, symName: _analyzeFilterKeyword, symObjAddr: 0x66DA0, symBinAddr: 0x791D8, symSize: 0x60 }
  - { offset: 0x7C213, size: 0x8, addend: 0x0, symName: _sqlite3Parser, symObjAddr: 0x66E00, symBinAddr: 0x79238, symSize: 0x158 }
  - { offset: 0x7C2AB, size: 0x8, addend: 0x0, symName: _sqlite3ParserFinalize, symObjAddr: 0x66F58, symBinAddr: 0x79390, symSize: 0x50 }
  - { offset: 0x7C2E9, size: 0x8, addend: 0x0, symName: _getToken, symObjAddr: 0x66FA8, symBinAddr: 0x793E0, symSize: 0xD8 }
  - { offset: 0x7C33D, size: 0x8, addend: 0x0, symName: _sqlite3ParserFallback, symObjAddr: 0x67080, symBinAddr: 0x794B8, symSize: 0x20 }
  - { offset: 0x7C36D, size: 0x8, addend: 0x0, symName: _yy_find_shift_action, symObjAddr: 0x670A0, symBinAddr: 0x794D8, symSize: 0x158 }
  - { offset: 0x7C401, size: 0x8, addend: 0x0, symName: _yy_reduce, symObjAddr: 0x671F8, symBinAddr: 0x79630, symSize: 0x3714 }
  - { offset: 0x7C8F5, size: 0x8, addend: 0x0, symName: _yy_shift, symObjAddr: 0x6AE20, symBinAddr: 0x7D258, symSize: 0xC8 }
  - { offset: 0x7C969, size: 0x8, addend: 0x0, symName: _yy_accept, symObjAddr: 0x6AEE8, symBinAddr: 0x7D320, symSize: 0x28 }
  - { offset: 0x7C9A7, size: 0x8, addend: 0x0, symName: _yy_syntax_error, symObjAddr: 0x6AF10, symBinAddr: 0x7D348, symSize: 0x84 }
  - { offset: 0x7CA09, size: 0x8, addend: 0x0, symName: _yy_destructor, symObjAddr: 0x6AF94, symBinAddr: 0x7D3CC, symSize: 0x170 }
  - { offset: 0x7CA6B, size: 0x8, addend: 0x0, symName: _yyStackOverflow, symObjAddr: 0x6B2B4, symBinAddr: 0x7D6EC, symSize: 0x70 }
  - { offset: 0x7CAA9, size: 0x8, addend: 0x0, symName: _sqlite3FinishCoding, symObjAddr: 0x6B324, symBinAddr: 0x7D75C, symSize: 0x364 }
  - { offset: 0x7CBAB, size: 0x8, addend: 0x0, symName: _sqlite3BeginTransaction, symObjAddr: 0x6B688, symBinAddr: 0x7DAC0, symSize: 0x150 }
  - { offset: 0x7CC51, size: 0x8, addend: 0x0, symName: _sqlite3EndTransaction, symObjAddr: 0x6B7D8, symBinAddr: 0x7DC10, symSize: 0x9C }
  - { offset: 0x7CCB3, size: 0x8, addend: 0x0, symName: _disableLookaside, symObjAddr: 0x6BF74, symBinAddr: 0x7E3AC, symSize: 0x44 }
  - { offset: 0x7CCF1, size: 0x8, addend: 0x0, symName: _sqlite3EndTable, symObjAddr: 0x6BFB8, symBinAddr: 0x7E3F0, symSize: 0xA40 }
  - { offset: 0x7CFD0, size: 0x8, addend: 0x0, symName: _sqlite3AddColumn, symObjAddr: 0x6C9F8, symBinAddr: 0x7EE30, symSize: 0x340 }
  - { offset: 0x7D0AC, size: 0x8, addend: 0x0, symName: _sqlite3AddDefaultValue, symObjAddr: 0x6CD38, symBinAddr: 0x7F170, symSize: 0x1C0 }
  - { offset: 0x7D184, size: 0x8, addend: 0x0, symName: _sqlite3PExpr, symObjAddr: 0x6CEF8, symBinAddr: 0x7F330, symSize: 0xC8 }
  - { offset: 0x7D1FC, size: 0x8, addend: 0x0, symName: _tokenExpr, symObjAddr: 0x6CFC0, symBinAddr: 0x7F3F8, symSize: 0x178 }
  - { offset: 0x7D262, size: 0x8, addend: 0x0, symName: _sqlite3ExprIdToTrueFalse, symObjAddr: 0x6D138, symBinAddr: 0x7F570, symSize: 0x7C }
  - { offset: 0x7D2A4, size: 0x8, addend: 0x0, symName: _sqlite3AddNotNull, symObjAddr: 0x6D1B4, symBinAddr: 0x7F5EC, symSize: 0x108 }
  - { offset: 0x7D326, size: 0x8, addend: 0x0, symName: _sqlite3AddPrimaryKey, symObjAddr: 0x6D2BC, symBinAddr: 0x7F6F4, symSize: 0x360 }
  - { offset: 0x7D467, size: 0x8, addend: 0x0, symName: _sqlite3CreateIndex, symObjAddr: 0x6D61C, symBinAddr: 0x7FA54, symSize: 0x1534 }
  - { offset: 0x7D929, size: 0x8, addend: 0x0, symName: _sqlite3AddCheckConstraint, symObjAddr: 0x6EB50, symBinAddr: 0x80F88, symSize: 0x194 }
  - { offset: 0x7D9CF, size: 0x8, addend: 0x0, symName: _sqlite3CreateForeignKey, symObjAddr: 0x6ECE4, symBinAddr: 0x8111C, symSize: 0x628 }
  - { offset: 0x7DB47, size: 0x8, addend: 0x0, symName: _sqlite3DeferForeignKey, symObjAddr: 0x6F30C, symBinAddr: 0x81744, symSize: 0x50 }
  - { offset: 0x7DBA9, size: 0x8, addend: 0x0, symName: _sqlite3AddCollateType, symObjAddr: 0x6F35C, symBinAddr: 0x81794, symSize: 0x154 }
  - { offset: 0x7DC4F, size: 0x8, addend: 0x0, symName: _sqlite3AddGenerated, symObjAddr: 0x6F4B0, symBinAddr: 0x818E8, symSize: 0x1F0 }
  - { offset: 0x7DCFB, size: 0x8, addend: 0x0, symName: _sqlite3DropTable, symObjAddr: 0x6F6A0, symBinAddr: 0x81AD8, symSize: 0x3B4 }
  - { offset: 0x7DE0E, size: 0x8, addend: 0x0, symName: _sqlite3CreateView, symObjAddr: 0x6FA54, symBinAddr: 0x81E8C, symSize: 0x2AC }
  - { offset: 0x7DF5E, size: 0x8, addend: 0x0, symName: _sqlite3Select, symObjAddr: 0x6FD00, symBinAddr: 0x82138, symSize: 0x2490 }
  - { offset: 0x7E6B2, size: 0x8, addend: 0x0, symName: _parserDoubleLinkSelect, symObjAddr: 0x72190, symBinAddr: 0x845C8, symSize: 0xEC }
  - { offset: 0x7E746, size: 0x8, addend: 0x0, symName: _sqlite3SrcListAppendFromTerm, symObjAddr: 0x7227C, symBinAddr: 0x846B4, symSize: 0x1E8 }
  - { offset: 0x7E84B, size: 0x8, addend: 0x0, symName: _sqlite3SelectNew, symObjAddr: 0x72464, symBinAddr: 0x8489C, symSize: 0x200 }
  - { offset: 0x7E946, size: 0x8, addend: 0x0, symName: _sqlite3ExprListAppend, symObjAddr: 0x72664, symBinAddr: 0x84A9C, symSize: 0x158 }
  - { offset: 0x7E9F1, size: 0x8, addend: 0x0, symName: _sqlite3ExprListSetName, symObjAddr: 0x727BC, symBinAddr: 0x84BF4, symSize: 0xC8 }
  - { offset: 0x7EA73, size: 0x8, addend: 0x0, symName: _sqlite3ExprListSetSpan, symObjAddr: 0x72884, symBinAddr: 0x84CBC, symSize: 0xA4 }
  - { offset: 0x7EB07, size: 0x8, addend: 0x0, symName: _sqlite3Expr, symObjAddr: 0x72928, symBinAddr: 0x84D60, symSize: 0x54 }
  - { offset: 0x7EB6D, size: 0x8, addend: 0x0, symName: _sqlite3ExprAlloc, symObjAddr: 0x7297C, symBinAddr: 0x84DB4, symSize: 0x1E8 }
  - { offset: 0x7EC09, size: 0x8, addend: 0x0, symName: _sqlite3SrcListShiftJoinType, symObjAddr: 0x72B64, symBinAddr: 0x84F9C, symSize: 0x98 }
  - { offset: 0x7EC55, size: 0x8, addend: 0x0, symName: _sqlite3SrcListIndexedBy, symObjAddr: 0x72BFC, symBinAddr: 0x85034, symSize: 0xD4 }
  - { offset: 0x7ECC5, size: 0x8, addend: 0x0, symName: _sqlite3SrcListFuncArgs, symObjAddr: 0x72CD0, symBinAddr: 0x85108, symSize: 0x88 }
  - { offset: 0x7ED35, size: 0x8, addend: 0x0, symName: _sqlite3SrcListAppend, symObjAddr: 0x72D58, symBinAddr: 0x85190, symSize: 0x19C }
  - { offset: 0x7EDDF, size: 0x8, addend: 0x0, symName: _sqlite3RenameTokenMap, symObjAddr: 0x72EF4, symBinAddr: 0x8532C, symSize: 0x9C }
  - { offset: 0x7EE45, size: 0x8, addend: 0x0, symName: _sqlite3NameFromToken, symObjAddr: 0x72F90, symBinAddr: 0x853C8, symSize: 0x64 }
  - { offset: 0x7EE99, size: 0x8, addend: 0x0, symName: _sqlite3ExprListSetSortOrder, symObjAddr: 0x73298, symBinAddr: 0x856D0, symSize: 0xBC }
  - { offset: 0x7EEFB, size: 0x8, addend: 0x0, symName: _sqlite3DeleteFrom, symObjAddr: 0x73354, symBinAddr: 0x8578C, symSize: 0xDD4 }
  - { offset: 0x7F253, size: 0x8, addend: 0x0, symName: _sqlite3ExprListCheckLength, symObjAddr: 0x74128, symBinAddr: 0x86560, symSize: 0x78 }
  - { offset: 0x7F2B5, size: 0x8, addend: 0x0, symName: _sqlite3SrcListAppendList, symObjAddr: 0x741A0, symBinAddr: 0x865D8, symSize: 0xB8 }
  - { offset: 0x7F329, size: 0x8, addend: 0x0, symName: _sqlite3Update, symObjAddr: 0x74258, symBinAddr: 0x86690, symSize: 0x22D8 }
  - { offset: 0x7F8FC, size: 0x8, addend: 0x0, symName: _sqlite3ExprListAppendVector, symObjAddr: 0x76530, symBinAddr: 0x88968, symSize: 0x258 }
  - { offset: 0x7F9FD, size: 0x8, addend: 0x0, symName: _sqlite3Insert, symObjAddr: 0x76788, symBinAddr: 0x88BC0, symSize: 0x16AC }
  - { offset: 0x7FEF9, size: 0x8, addend: 0x0, symName: _sqlite3UpsertNew, symObjAddr: 0x77E34, symBinAddr: 0x8A26C, symSize: 0xCC }
  - { offset: 0x7FF83, size: 0x8, addend: 0x0, symName: _sqlite3IdListAppend, symObjAddr: 0x77F00, symBinAddr: 0x8A338, symSize: 0x130 }
  - { offset: 0x7FFFB, size: 0x8, addend: 0x0, symName: _sqlite3ExprAssignVarNumber, symObjAddr: 0x78030, symBinAddr: 0x8A468, symSize: 0x264 }
  - { offset: 0x800D3, size: 0x8, addend: 0x0, symName: _sqlite3ExprAddCollateToken, symObjAddr: 0x78294, symBinAddr: 0x8A6CC, symSize: 0x98 }
  - { offset: 0x80159, size: 0x8, addend: 0x0, symName: _sqlite3ExprAttachSubtrees, symObjAddr: 0x7832C, symBinAddr: 0x8A764, symSize: 0xDC }
  - { offset: 0x801BB, size: 0x8, addend: 0x0, symName: _sqlite3ExprFunction, symObjAddr: 0x78408, symBinAddr: 0x8A840, symSize: 0x114 }
  - { offset: 0x80245, size: 0x8, addend: 0x0, symName: _sqlite3WindowAttach, symObjAddr: 0x7851C, symBinAddr: 0x8A954, symSize: 0xA8 }
  - { offset: 0x80295, size: 0x8, addend: 0x0, symName: _sqlite3ExprAnd, symObjAddr: 0x785C4, symBinAddr: 0x8A9FC, symSize: 0x110 }
  - { offset: 0x802FB, size: 0x8, addend: 0x0, symName: _binaryToUnaryIfNull, symObjAddr: 0x786D4, symBinAddr: 0x8AB0C, symSize: 0x9C }
  - { offset: 0x8036F, size: 0x8, addend: 0x0, symName: _sqlite3ExprUnmapAndDelete, symObjAddr: 0x78770, symBinAddr: 0x8ABA8, symSize: 0x64 }
  - { offset: 0x803AD, size: 0x8, addend: 0x0, symName: _sqlite3ExprIsConstant, symObjAddr: 0x787D4, symBinAddr: 0x8AC0C, symSize: 0x2C }
  - { offset: 0x803DD, size: 0x8, addend: 0x0, symName: _sqlite3ExprSetHeightAndFlags, symObjAddr: 0x78800, symBinAddr: 0x8AC38, symSize: 0x50 }
  - { offset: 0x8041B, size: 0x8, addend: 0x0, symName: _sqlite3PExprAddSelect, symObjAddr: 0x78850, symBinAddr: 0x8AC88, symSize: 0x78 }
  - { offset: 0x8046B, size: 0x8, addend: 0x0, symName: _parserAddExprIdListTerm, symObjAddr: 0x788C8, symBinAddr: 0x8AD00, symSize: 0xBC }
  - { offset: 0x804F5, size: 0x8, addend: 0x0, symName: _sqlite3DropIndex, symObjAddr: 0x78984, symBinAddr: 0x8ADBC, symSize: 0x2A4 }
  - { offset: 0x805F6, size: 0x8, addend: 0x0, symName: _sqlite3Vacuum, symObjAddr: 0x78C28, symBinAddr: 0x8B060, symSize: 0x130 }
  - { offset: 0x8069D, size: 0x8, addend: 0x0, symName: _sqlite3FinishTrigger, symObjAddr: 0x7C8F4, symBinAddr: 0x8ED2C, symSize: 0x32C }
  - { offset: 0x807F8, size: 0x8, addend: 0x0, symName: _sqlite3BeginTrigger, symObjAddr: 0x7CC20, symBinAddr: 0x8F058, symSize: 0x688 }
  - { offset: 0x809C7, size: 0x8, addend: 0x0, symName: _sqlite3TriggerUpdateStep, symObjAddr: 0x7D2A8, symBinAddr: 0x8F6E0, symSize: 0x13C }
  - { offset: 0x80A99, size: 0x8, addend: 0x0, symName: _sqlite3TriggerInsertStep, symObjAddr: 0x7D3E4, symBinAddr: 0x8F81C, symSize: 0x124 }
  - { offset: 0x80B6B, size: 0x8, addend: 0x0, symName: _sqlite3TriggerDeleteStep, symObjAddr: 0x7D508, symBinAddr: 0x8F940, symSize: 0xC4 }
  - { offset: 0x80C07, size: 0x8, addend: 0x0, symName: _sqlite3TriggerSelectStep, symObjAddr: 0x7D5CC, symBinAddr: 0x8FA04, symSize: 0xA4 }
  - { offset: 0x80C7F, size: 0x8, addend: 0x0, symName: _sqlite3DropTrigger, symObjAddr: 0x7D670, symBinAddr: 0x8FAA8, symSize: 0x1B0 }
  - { offset: 0x80D5C, size: 0x8, addend: 0x0, symName: _sqlite3Reindex, symObjAddr: 0x7D8B0, symBinAddr: 0x8FCE8, symSize: 0x1FC }
  - { offset: 0x80E5C, size: 0x8, addend: 0x0, symName: _sqlite3Analyze, symObjAddr: 0x7DAAC, symBinAddr: 0x8FEE4, symSize: 0x21C }
  - { offset: 0x80F4E, size: 0x8, addend: 0x0, symName: _sqlite3AlterRenameTable, symObjAddr: 0x7DCC8, symBinAddr: 0x90100, symSize: 0x460 }
  - { offset: 0x81089, size: 0x8, addend: 0x0, symName: _sqlite3AlterFinishAddColumn, symObjAddr: 0x7E128, symBinAddr: 0x90560, symSize: 0x4D8 }
  - { offset: 0x811FA, size: 0x8, addend: 0x0, symName: _sqlite3AlterBeginAddColumn, symObjAddr: 0x7E600, symBinAddr: 0x90A38, symSize: 0x2A8 }
  - { offset: 0x812D7, size: 0x8, addend: 0x0, symName: _sqlite3AlterRenameColumn, symObjAddr: 0x7E8A8, symBinAddr: 0x90CE0, symSize: 0x2F0 }
  - { offset: 0x813E0, size: 0x8, addend: 0x0, symName: _sqlite3VtabFinishParse, symObjAddr: 0x7EB98, symBinAddr: 0x90FD0, symSize: 0x250 }
  - { offset: 0x814EF, size: 0x8, addend: 0x0, symName: _sqlite3VtabBeginParse, symObjAddr: 0x7EDE8, symBinAddr: 0x91220, symSize: 0x168 }
  - { offset: 0x815A7, size: 0x8, addend: 0x0, symName: _sqlite3VtabArgInit, symObjAddr: 0x7EF50, symBinAddr: 0x91388, symSize: 0x34 }
  - { offset: 0x815D3, size: 0x8, addend: 0x0, symName: _sqlite3VtabArgExtend, symObjAddr: 0x7EF84, symBinAddr: 0x913BC, symSize: 0x80 }
  - { offset: 0x81623, size: 0x8, addend: 0x0, symName: _sqlite3WithPush, symObjAddr: 0x7F004, symBinAddr: 0x9143C, symSize: 0x60 }
  - { offset: 0x81673, size: 0x8, addend: 0x0, symName: _sqlite3WithAdd, symObjAddr: 0x7F064, symBinAddr: 0x9149C, symSize: 0x1F4 }
  - { offset: 0x81761, size: 0x8, addend: 0x0, symName: _sqlite3WindowChain, symObjAddr: 0x7F258, symBinAddr: 0x91690, symSize: 0x188 }
  - { offset: 0x81803, size: 0x8, addend: 0x0, symName: _sqlite3WindowAssemble, symObjAddr: 0x7F3E0, symBinAddr: 0x91818, symSize: 0xB4 }
  - { offset: 0x8187B, size: 0x8, addend: 0x0, symName: _sqlite3WindowAlloc, symObjAddr: 0x7F494, symBinAddr: 0x918CC, symSize: 0x1AC }
  - { offset: 0x8194E, size: 0x8, addend: 0x0, symName: _yy_find_reduce_action, symObjAddr: 0x7F640, symBinAddr: 0x91A78, symSize: 0x4C }
  - { offset: 0x819A2, size: 0x8, addend: 0x0, symName: _yy_pop_parser_stack, symObjAddr: 0x7F68C, symBinAddr: 0x91AC4, symSize: 0x4C }
  - { offset: 0x819E0, size: 0x8, addend: 0x0, symName: _sqlite3GetVdbe, symObjAddr: 0x7F6D8, symBinAddr: 0x91B10, symSize: 0x84 }
  - { offset: 0x81A10, size: 0x8, addend: 0x0, symName: _sqlite3VdbeAddOp0, symObjAddr: 0x7F75C, symBinAddr: 0x91B94, symSize: 0x38 }
  - { offset: 0x81A52, size: 0x8, addend: 0x0, symName: _sqlite3VdbeJumpHere, symObjAddr: 0x7F794, symBinAddr: 0x91BCC, symSize: 0x34 }
  - { offset: 0x81A90, size: 0x8, addend: 0x0, symName: _sqlite3VdbeAddOp4, symObjAddr: 0x7F7C8, symBinAddr: 0x91C00, symSize: 0x68 }
  - { offset: 0x81B3E, size: 0x8, addend: 0x0, symName: _codeTableLocks, symObjAddr: 0x7F830, symBinAddr: 0x91C68, symSize: 0xB0 }
  - { offset: 0x81BC0, size: 0x8, addend: 0x0, symName: _sqlite3ExprCode, symObjAddr: 0x7FA98, symBinAddr: 0x91ED0, symSize: 0xA4 }
  - { offset: 0x81C42, size: 0x8, addend: 0x0, symName: _sqlite3VdbeGoto, symObjAddr: 0x7FB3C, symBinAddr: 0x91F74, symSize: 0x38 }
  - { offset: 0x81C84, size: 0x8, addend: 0x0, symName: _sqlite3VdbeChangeP2, symObjAddr: 0x7FB74, symBinAddr: 0x91FAC, symSize: 0x40 }
  - { offset: 0x81CD4, size: 0x8, addend: 0x0, symName: _sqlite3OpenTable, symObjAddr: 0x7FC30, symBinAddr: 0x92068, symSize: 0xD4 }
  - { offset: 0x81D7A, size: 0x8, addend: 0x0, symName: _sqlite3VdbeLoadString, symObjAddr: 0x7FD04, symBinAddr: 0x9213C, symSize: 0x44 }
  - { offset: 0x81DCE, size: 0x8, addend: 0x0, symName: _sqlite3TableLock, symObjAddr: 0x7FD48, symBinAddr: 0x92180, symSize: 0x224 }
  - { offset: 0x81E8A, size: 0x8, addend: 0x0, symName: _sqlite3VdbeSetP4KeyInfo, symObjAddr: 0x7FF6C, symBinAddr: 0x923A4, symSize: 0x5C }
  - { offset: 0x81EEC, size: 0x8, addend: 0x0, symName: _sqlite3KeyInfoOfIndex, symObjAddr: 0x7FFC8, symBinAddr: 0x92400, symSize: 0x1D8 }
  - { offset: 0x81F96, size: 0x8, addend: 0x0, symName: _sqlite3VdbeAppendP4, symObjAddr: 0x801A0, symBinAddr: 0x925D8, symSize: 0x8C }
  - { offset: 0x81FF8, size: 0x8, addend: 0x0, symName: _sqlite3KeyInfoAlloc, symObjAddr: 0x8022C, symBinAddr: 0x92664, symSize: 0xF4 }
  - { offset: 0x82070, size: 0x8, addend: 0x0, symName: _sqlite3LocateCollSeq, symObjAddr: 0x80320, symBinAddr: 0x92758, symSize: 0xA4 }
  - { offset: 0x820FA, size: 0x8, addend: 0x0, symName: _sqlite3VdbeAddOp1, symObjAddr: 0x81B00, symBinAddr: 0x93F38, symSize: 0x3C }
  - { offset: 0x8214E, size: 0x8, addend: 0x0, symName: _sqlite3TableColumnAffinity, symObjAddr: 0x81B3C, symBinAddr: 0x93F74, symSize: 0x50 }
  - { offset: 0x82190, size: 0x8, addend: 0x0, symName: _sqlite3TableColumnToStorage, symObjAddr: 0x81B8C, symBinAddr: 0x93FC4, symSize: 0xE8 }
  - { offset: 0x821F6, size: 0x8, addend: 0x0, symName: _sqlite3ExprCodeGeneratedColumn, symObjAddr: 0x81C74, symBinAddr: 0x940AC, symSize: 0xE0 }
  - { offset: 0x8226A, size: 0x8, addend: 0x0, symName: _sqlite3ExprCodeGetColumn, symObjAddr: 0x81D54, symBinAddr: 0x9418C, symSize: 0x98 }
  - { offset: 0x82314, size: 0x8, addend: 0x0, symName: _codeInteger, symObjAddr: 0x81DEC, symBinAddr: 0x94224, symSize: 0x1D8 }
  - { offset: 0x823EC, size: 0x8, addend: 0x0, symName: _sqlite3ExprTruthValue, symObjAddr: 0x81FC4, symBinAddr: 0x943FC, symSize: 0x3C }
  - { offset: 0x8241C, size: 0x8, addend: 0x0, symName: _codeReal, symObjAddr: 0x82000, symBinAddr: 0x94438, symSize: 0x98 }
  - { offset: 0x8249E, size: 0x8, addend: 0x0, symName: _sqlite3HexToBlob, symObjAddr: 0x82098, symBinAddr: 0x944D0, symSize: 0xF4 }
  - { offset: 0x8250A, size: 0x8, addend: 0x0, symName: _sqlite3AffinityType, symObjAddr: 0x8218C, symBinAddr: 0x945C4, symSize: 0x304 }
  - { offset: 0x825A2, size: 0x8, addend: 0x0, symName: _sqlite3ExprIsVector, symObjAddr: 0x82490, symBinAddr: 0x948C8, symSize: 0x2C }
  - { offset: 0x825D2, size: 0x8, addend: 0x0, symName: _codeVectorCompare, symObjAddr: 0x824BC, symBinAddr: 0x948F4, symSize: 0x2CC }
  - { offset: 0x82778, size: 0x8, addend: 0x0, symName: _sqlite3ExprCodeTemp, symObjAddr: 0x82788, symBinAddr: 0x94BC0, symSize: 0xF4 }
  - { offset: 0x827FE, size: 0x8, addend: 0x0, symName: _codeCompare, symObjAddr: 0x8287C, symBinAddr: 0x94CB4, symSize: 0xF4 }
  - { offset: 0x828F4, size: 0x8, addend: 0x0, symName: _sqlite3ExprIsConstantNotJoin, symObjAddr: 0x82970, symBinAddr: 0x94DA8, symSize: 0x2C }
  - { offset: 0x82924, size: 0x8, addend: 0x0, symName: _sqlite3ExprCodeRunJustOnce, symObjAddr: 0x8299C, symBinAddr: 0x94DD4, symSize: 0x264 }
  - { offset: 0x82A0E, size: 0x8, addend: 0x0, symName: _exprCodeInlineFunction, symObjAddr: 0x82C00, symBinAddr: 0x95038, symSize: 0x284 }
  - { offset: 0x82B0A, size: 0x8, addend: 0x0, symName: _sqlite3ExprFunctionUsable, symObjAddr: 0x82E84, symBinAddr: 0x952BC, symSize: 0x80 }
  - { offset: 0x82B5A, size: 0x8, addend: 0x0, symName: _sqlite3GetTempRange, symObjAddr: 0x82F04, symBinAddr: 0x9533C, symSize: 0xD0 }
  - { offset: 0x82BC0, size: 0x8, addend: 0x0, symName: _sqlite3ExprCodeExprList, symObjAddr: 0x82FD4, symBinAddr: 0x9540C, symSize: 0x29C }
  - { offset: 0x82D04, size: 0x8, addend: 0x0, symName: _sqlite3VtabOverloadFunction, symObjAddr: 0x83270, symBinAddr: 0x956A8, symSize: 0x210 }
  - { offset: 0x82DE9, size: 0x8, addend: 0x0, symName: _sqlite3VdbeAddFunctionCall, symObjAddr: 0x83480, symBinAddr: 0x958B8, symSize: 0x12C }
  - { offset: 0x82ECD, size: 0x8, addend: 0x0, symName: _sqlite3ReleaseTempRange, symObjAddr: 0x835AC, symBinAddr: 0x959E4, symSize: 0x78 }
  - { offset: 0x82F1D, size: 0x8, addend: 0x0, symName: _sqlite3SubselectError, symObjAddr: 0x83624, symBinAddr: 0x95A5C, symSize: 0x68 }
  - { offset: 0x82F8D, size: 0x8, addend: 0x0, symName: _sqlite3CodeSubselect, symObjAddr: 0x8368C, symBinAddr: 0x95AC4, symSize: 0x3D0 }
  - { offset: 0x83070, size: 0x8, addend: 0x0, symName: _sqlite3ExprVectorSize, symObjAddr: 0x83A5C, symBinAddr: 0x95E94, symSize: 0x98 }
  - { offset: 0x830B2, size: 0x8, addend: 0x0, symName: _sqlite3VdbeMakeLabel, symObjAddr: 0x83AF4, symBinAddr: 0x95F2C, symSize: 0x20 }
  - { offset: 0x830E2, size: 0x8, addend: 0x0, symName: _sqlite3ExprCodeIN, symObjAddr: 0x83B14, symBinAddr: 0x95F4C, symSize: 0x914 }
  - { offset: 0x833F6, size: 0x8, addend: 0x0, symName: _sqlite3VdbeResolveLabel, symObjAddr: 0x84428, symBinAddr: 0x96860, symSize: 0x84 }
  - { offset: 0x83458, size: 0x8, addend: 0x0, symName: _exprCodeBetween, symObjAddr: 0x844AC, symBinAddr: 0x968E4, symSize: 0x18C }
  - { offset: 0x8353A, size: 0x8, addend: 0x0, symName: _sqlite3VdbeChangeP3, symObjAddr: 0x84638, symBinAddr: 0x96A70, symSize: 0x40 }
  - { offset: 0x8358A, size: 0x8, addend: 0x0, symName: _sqlite3ExprDup, symObjAddr: 0x84678, symBinAddr: 0x96AB0, symSize: 0x5C }
  - { offset: 0x835DE, size: 0x8, addend: 0x0, symName: _exprToRegister, symObjAddr: 0x846D4, symBinAddr: 0x96B0C, symSize: 0x78 }
  - { offset: 0x8362E, size: 0x8, addend: 0x0, symName: _exprCodeVector, symObjAddr: 0x8474C, symBinAddr: 0x96B84, symSize: 0x118 }
  - { offset: 0x836C6, size: 0x8, addend: 0x0, symName: _sqlite3ExprIfFalse, symObjAddr: 0x84864, symBinAddr: 0x96C9C, symSize: 0x4C0 }
  - { offset: 0x83839, size: 0x8, addend: 0x0, symName: _setDoNotMergeFlagOnCopy, symObjAddr: 0x84D24, symBinAddr: 0x9715C, symSize: 0x48 }
  - { offset: 0x83865, size: 0x8, addend: 0x0, symName: _sqlite3MayAbort, symObjAddr: 0x84D6C, symBinAddr: 0x971A4, symSize: 0x50 }
  - { offset: 0x838A3, size: 0x8, addend: 0x0, symName: _sqlite3HaltConstraint, symObjAddr: 0x84DBC, symBinAddr: 0x971F4, symSize: 0x84 }
  - { offset: 0x8393B, size: 0x8, addend: 0x0, symName: _sqlite3ReleaseTempReg, symObjAddr: 0x84E40, symBinAddr: 0x97278, symSize: 0x60 }
  - { offset: 0x83979, size: 0x8, addend: 0x0, symName: _sqlite3ExprCodeCopy, symObjAddr: 0x84EA0, symBinAddr: 0x972D8, symSize: 0x74 }
  - { offset: 0x839DB, size: 0x8, addend: 0x0, symName: _sqlite3ExprCodeGetColumnOfTable, symObjAddr: 0x84F14, symBinAddr: 0x9734C, symSize: 0x204 }
  - { offset: 0x83AD3, size: 0x8, addend: 0x0, symName: _sqlite3VdbeParser, symObjAddr: 0x85118, symBinAddr: 0x97550, symSize: 0x18 }
  - { offset: 0x83B03, size: 0x8, addend: 0x0, symName: _sqlite3TableColumnToIndex, symObjAddr: 0x85130, symBinAddr: 0x97568, symSize: 0x84 }
  - { offset: 0x83B57, size: 0x8, addend: 0x0, symName: _sqlite3ColumnDefault, symObjAddr: 0x851B4, symBinAddr: 0x975EC, symSize: 0xF4 }
  - { offset: 0x83BFD, size: 0x8, addend: 0x0, symName: _sqlite3ValueFromExpr, symObjAddr: 0x852A8, symBinAddr: 0x976E0, symSize: 0x6C }
  - { offset: 0x83C75, size: 0x8, addend: 0x0, symName: _valueFromExpr, symObjAddr: 0x85314, symBinAddr: 0x9774C, symSize: 0x5C4 }
  - { offset: 0x83DC0, size: 0x8, addend: 0x0, symName: _valueNew, symObjAddr: 0x858D8, symBinAddr: 0x97D10, symSize: 0x28 }
  - { offset: 0x83E02, size: 0x8, addend: 0x0, symName: _sqlite3VdbeAddOp4Dup8, symObjAddr: 0x85900, symBinAddr: 0x97D38, symSize: 0x8C }
  - { offset: 0x83EB0, size: 0x8, addend: 0x0, symName: _sqlite3ExprSkipCollate, symObjAddr: 0x8598C, symBinAddr: 0x97DC4, symSize: 0x60 }
  - { offset: 0x83EE0, size: 0x8, addend: 0x0, symName: _exprCodeSubselect, symObjAddr: 0x859EC, symBinAddr: 0x97E24, symSize: 0x50 }
  - { offset: 0x83F34, size: 0x8, addend: 0x0, symName: _exprVectorRegister, symObjAddr: 0x85A3C, symBinAddr: 0x97E74, symSize: 0x108 }
  - { offset: 0x83FD0, size: 0x8, addend: 0x0, symName: _sqlite3VectorFieldSubexpr, symObjAddr: 0x85B44, symBinAddr: 0x97F7C, symSize: 0xB4 }
  - { offset: 0x84012, size: 0x8, addend: 0x0, symName: _sqlite3ExprSkipCollateAndLikely, symObjAddr: 0x85BF8, symBinAddr: 0x98030, symSize: 0x90 }
  - { offset: 0x84042, size: 0x8, addend: 0x0, symName: _sqlite3GetTempReg, symObjAddr: 0x85C88, symBinAddr: 0x980C0, symSize: 0x6C }
  - { offset: 0x84072, size: 0x8, addend: 0x0, symName: _binaryCompareP5, symObjAddr: 0x85CF4, symBinAddr: 0x9812C, symSize: 0x54 }
  - { offset: 0x840D8, size: 0x8, addend: 0x0, symName: _sqlite3ExprAffinity, symObjAddr: 0x85D48, symBinAddr: 0x98180, symSize: 0x198 }
  - { offset: 0x8411A, size: 0x8, addend: 0x0, symName: _sqlite3CompareAffinity, symObjAddr: 0x85EE0, symBinAddr: 0x98318, symSize: 0xC0 }
  - { offset: 0x8416E, size: 0x8, addend: 0x0, symName: _exprIsConst, symObjAddr: 0x85FA0, symBinAddr: 0x983D8, symSize: 0x5C }
  - { offset: 0x841D4, size: 0x8, addend: 0x0, symName: _exprNodeIsConstant, symObjAddr: 0x85FFC, symBinAddr: 0x98434, symSize: 0x248 }
  - { offset: 0x84216, size: 0x8, addend: 0x0, symName: _sqlite3SelectWalkFail, symObjAddr: 0x86244, symBinAddr: 0x9867C, symSize: 0x20 }
  - { offset: 0x84258, size: 0x8, addend: 0x0, symName: _sqlite3WalkExpr, symObjAddr: 0x86264, symBinAddr: 0x9869C, symSize: 0x50 }
  - { offset: 0x8429A, size: 0x8, addend: 0x0, symName: _walkExpr, symObjAddr: 0x862B4, symBinAddr: 0x986EC, symSize: 0x18C }
  - { offset: 0x842EE, size: 0x8, addend: 0x0, symName: _sqlite3WalkSelect, symObjAddr: 0x86440, symBinAddr: 0x98878, symSize: 0x108 }
  - { offset: 0x84342, size: 0x8, addend: 0x0, symName: _sqlite3WalkExprList, symObjAddr: 0x86548, symBinAddr: 0x98980, symSize: 0xAC }
  - { offset: 0x843A8, size: 0x8, addend: 0x0, symName: _walkWindowList, symObjAddr: 0x865F4, symBinAddr: 0x98A2C, symSize: 0x134 }
  - { offset: 0x8441C, size: 0x8, addend: 0x0, symName: _sqlite3WalkSelectExpr, symObjAddr: 0x86728, symBinAddr: 0x98B60, symSize: 0x150 }
  - { offset: 0x8449E, size: 0x8, addend: 0x0, symName: _sqlite3WalkSelectFrom, symObjAddr: 0x86878, symBinAddr: 0x98CB0, symSize: 0xFC }
  - { offset: 0x84516, size: 0x8, addend: 0x0, symName: _sqlite3ExprCompare, symObjAddr: 0x86974, symBinAddr: 0x98DAC, symSize: 0x570 }
  - { offset: 0x8458E, size: 0x8, addend: 0x0, symName: _exprCompareVariable, symObjAddr: 0x86EE4, symBinAddr: 0x9931C, symSize: 0xF0 }
  - { offset: 0x8462A, size: 0x8, addend: 0x0, symName: _sqlite3WindowCompare, symObjAddr: 0x86FD4, symBinAddr: 0x9940C, symSize: 0x1FC }
  - { offset: 0x846A2, size: 0x8, addend: 0x0, symName: _sqlite3ExprListCompare, symObjAddr: 0x871D0, symBinAddr: 0x99608, symSize: 0x178 }
  - { offset: 0x8474C, size: 0x8, addend: 0x0, symName: _sqlite3VdbeSetVarmask, symObjAddr: 0x87348, symBinAddr: 0x99780, symSize: 0x5C }
  - { offset: 0x8478A, size: 0x8, addend: 0x0, symName: _sqlite3VdbeGetBoundValue, symObjAddr: 0x873A4, symBinAddr: 0x997DC, symSize: 0xB4 }
  - { offset: 0x8481E, size: 0x8, addend: 0x0, symName: _sqlite3ExprImpliesExpr, symObjAddr: 0x87458, symBinAddr: 0x99890, symSize: 0x100 }
  - { offset: 0x84884, size: 0x8, addend: 0x0, symName: _sqlite3ExprImpliesNonNullRow, symObjAddr: 0x87558, symBinAddr: 0x99990, symSize: 0xF0 }
  - { offset: 0x848D8, size: 0x8, addend: 0x0, symName: _exprImpliesNotNull, symObjAddr: 0x87648, symBinAddr: 0x99A80, symSize: 0x260 }
  - { offset: 0x84970, size: 0x8, addend: 0x0, symName: _impliesNotNullRow, symObjAddr: 0x87B28, symBinAddr: 0x99F60, symSize: 0x280 }
  - { offset: 0x849E4, size: 0x8, addend: 0x0, symName: _sqlite3VdbeCurrentAddr, symObjAddr: 0x87DA8, symBinAddr: 0x9A1E0, symSize: 0x18 }
  - { offset: 0x84A14, size: 0x8, addend: 0x0, symName: _sqlite3VdbeExplain, symObjAddr: 0x87DC0, symBinAddr: 0x9A1F8, symSize: 0xB8 }
  - { offset: 0x84ABB, size: 0x8, addend: 0x0, symName: _sqlite3SelectDestInit, symObjAddr: 0x87E78, symBinAddr: 0x9A2B0, symSize: 0x50 }
  - { offset: 0x84B0B, size: 0x8, addend: 0x0, symName: _sqlite3VdbeChangeP1, symObjAddr: 0x87EC8, symBinAddr: 0x9A300, symSize: 0x40 }
  - { offset: 0x84B5B, size: 0x8, addend: 0x0, symName: _sqlite3ClearTempRegCache, symObjAddr: 0x87F08, symBinAddr: 0x9A340, symSize: 0x20 }
  - { offset: 0x84B87, size: 0x8, addend: 0x0, symName: _sqlite3ExprCheckIN, symObjAddr: 0x87F28, symBinAddr: 0x9A360, symSize: 0xC8 }
  - { offset: 0x84BDB, size: 0x8, addend: 0x0, symName: _exprINAffinity, symObjAddr: 0x87FF0, symBinAddr: 0x9A428, symSize: 0x154 }
  - { offset: 0x84CB7, size: 0x8, addend: 0x0, symName: _sqlite3FindInIndex, symObjAddr: 0x88144, symBinAddr: 0x9A57C, symSize: 0x83C }
  - { offset: 0x85012, size: 0x8, addend: 0x0, symName: _sqlite3ExprCanBeNull, symObjAddr: 0x88980, symBinAddr: 0x9ADB8, symSize: 0x18C }
  - { offset: 0x85054, size: 0x8, addend: 0x0, symName: _sqlite3VectorErrorMsg, symObjAddr: 0x88B0C, symBinAddr: 0x9AF44, symSize: 0x64 }
  - { offset: 0x85092, size: 0x8, addend: 0x0, symName: _isCandidateForInOpt, symObjAddr: 0x88B70, symBinAddr: 0x9AFA8, symSize: 0x1A0 }
  - { offset: 0x8513C, size: 0x8, addend: 0x0, symName: _sqlite3CodeVerifySchema, symObjAddr: 0x88D10, symBinAddr: 0x9B148, symSize: 0x58 }
  - { offset: 0x8517A, size: 0x8, addend: 0x0, symName: _sqlite3SetHasNullFlag, symObjAddr: 0x88D68, symBinAddr: 0x9B1A0, symSize: 0x80 }
  - { offset: 0x851DC, size: 0x8, addend: 0x0, symName: _sqlite3InRhsIsConstant, symObjAddr: 0x88DE8, symBinAddr: 0x9B220, symSize: 0x4C }
  - { offset: 0x85230, size: 0x8, addend: 0x0, symName: _sqlite3CodeRhsOfIN, symObjAddr: 0x88E34, symBinAddr: 0x9B26C, symSize: 0x55C }
  - { offset: 0x85413, size: 0x8, addend: 0x0, symName: _sqlite3CodeVerifySchemaAtToplevel, symObjAddr: 0x89390, symBinAddr: 0x9B7C8, symSize: 0x80 }
  - { offset: 0x85451, size: 0x8, addend: 0x0, symName: _sqlite3VdbeChangeToNoop, symObjAddr: 0x89410, symBinAddr: 0x9B848, symSize: 0xA0 }
  - { offset: 0x854A5, size: 0x8, addend: 0x0, symName: _resizeResolveLabel, symObjAddr: 0x894B0, symBinAddr: 0x9B8E8, symSize: 0xA0 }
  - { offset: 0x85507, size: 0x8, addend: 0x0, symName: _exprDup, symObjAddr: 0x89550, symBinAddr: 0x9B988, symSize: 0x44C }
  - { offset: 0x85627, size: 0x8, addend: 0x0, symName: _dupedExprSize, symObjAddr: 0x8999C, symBinAddr: 0x9BDD4, symSize: 0x94 }
  - { offset: 0x8567B, size: 0x8, addend: 0x0, symName: _dupedExprStructSize, symObjAddr: 0x89A30, symBinAddr: 0x9BE68, symSize: 0x90 }
  - { offset: 0x856CF, size: 0x8, addend: 0x0, symName: _exprStructSize, symObjAddr: 0x89AC0, symBinAddr: 0x9BEF8, symSize: 0x58 }
  - { offset: 0x856FF, size: 0x8, addend: 0x0, symName: _sqlite3SelectDup, symObjAddr: 0x89B18, symBinAddr: 0x9BF50, symSize: 0x248 }
  - { offset: 0x857BB, size: 0x8, addend: 0x0, symName: _sqlite3ExprListDup, symObjAddr: 0x89D60, symBinAddr: 0x9C198, symSize: 0x25C }
  - { offset: 0x8589B, size: 0x8, addend: 0x0, symName: _dupedExprNodeSize, symObjAddr: 0x89FBC, symBinAddr: 0x9C3F4, symSize: 0x84 }
  - { offset: 0x858EF, size: 0x8, addend: 0x0, symName: _sqlite3WindowDup, symObjAddr: 0x8A040, symBinAddr: 0x9C478, symSize: 0x1D8 }
  - { offset: 0x85955, size: 0x8, addend: 0x0, symName: _sqlite3SrcListDup, symObjAddr: 0x8A218, symBinAddr: 0x9C650, symSize: 0x2D4 }
  - { offset: 0x85A23, size: 0x8, addend: 0x0, symName: _withDup, symObjAddr: 0x8A4EC, symBinAddr: 0x9C924, symSize: 0x15C }
  - { offset: 0x85AB7, size: 0x8, addend: 0x0, symName: _sqlite3WindowListDup, symObjAddr: 0x8A648, symBinAddr: 0x9CA80, symSize: 0x98 }
  - { offset: 0x85B2F, size: 0x8, addend: 0x0, symName: _gatherSelectWindows, symObjAddr: 0x8A6E0, symBinAddr: 0x9CB18, symSize: 0x50 }
  - { offset: 0x85B6D, size: 0x8, addend: 0x0, symName: _sqlite3IdListDup, symObjAddr: 0x8A730, symBinAddr: 0x9CB68, symSize: 0x13C }
  - { offset: 0x85C05, size: 0x8, addend: 0x0, symName: _gatherSelectWindowsCallback, symObjAddr: 0x8A86C, symBinAddr: 0x9CCA4, symSize: 0x70 }
  - { offset: 0x85C79, size: 0x8, addend: 0x0, symName: _gatherSelectWindowsSelectCallback, symObjAddr: 0x8A8DC, symBinAddr: 0x9CD14, symSize: 0x28 }
  - { offset: 0x85CBB, size: 0x8, addend: 0x0, symName: _sqlite3WindowLink, symObjAddr: 0x8A904, symBinAddr: 0x9CD3C, symSize: 0xB4 }
  - { offset: 0x85CF9, size: 0x8, addend: 0x0, symName: _sqlite3ExprCodeFactorable, symObjAddr: 0x8A9B8, symBinAddr: 0x9CDF0, symSize: 0x6C }
  - { offset: 0x85D49, size: 0x8, addend: 0x0, symName: _sqlite3ExprSimplifiedAndOr, symObjAddr: 0x8AA24, symBinAddr: 0x9CE5C, symSize: 0x170 }
  - { offset: 0x85DAB, size: 0x8, addend: 0x0, symName: _sqlite3ExprIfTrue, symObjAddr: 0x8AB94, symBinAddr: 0x9CFCC, symSize: 0x4B8 }
  - { offset: 0x85F30, size: 0x8, addend: 0x0, symName: _sqlite3AuthCheck, symObjAddr: 0x8B04C, symBinAddr: 0x9D484, symSize: 0x11C }
  - { offset: 0x85FCC, size: 0x8, addend: 0x0, symName: _sqliteAuthBadReturnCode, symObjAddr: 0x8B168, symBinAddr: 0x9D5A0, symSize: 0x38 }
  - { offset: 0x85FF8, size: 0x8, addend: 0x0, symName: _sqlite3TwoPartName, symObjAddr: 0x8B1A0, symBinAddr: 0x9D5D8, symSize: 0xF4 }
  - { offset: 0x86082, size: 0x8, addend: 0x0, symName: _sqlite3CheckObjectName, symObjAddr: 0x8B294, symBinAddr: 0x9D6CC, symSize: 0x17C }
  - { offset: 0x860FA, size: 0x8, addend: 0x0, symName: _sqlite3BeginWriteOperation, symObjAddr: 0x8B410, symBinAddr: 0x9D848, symSize: 0x94 }
  - { offset: 0x8615C, size: 0x8, addend: 0x0, symName: _sqlite3OpenSchemaTable, symObjAddr: 0x8B4A4, symBinAddr: 0x9D8DC, symSize: 0x88 }
  - { offset: 0x861AC, size: 0x8, addend: 0x0, symName: _sqlite3FindDb, symObjAddr: 0x8B52C, symBinAddr: 0x9D964, symSize: 0x50 }
  - { offset: 0x86212, size: 0x8, addend: 0x0, symName: _sqlite3ReadOnlyShadowTables, symObjAddr: 0x8B57C, symBinAddr: 0x9D9B4, symSize: 0x58 }
  - { offset: 0x86242, size: 0x8, addend: 0x0, symName: _sqlite3ShadowTableName, symObjAddr: 0x8B5D4, symBinAddr: 0x9DA0C, symSize: 0xB4 }
  - { offset: 0x862A8, size: 0x8, addend: 0x0, symName: _sqlite3IsShadowTableOf, symObjAddr: 0x8B688, symBinAddr: 0x9DAC0, symSize: 0x128 }
  - { offset: 0x86320, size: 0x8, addend: 0x0, symName: _convertToWithoutRowidTable, symObjAddr: 0x8B7B0, symBinAddr: 0x9DBE8, symSize: 0x714 }
  - { offset: 0x86441, size: 0x8, addend: 0x0, symName: _sqlite3ResolveSelfReference, symObjAddr: 0x8BEC4, symBinAddr: 0x9E2FC, symSize: 0x14C }
  - { offset: 0x864F0, size: 0x8, addend: 0x0, symName: _estimateTableWidth, symObjAddr: 0x8C010, symBinAddr: 0x9E448, symSize: 0xBC }
  - { offset: 0x86552, size: 0x8, addend: 0x0, symName: _estimateIndexWidth, symObjAddr: 0x8C0CC, symBinAddr: 0x9E504, symSize: 0xE4 }
  - { offset: 0x865D4, size: 0x8, addend: 0x0, symName: _sqlite3ResultSetOfSelect, symObjAddr: 0x8C1B0, symBinAddr: 0x9E5E8, symSize: 0x16C }
  - { offset: 0x8665E, size: 0x8, addend: 0x0, symName: _sqlite3VdbeEndCoroutine, symObjAddr: 0x8C31C, symBinAddr: 0x9E754, symSize: 0x48 }
  - { offset: 0x8669C, size: 0x8, addend: 0x0, symName: _sqlite3TableAffinity, symObjAddr: 0x8C364, symBinAddr: 0x9E79C, symSize: 0x1E0 }
  - { offset: 0x86742, size: 0x8, addend: 0x0, symName: _sqlite3NestedParse, symObjAddr: 0x8C828, symBinAddr: 0x9EC60, symSize: 0x17C }
  - { offset: 0x867DD, size: 0x8, addend: 0x0, symName: _sqlite3ChangeCookie, symObjAddr: 0x8C9A4, symBinAddr: 0x9EDDC, symSize: 0x68 }
  - { offset: 0x8683F, size: 0x8, addend: 0x0, symName: _sqlite3VdbeAddParseSchemaOp, symObjAddr: 0x8CA0C, symBinAddr: 0x9EE44, symSize: 0x94 }
  - { offset: 0x868A1, size: 0x8, addend: 0x0, symName: _sqlite3TokenInit, symObjAddr: 0x8CAA0, symBinAddr: 0x9EED8, symSize: 0x3C }
  - { offset: 0x868D9, size: 0x8, addend: 0x0, symName: _sqlite3RenameTokenRemap, symObjAddr: 0x8CADC, symBinAddr: 0x9EF14, symSize: 0x70 }
  - { offset: 0x8693B, size: 0x8, addend: 0x0, symName: _isDupColumn, symObjAddr: 0x8CB4C, symBinAddr: 0x9EF84, symSize: 0xD0 }
  - { offset: 0x869C5, size: 0x8, addend: 0x0, symName: _sqlite3VdbeChangeOpcode, symObjAddr: 0x8CC1C, symBinAddr: 0x9F054, symSize: 0x40 }
  - { offset: 0x86A15, size: 0x8, addend: 0x0, symName: _resizeIndexObject, symObjAddr: 0x8CC5C, symBinAddr: 0x9F094, symSize: 0x1C8 }
  - { offset: 0x86A8D, size: 0x8, addend: 0x0, symName: _hasColumn, symObjAddr: 0x8CE24, symBinAddr: 0x9F25C, symSize: 0x70 }
  - { offset: 0x86AE1, size: 0x8, addend: 0x0, symName: _recomputeColumnsNotIndexed, symObjAddr: 0x8CE94, symBinAddr: 0x9F2CC, symSize: 0xD4 }
  - { offset: 0x86B63, size: 0x8, addend: 0x0, symName: _sqlite3ResolveExprNames, symObjAddr: 0x8CF68, symBinAddr: 0x9F3A0, symSize: 0x168 }
  - { offset: 0x86BC9, size: 0x8, addend: 0x0, symName: _sqlite3ResolveExprListNames, symObjAddr: 0x8D0D0, symBinAddr: 0x9F508, symSize: 0x210 }
  - { offset: 0x86C61, size: 0x8, addend: 0x0, symName: _resolveExprStep, symObjAddr: 0x8D2E0, symBinAddr: 0x9F718, symSize: 0xF40 }
  - { offset: 0x86F6F, size: 0x8, addend: 0x0, symName: _resolveSelectStep, symObjAddr: 0x8E220, symBinAddr: 0xA0658, symSize: 0x7B0 }
  - { offset: 0x87162, size: 0x8, addend: 0x0, symName: _sqlite3ExprCheckHeight, symObjAddr: 0x8E9D0, symBinAddr: 0xA0E08, symSize: 0x74 }
  - { offset: 0x871C8, size: 0x8, addend: 0x0, symName: _notValidImpl, symObjAddr: 0x8EA44, symBinAddr: 0xA0E7C, symSize: 0xDC }
  - { offset: 0x8723C, size: 0x8, addend: 0x0, symName: _lookupName, symObjAddr: 0x8EB20, symBinAddr: 0xA0F58, symSize: 0xEBC }
  - { offset: 0x8753A, size: 0x8, addend: 0x0, symName: _exprProbability, symObjAddr: 0x8F9DC, symBinAddr: 0xA1E14, symSize: 0xB0 }
  - { offset: 0x8757C, size: 0x8, addend: 0x0, symName: _sqlite3WindowUpdate, symObjAddr: 0x8FA8C, symBinAddr: 0xA1EC4, symSize: 0x380 }
  - { offset: 0x8769D, size: 0x8, addend: 0x0, symName: _sqlite3FunctionUsesThisSrc, symObjAddr: 0x8FE0C, symBinAddr: 0xA2244, symSize: 0x10C }
  - { offset: 0x87703, size: 0x8, addend: 0x0, symName: _sqlite3MatchEName, symObjAddr: 0x8FF18, symBinAddr: 0xA2350, symSize: 0x1F4 }
  - { offset: 0x8778D, size: 0x8, addend: 0x0, symName: _sqlite3StrIHash, symObjAddr: 0x9010C, symBinAddr: 0xA2544, symSize: 0x80 }
  - { offset: 0x877C9, size: 0x8, addend: 0x0, symName: _nameInUsingClause, symObjAddr: 0x9018C, symBinAddr: 0xA25C4, symSize: 0xA0 }
  - { offset: 0x8782B, size: 0x8, addend: 0x0, symName: _resolveAlias, symObjAddr: 0x9022C, symBinAddr: 0xA2664, symSize: 0x1A4 }
  - { offset: 0x878E7, size: 0x8, addend: 0x0, symName: _areDoubleQuotedStringsEnabled, symObjAddr: 0x903D0, symBinAddr: 0xA2808, symSize: 0xAC }
  - { offset: 0x87929, size: 0x8, addend: 0x0, symName: _sqlite3ExprColUsed, symObjAddr: 0x9047C, symBinAddr: 0xA28B4, symSize: 0xDC }
  - { offset: 0x8797D, size: 0x8, addend: 0x0, symName: _sqlite3AuthRead, symObjAddr: 0x90558, symBinAddr: 0xA2990, symSize: 0x1E0 }
  - { offset: 0x87A4B, size: 0x8, addend: 0x0, symName: _incrAggFunctionDepth, symObjAddr: 0x90738, symBinAddr: 0xA2B70, symSize: 0x68 }
  - { offset: 0x87AA9, size: 0x8, addend: 0x0, symName: _sqlite3ExprAddCollateString, symObjAddr: 0x907A0, symBinAddr: 0xA2BD8, symSize: 0x48 }
  - { offset: 0x87B0F, size: 0x8, addend: 0x0, symName: _incrAggDepth, symObjAddr: 0x907E8, symBinAddr: 0xA2C20, symSize: 0x48 }
  - { offset: 0x87B51, size: 0x8, addend: 0x0, symName: _sqlite3AuthReadCol, symObjAddr: 0x90830, symBinAddr: 0xA2C68, symSize: 0x178 }
  - { offset: 0x87C0D, size: 0x8, addend: 0x0, symName: _windowFind, symObjAddr: 0x909A8, symBinAddr: 0xA2DE0, symSize: 0x9C }
  - { offset: 0x87C73, size: 0x8, addend: 0x0, symName: _exprSrcCount, symObjAddr: 0x90A44, symBinAddr: 0xA2E7C, symSize: 0x14C }
  - { offset: 0x87D0B, size: 0x8, addend: 0x0, symName: _selectSrcCount, symObjAddr: 0x90B90, symBinAddr: 0xA2FC8, symSize: 0x7C }
  - { offset: 0x87D5F, size: 0x8, addend: 0x0, symName: _sqlite3SelectPrep, symObjAddr: 0x90C0C, symBinAddr: 0xA3044, symSize: 0xCC }
  - { offset: 0x87DAF, size: 0x8, addend: 0x0, symName: _sqlite3ResolveSelectNames, symObjAddr: 0x90CD8, symBinAddr: 0xA3110, symSize: 0x5C }
  - { offset: 0x87E11, size: 0x8, addend: 0x0, symName: _resolveOrderGroupBy, symObjAddr: 0x90D34, symBinAddr: 0xA316C, symSize: 0x260 }
  - { offset: 0x87F15, size: 0x8, addend: 0x0, symName: _sqlite3SelectWrongNumTermsError, symObjAddr: 0x90F94, symBinAddr: 0xA33CC, symSize: 0x78 }
  - { offset: 0x87F53, size: 0x8, addend: 0x0, symName: _resolveCompoundOrderBy, symObjAddr: 0x9100C, symBinAddr: 0xA3444, symSize: 0x4E0 }
  - { offset: 0x88095, size: 0x8, addend: 0x0, symName: _sqlite3SelectExpand, symObjAddr: 0x914EC, symBinAddr: 0xA3924, symSize: 0x8C }
  - { offset: 0x880E5, size: 0x8, addend: 0x0, symName: _sqlite3SelectAddTypeInfo, symObjAddr: 0x91578, symBinAddr: 0xA39B0, symSize: 0x58 }
  - { offset: 0x88135, size: 0x8, addend: 0x0, symName: _sqlite3ExprWalkNoop, symObjAddr: 0x915D0, symBinAddr: 0xA3A08, symSize: 0x18 }
  - { offset: 0x88177, size: 0x8, addend: 0x0, symName: _convertCompoundSelectToSubquery, symObjAddr: 0x915E8, symBinAddr: 0xA3A20, symSize: 0x2E4 }
  - { offset: 0x8824A, size: 0x8, addend: 0x0, symName: _selectExpander, symObjAddr: 0x918CC, symBinAddr: 0xA3D04, symSize: 0xD14 }
  - { offset: 0x8858A, size: 0x8, addend: 0x0, symName: _selectPopWith, symObjAddr: 0x925E0, symBinAddr: 0xA4A18, symSize: 0x80 }
  - { offset: 0x885FA, size: 0x8, addend: 0x0, symName: _sqlite3SrcListAssignCursors, symObjAddr: 0x92660, symBinAddr: 0xA4A98, symSize: 0xD0 }
  - { offset: 0x8865C, size: 0x8, addend: 0x0, symName: _withExpand, symObjAddr: 0x92730, symBinAddr: 0xA4B68, symSize: 0x588 }
  - { offset: 0x887DC, size: 0x8, addend: 0x0, symName: _sqlite3ExpandSubquery, symObjAddr: 0x92CB8, symBinAddr: 0xA50F0, symSize: 0x15C }
  - { offset: 0x88842, size: 0x8, addend: 0x0, symName: _sqlite3LocateTableItem, symObjAddr: 0x92E14, symBinAddr: 0xA524C, symSize: 0x94 }
  - { offset: 0x888C8, size: 0x8, addend: 0x0, symName: _cannotBeFunction, symObjAddr: 0x92EA8, symBinAddr: 0xA52E0, symSize: 0x68 }
  - { offset: 0x8890A, size: 0x8, addend: 0x0, symName: _sqlite3ViewGetColumnNames, symObjAddr: 0x92F10, symBinAddr: 0xA5348, symSize: 0x36C }
  - { offset: 0x889EA, size: 0x8, addend: 0x0, symName: _sqlite3IndexedByLookup, symObjAddr: 0x9327C, symBinAddr: 0xA56B4, symSize: 0x11C }
  - { offset: 0x88A70, size: 0x8, addend: 0x0, symName: _sqliteProcessJoin, symObjAddr: 0x93398, symBinAddr: 0xA57D0, symSize: 0x39C }
  - { offset: 0x88BF9, size: 0x8, addend: 0x0, symName: _tableAndColumnIndex, symObjAddr: 0x93734, symBinAddr: 0xA5B6C, symSize: 0x11C }
  - { offset: 0x88CA7, size: 0x8, addend: 0x0, symName: _sqlite3IdListIndex, symObjAddr: 0x93850, symBinAddr: 0xA5C88, symSize: 0xAC }
  - { offset: 0x88CFB, size: 0x8, addend: 0x0, symName: _searchWith, symObjAddr: 0x938FC, symBinAddr: 0xA5D34, symSize: 0x100 }
  - { offset: 0x88DA1, size: 0x8, addend: 0x0, symName: _sqlite3ColumnsFromExprList, symObjAddr: 0x939FC, symBinAddr: 0xA5E34, symSize: 0x56C }
  - { offset: 0x88F15, size: 0x8, addend: 0x0, symName: _sqlite3IsTrueOrFalse, symObjAddr: 0x93F68, symBinAddr: 0xA63A0, symSize: 0x70 }
  - { offset: 0x88F45, size: 0x8, addend: 0x0, symName: _sqlite3VtabCallConnect, symObjAddr: 0x93FD8, symBinAddr: 0xA6410, symSize: 0x140 }
  - { offset: 0x8900F, size: 0x8, addend: 0x0, symName: _sqlite3SelectAddColumnTypeAndCollation, symObjAddr: 0x94118, symBinAddr: 0xA6550, symSize: 0x224 }
  - { offset: 0x89134, size: 0x8, addend: 0x0, symName: _columnTypeImpl, symObjAddr: 0x9433C, symBinAddr: 0xA6774, symSize: 0x2C0 }
  - { offset: 0x89276, size: 0x8, addend: 0x0, symName: _addWhereTerm, symObjAddr: 0x945FC, symBinAddr: 0xA6A34, symSize: 0xE4 }
  - { offset: 0x89368, size: 0x8, addend: 0x0, symName: _sqlite3SetJoinExpr, symObjAddr: 0x946E0, symBinAddr: 0xA6B18, symSize: 0xF0 }
  - { offset: 0x893C6, size: 0x8, addend: 0x0, symName: _columnIndex, symObjAddr: 0x947D0, symBinAddr: 0xA6C08, symSize: 0xC4 }
  - { offset: 0x8943E, size: 0x8, addend: 0x0, symName: _sqlite3CreateColumnExpr, symObjAddr: 0x94894, symBinAddr: 0xA6CCC, symSize: 0x198 }
  - { offset: 0x894E8, size: 0x8, addend: 0x0, symName: _findRightmost, symObjAddr: 0x94A2C, symBinAddr: 0xA6E64, symSize: 0x38 }
  - { offset: 0x89518, size: 0x8, addend: 0x0, symName: _sqlite3SelectWalkNoop, symObjAddr: 0x94A64, symBinAddr: 0xA6E9C, symSize: 0x18 }
  - { offset: 0x8955A, size: 0x8, addend: 0x0, symName: _selectAddSubqueryTypeInfo, symObjAddr: 0x94A7C, symBinAddr: 0xA6EB4, symSize: 0x11C }
  - { offset: 0x89620, size: 0x8, addend: 0x0, symName: _resolveAsName, symObjAddr: 0x94B98, symBinAddr: 0xA6FD0, symSize: 0xEC }
  - { offset: 0x896A6, size: 0x8, addend: 0x0, symName: _sqlite3ExprIsInteger, symObjAddr: 0x94C84, symBinAddr: 0xA70BC, symSize: 0xF4 }
  - { offset: 0x8971A, size: 0x8, addend: 0x0, symName: _resolveOutOfRangeError, symObjAddr: 0x94D78, symBinAddr: 0xA71B0, symSize: 0x58 }
  - { offset: 0x8977C, size: 0x8, addend: 0x0, symName: _windowRemoveExprFromSelect, symObjAddr: 0x94DD0, symBinAddr: 0xA7208, symSize: 0x68 }
  - { offset: 0x897DA, size: 0x8, addend: 0x0, symName: _sqlite3ResolveOrderGroupBy, symObjAddr: 0x94E38, symBinAddr: 0xA7270, symSize: 0x1A0 }
  - { offset: 0x89888, size: 0x8, addend: 0x0, symName: _resolveRemoveWindowsCb, symObjAddr: 0x94FD8, symBinAddr: 0xA7410, symSize: 0x4C }
  - { offset: 0x898EA, size: 0x8, addend: 0x0, symName: _selectOpName, symObjAddr: 0x95024, symBinAddr: 0xA745C, symSize: 0x88 }
  - { offset: 0x8992C, size: 0x8, addend: 0x0, symName: _resolveOrderByTermToExprList, symObjAddr: 0x950AC, symBinAddr: 0xA74E4, symSize: 0x15C }
  - { offset: 0x899EC, size: 0x8, addend: 0x0, symName: _identLength, symObjAddr: 0x95208, symBinAddr: 0xA7640, symSize: 0x74 }
  - { offset: 0x89A2E, size: 0x8, addend: 0x0, symName: _identPut, symObjAddr: 0x9527C, symBinAddr: 0xA76B4, symSize: 0x24C }
  - { offset: 0x89AC6, size: 0x8, addend: 0x0, symName: _sqlite3Dequote, symObjAddr: 0x954C8, symBinAddr: 0xA7900, symSize: 0x144 }
  - { offset: 0x89B1E, size: 0x8, addend: 0x0, symName: _sqlite3ExprIsConstantOrFunction, symObjAddr: 0x9560C, symBinAddr: 0xA7A44, symSize: 0x34 }
  - { offset: 0x89B60, size: 0x8, addend: 0x0, symName: _sqlite3DbSpanDup, symObjAddr: 0x95640, symBinAddr: 0xA7A78, symSize: 0xE0 }
  - { offset: 0x89BBC, size: 0x8, addend: 0x0, symName: _sqlite3RenameExprUnmap, symObjAddr: 0x95720, symBinAddr: 0xA7B58, symSize: 0x84 }
  - { offset: 0x89C1E, size: 0x8, addend: 0x0, symName: _renameUnmapExprCb, symObjAddr: 0x957A4, symBinAddr: 0xA7BDC, symSize: 0x40 }
  - { offset: 0x89C72, size: 0x8, addend: 0x0, symName: _renameUnmapSelectCb, symObjAddr: 0x957E4, symBinAddr: 0xA7C1C, symSize: 0x224 }
  - { offset: 0x89D18, size: 0x8, addend: 0x0, symName: _unmapColumnIdlistNames, symObjAddr: 0x95A08, symBinAddr: 0xA7E40, symSize: 0x84 }
  - { offset: 0x89D76, size: 0x8, addend: 0x0, symName: _renameWalkWith, symObjAddr: 0x95A8C, symBinAddr: 0xA7EC4, symSize: 0xE4 }
  - { offset: 0x89E18, size: 0x8, addend: 0x0, symName: _sqlite3RenameExprlistUnmap, symObjAddr: 0x95B70, symBinAddr: 0xA7FA8, symSize: 0xEC }
  - { offset: 0x89E88, size: 0x8, addend: 0x0, symName: _sqlite3DequoteExpr, symObjAddr: 0x95C5C, symBinAddr: 0xA8094, symSize: 0x58 }
  - { offset: 0x89EB0, size: 0x8, addend: 0x0, symName: _makeColumnPartOfPrimaryKey, symObjAddr: 0x95CB4, symBinAddr: 0xA80EC, symSize: 0x58 }
  - { offset: 0x89EEE, size: 0x8, addend: 0x0, symName: _sqlite3StringToId, symObjAddr: 0x95D0C, symBinAddr: 0xA8144, symSize: 0x78 }
  - { offset: 0x89F1A, size: 0x8, addend: 0x0, symName: _sqlite3HasExplicitNulls, symObjAddr: 0x95D84, symBinAddr: 0xA81BC, symSize: 0x130 }
  - { offset: 0x89F9C, size: 0x8, addend: 0x0, symName: _sqlite3SrcListLookup, symObjAddr: 0x95EB4, symBinAddr: 0xA82EC, symSize: 0xA0 }
  - { offset: 0x8A002, size: 0x8, addend: 0x0, symName: _sqlite3FixInit, symObjAddr: 0x95F54, symBinAddr: 0xA838C, symSize: 0x9C }
  - { offset: 0x8A088, size: 0x8, addend: 0x0, symName: _sqlite3FixSrcList, symObjAddr: 0x95FF0, symBinAddr: 0xA8428, symSize: 0x1FC }
  - { offset: 0x8A112, size: 0x8, addend: 0x0, symName: _sqlite3AllocateIndexObject, symObjAddr: 0x961EC, symBinAddr: 0xA8624, symSize: 0x17C }
  - { offset: 0x8A1BC, size: 0x8, addend: 0x0, symName: _sqlite3RefillIndex, symObjAddr: 0x96368, symBinAddr: 0xA87A0, symSize: 0x3FC }
  - { offset: 0x8A318, size: 0x8, addend: 0x0, symName: _sqlite3FixSelect, symObjAddr: 0x96764, symBinAddr: 0xA8B9C, symSize: 0x1C8 }
  - { offset: 0x8A37A, size: 0x8, addend: 0x0, symName: _sqlite3FixExpr, symObjAddr: 0x9692C, symBinAddr: 0xA8D64, symSize: 0x184 }
  - { offset: 0x8A3BC, size: 0x8, addend: 0x0, symName: _sqlite3FixExprList, symObjAddr: 0x96AB0, symBinAddr: 0xA8EE8, symSize: 0xB0 }
  - { offset: 0x8A422, size: 0x8, addend: 0x0, symName: _sqlite3KeyInfoRef, symObjAddr: 0x96B60, symBinAddr: 0xA8F98, symSize: 0x34 }
  - { offset: 0x8A452, size: 0x8, addend: 0x0, symName: _sqlite3MultiWrite, symObjAddr: 0x96B94, symBinAddr: 0xA8FCC, symSize: 0x50 }
  - { offset: 0x8A490, size: 0x8, addend: 0x0, symName: _sqlite3GenerateIndexKey, symObjAddr: 0x96BE4, symBinAddr: 0xA901C, symSize: 0x23C }
  - { offset: 0x8A586, size: 0x8, addend: 0x0, symName: _sqlite3ResolvePartIdxLabel, symObjAddr: 0x96E20, symBinAddr: 0xA9258, symSize: 0x40 }
  - { offset: 0x8A5C4, size: 0x8, addend: 0x0, symName: _sqlite3UniqueConstraint, symObjAddr: 0x96E60, symBinAddr: 0xA9298, symSize: 0x180 }
  - { offset: 0x8A67C, size: 0x8, addend: 0x0, symName: _sqlite3ExprIfFalseDup, symObjAddr: 0x96FE0, symBinAddr: 0xA9418, symSize: 0x7C }
  - { offset: 0x8A702, size: 0x8, addend: 0x0, symName: _sqlite3ExprCodeLoadIndexColumn, symObjAddr: 0x9705C, symBinAddr: 0xA9494, symSize: 0xBC }
  - { offset: 0x8A788, size: 0x8, addend: 0x0, symName: _sqlite3VdbeDeletePriorOpcode, symObjAddr: 0x97118, symBinAddr: 0xA9550, symSize: 0x8C }
  - { offset: 0x8A7CA, size: 0x8, addend: 0x0, symName: _sqlite3CodeVerifyNamedSchema, symObjAddr: 0x971A4, symBinAddr: 0xA95DC, symSize: 0xB8 }
  - { offset: 0x8A84C, size: 0x8, addend: 0x0, symName: _tableMayNotBeDropped, symObjAddr: 0x9725C, symBinAddr: 0xA9694, symSize: 0xDC }
  - { offset: 0x8A88E, size: 0x8, addend: 0x0, symName: _sqlite3ClearStatTables, symObjAddr: 0x97338, symBinAddr: 0xA9770, symSize: 0x11C }
  - { offset: 0x8A935, size: 0x8, addend: 0x0, symName: _sqlite3FkDropTable, symObjAddr: 0x97454, symBinAddr: 0xA988C, symSize: 0x1BC }
  - { offset: 0x8A9E9, size: 0x8, addend: 0x0, symName: _sqlite3CodeDropTable, symObjAddr: 0x97610, symBinAddr: 0xA9A48, symSize: 0x1D4 }
  - { offset: 0x8AA93, size: 0x8, addend: 0x0, symName: _sqlite3FkReferences, symObjAddr: 0x977E4, symBinAddr: 0xA9C1C, symSize: 0x34 }
  - { offset: 0x8AAC3, size: 0x8, addend: 0x0, symName: _sqlite3TriggerList, symObjAddr: 0x97818, symBinAddr: 0xA9C50, symSize: 0x158 }
  - { offset: 0x8AB69, size: 0x8, addend: 0x0, symName: _sqlite3DropTriggerPtr, symObjAddr: 0x97970, symBinAddr: 0xA9DA8, symSize: 0x188 }
  - { offset: 0x8AC33, size: 0x8, addend: 0x0, symName: _destroyTable, symObjAddr: 0x97AF8, symBinAddr: 0xA9F30, symSize: 0x124 }
  - { offset: 0x8AD07, size: 0x8, addend: 0x0, symName: _sqliteViewResetAll, symObjAddr: 0x97C1C, symBinAddr: 0xAA054, symSize: 0xEC }
  - { offset: 0x8AD77, size: 0x8, addend: 0x0, symName: _destroyRootPage, symObjAddr: 0x97D08, symBinAddr: 0xAA140, symSize: 0xDC }
  - { offset: 0x8ADEB, size: 0x8, addend: 0x0, symName: _generateColumnNames, symObjAddr: 0x97DE4, symBinAddr: 0xAA21C, symSize: 0x38C }
  - { offset: 0x8AF70, size: 0x8, addend: 0x0, symName: _sqlite3WindowRewrite, symObjAddr: 0x98170, symBinAddr: 0xAA5A8, symSize: 0x6B8 }
  - { offset: 0x8B15E, size: 0x8, addend: 0x0, symName: _unsetJoinExpr, symObjAddr: 0x98828, symBinAddr: 0xAAC60, symSize: 0x11C }
  - { offset: 0x8B1BC, size: 0x8, addend: 0x0, symName: _flattenSubquery, symObjAddr: 0x98944, symBinAddr: 0xAAD7C, symSize: 0xB0C }
  - { offset: 0x8B45C, size: 0x8, addend: 0x0, symName: _multiSelect, symObjAddr: 0x99450, symBinAddr: 0xAB888, symSize: 0xB94 }
  - { offset: 0x8B775, size: 0x8, addend: 0x0, symName: _sqlite3VdbeExplainPop, symObjAddr: 0x99FE4, symBinAddr: 0xAC41C, symSize: 0x2C }
  - { offset: 0x8B7A1, size: 0x8, addend: 0x0, symName: _propagateConstants, symObjAddr: 0x9A010, symBinAddr: 0xAC448, symSize: 0xE4 }
  - { offset: 0x8B819, size: 0x8, addend: 0x0, symName: _sqlite3SelectExprHeight, symObjAddr: 0x9A0F4, symBinAddr: 0xAC52C, symSize: 0x30 }
  - { offset: 0x8B85B, size: 0x8, addend: 0x0, symName: _pushDownWhereTerms, symObjAddr: 0x9A124, symBinAddr: 0xAC55C, symSize: 0x27C }
  - { offset: 0x8B929, size: 0x8, addend: 0x0, symName: _isSelfJoinView, symObjAddr: 0x9A3A0, symBinAddr: 0xAC7D8, symSize: 0x188 }
  - { offset: 0x8B99D, size: 0x8, addend: 0x0, symName: _sqlite3KeyInfoFromExprList, symObjAddr: 0x9A528, symBinAddr: 0xAC960, symSize: 0x11C }
  - { offset: 0x8BA5D, size: 0x8, addend: 0x0, symName: _computeLimitRegisters, symObjAddr: 0x9A644, symBinAddr: 0xACA7C, symSize: 0x1E4 }
  - { offset: 0x8BB07, size: 0x8, addend: 0x0, symName: _sqlite3WindowCodeInit, symObjAddr: 0x9A828, symBinAddr: 0xACC60, symSize: 0x470 }
  - { offset: 0x8BBFF, size: 0x8, addend: 0x0, symName: _sqlite3WhereBegin, symObjAddr: 0x9AC98, symBinAddr: 0xAD0D0, symSize: 0x103C }
  - { offset: 0x8C001, size: 0x8, addend: 0x0, symName: _sqlite3WhereOutputRowCount, symObjAddr: 0x9BCD4, symBinAddr: 0xAE10C, symSize: 0x18 }
  - { offset: 0x8C031, size: 0x8, addend: 0x0, symName: _sqlite3WhereIsDistinct, symObjAddr: 0x9BCEC, symBinAddr: 0xAE124, symSize: 0x18 }
  - { offset: 0x8C061, size: 0x8, addend: 0x0, symName: _sqlite3WhereIsOrdered, symObjAddr: 0x9BD04, symBinAddr: 0xAE13C, symSize: 0x18 }
  - { offset: 0x8C091, size: 0x8, addend: 0x0, symName: _sqlite3WhereOrderByLimitOptLabel, symObjAddr: 0x9BD1C, symBinAddr: 0xAE154, symSize: 0x64 }
  - { offset: 0x8C0D3, size: 0x8, addend: 0x0, symName: _sqlite3WindowCodeStep, symObjAddr: 0x9BD80, symBinAddr: 0xAE1B8, symSize: 0xFD4 }
  - { offset: 0x8C4DC, size: 0x8, addend: 0x0, symName: _selectInnerLoop, symObjAddr: 0x9CD54, symBinAddr: 0xAF18C, symSize: 0xCC8 }
  - { offset: 0x8C855, size: 0x8, addend: 0x0, symName: _sqlite3WhereContinueLabel, symObjAddr: 0x9DA58, symBinAddr: 0xAFE90, symSize: 0x18 }
  - { offset: 0x8C885, size: 0x8, addend: 0x0, symName: _sqlite3WhereBreakLabel, symObjAddr: 0x9DA70, symBinAddr: 0xAFEA8, symSize: 0x18 }
  - { offset: 0x8C8B5, size: 0x8, addend: 0x0, symName: _sqlite3WhereEnd, symObjAddr: 0x9DA88, symBinAddr: 0xAFEC0, symSize: 0x9F8 }
  - { offset: 0x8CB8C, size: 0x8, addend: 0x0, symName: _sqlite3ExprAnalyzeAggList, symObjAddr: 0x9E480, symBinAddr: 0xB08B8, symSize: 0x8C }
  - { offset: 0x8CBEE, size: 0x8, addend: 0x0, symName: _havingToWhere, symObjAddr: 0x9E50C, symBinAddr: 0xB0944, symSize: 0x60 }
  - { offset: 0x8CC3E, size: 0x8, addend: 0x0, symName: _sqlite3ExprAnalyzeAggregates, symObjAddr: 0x9E56C, symBinAddr: 0xB09A4, symSize: 0x60 }
  - { offset: 0x8CC8E, size: 0x8, addend: 0x0, symName: _minMaxQuery, symObjAddr: 0x9E5CC, symBinAddr: 0xB0A04, symSize: 0x14C }
  - { offset: 0x8CD3C, size: 0x8, addend: 0x0, symName: _explainTempTable, symObjAddr: 0x9E718, symBinAddr: 0xB0B50, symSize: 0x40 }
  - { offset: 0x8CD7A, size: 0x8, addend: 0x0, symName: _sqlite3WhereIsSorted, symObjAddr: 0x9E758, symBinAddr: 0xB0B90, symSize: 0x20 }
  - { offset: 0x8CDAA, size: 0x8, addend: 0x0, symName: _sqlite3ExprCodeMove, symObjAddr: 0x9E778, symBinAddr: 0xB0BB0, symSize: 0x44 }
  - { offset: 0x8CE0C, size: 0x8, addend: 0x0, symName: _updateAccumulator, symObjAddr: 0x9E7BC, symBinAddr: 0xB0BF4, symSize: 0x448 }
  - { offset: 0x8CF83, size: 0x8, addend: 0x0, symName: _finalizeAggFunctions, symObjAddr: 0x9EC04, symBinAddr: 0xB103C, symSize: 0xEC }
  - { offset: 0x8D017, size: 0x8, addend: 0x0, symName: _resetAccumulator, symObjAddr: 0x9ECF0, symBinAddr: 0xB1128, symSize: 0x198 }
  - { offset: 0x8D0DD, size: 0x8, addend: 0x0, symName: _isSimpleCount, symObjAddr: 0x9EE88, symBinAddr: 0xB12C0, symSize: 0x130 }
  - { offset: 0x8D143, size: 0x8, addend: 0x0, symName: _explainSimpleCount, symObjAddr: 0x9EFB8, symBinAddr: 0xB13F0, symSize: 0x130 }
  - { offset: 0x8D1B3, size: 0x8, addend: 0x0, symName: _generateSortTail, symObjAddr: 0x9F0E8, symBinAddr: 0xB1520, symSize: 0x69C }
  - { offset: 0x8D3E3, size: 0x8, addend: 0x0, symName: _generateColumnTypes, symObjAddr: 0x9F784, symBinAddr: 0xB1BBC, symSize: 0xBC }
  - { offset: 0x8D49B, size: 0x8, addend: 0x0, symName: _sqlite3AggInfoPersistWalkerInit, symObjAddr: 0x9F840, symBinAddr: 0xB1C78, symSize: 0x60 }
  - { offset: 0x8D4D9, size: 0x8, addend: 0x0, symName: _exprListAppendList, symObjAddr: 0x9F8A0, symBinAddr: 0xB1CD8, symSize: 0x1BC }
  - { offset: 0x8D5C3, size: 0x8, addend: 0x0, symName: _selectWindowRewriteEList, symObjAddr: 0x9FA5C, symBinAddr: 0xB1E94, symSize: 0xC0 }
  - { offset: 0x8D66E, size: 0x8, addend: 0x0, symName: _sqlite3WindowExtraAggFuncDepth, symObjAddr: 0x9FB1C, symBinAddr: 0xB1F54, symSize: 0x5C }
  - { offset: 0x8D6B0, size: 0x8, addend: 0x0, symName: _sqlite3WalkerDepthIncrease, symObjAddr: 0x9FB78, symBinAddr: 0xB1FB0, symSize: 0x28 }
  - { offset: 0x8D6F2, size: 0x8, addend: 0x0, symName: _sqlite3WalkerDepthDecrease, symObjAddr: 0x9FBA0, symBinAddr: 0xB1FD8, symSize: 0x24 }
  - { offset: 0x8D730, size: 0x8, addend: 0x0, symName: _agginfoPersistExprCb, symObjAddr: 0x9FBC4, symBinAddr: 0xB1FFC, symSize: 0x1A0 }
  - { offset: 0x8D7C8, size: 0x8, addend: 0x0, symName: _selectWindowRewriteExprCb, symObjAddr: 0x9FD64, symBinAddr: 0xB219C, symSize: 0x3B8 }
  - { offset: 0x8D900, size: 0x8, addend: 0x0, symName: _selectWindowRewriteSelectCb, symObjAddr: 0xA011C, symBinAddr: 0xB2554, symSize: 0x8C }
  - { offset: 0x8D966, size: 0x8, addend: 0x0, symName: _sqlite3SrcListEnlarge, symObjAddr: 0xA01A8, symBinAddr: 0xB25E0, symSize: 0x248 }
  - { offset: 0x8DA22, size: 0x8, addend: 0x0, symName: _substSelect, symObjAddr: 0xA03F0, symBinAddr: 0xB2828, symSize: 0x16C }
  - { offset: 0x8DAA8, size: 0x8, addend: 0x0, symName: _recomputeColumnsUsed, symObjAddr: 0xA055C, symBinAddr: 0xB2994, symSize: 0x80 }
  - { offset: 0x8DAF8, size: 0x8, addend: 0x0, symName: _substExprList, symObjAddr: 0xA05DC, symBinAddr: 0xB2A14, symSize: 0xA0 }
  - { offset: 0x8DB48, size: 0x8, addend: 0x0, symName: _substExpr, symObjAddr: 0xA067C, symBinAddr: 0xB2AB4, symSize: 0x3F8 }
  - { offset: 0x8DC2F, size: 0x8, addend: 0x0, symName: _recomputeColumnsUsedExpr, symObjAddr: 0xA0A74, symBinAddr: 0xB2EAC, symSize: 0xA8 }
  - { offset: 0x8DC83, size: 0x8, addend: 0x0, symName: _multiSelectValues, symObjAddr: 0xA0B1C, symBinAddr: 0xB2F54, symSize: 0x158 }
  - { offset: 0x8DD0D, size: 0x8, addend: 0x0, symName: _hasAnchor, symObjAddr: 0xA0C74, symBinAddr: 0xB30AC, symSize: 0x68 }
  - { offset: 0x8DD3D, size: 0x8, addend: 0x0, symName: _generateWithRecursiveQuery, symObjAddr: 0xA0CDC, symBinAddr: 0xB3114, symSize: 0x544 }
  - { offset: 0x8DF30, size: 0x8, addend: 0x0, symName: _multiSelectOrderBy, symObjAddr: 0xA1220, symBinAddr: 0xB3658, symSize: 0xBE4 }
  - { offset: 0x8E29E, size: 0x8, addend: 0x0, symName: _multiSelectCollSeq, symObjAddr: 0xA1F18, symBinAddr: 0xB4350, symSize: 0xB0 }
  - { offset: 0x8E304, size: 0x8, addend: 0x0, symName: _multiSelectOrderByKeyInfo, symObjAddr: 0xA1FC8, symBinAddr: 0xB4400, symSize: 0x1A4 }
  - { offset: 0x8E404, size: 0x8, addend: 0x0, symName: _codeOffset, symObjAddr: 0xA216C, symBinAddr: 0xB45A4, symSize: 0x50 }
  - { offset: 0x8E454, size: 0x8, addend: 0x0, symName: _generateOutputSubroutine, symObjAddr: 0xA21BC, symBinAddr: 0xB45F4, symSize: 0x3EC }
  - { offset: 0x8E5BC, size: 0x8, addend: 0x0, symName: _sqlite3VdbeExplainParent, symObjAddr: 0xA25A8, symBinAddr: 0xB49E0, symSize: 0x60 }
  - { offset: 0x8E5FE, size: 0x8, addend: 0x0, symName: _findConstInWhere, symObjAddr: 0xA2608, symBinAddr: 0xB4A40, symSize: 0x124 }
  - { offset: 0x8E660, size: 0x8, addend: 0x0, symName: _propagateConstantExprRewrite, symObjAddr: 0xA272C, symBinAddr: 0xB4B64, symSize: 0x180 }
  - { offset: 0x8E6E6, size: 0x8, addend: 0x0, symName: _constInsert, symObjAddr: 0xA28AC, symBinAddr: 0xB4CE4, symSize: 0x1A0 }
  - { offset: 0x8E77A, size: 0x8, addend: 0x0, symName: _sqlite3IsBinary, symObjAddr: 0xA2A4C, symBinAddr: 0xB4E84, symSize: 0x4C }
  - { offset: 0x8E7AA, size: 0x8, addend: 0x0, symName: _binCollFunc, symObjAddr: 0xA2A98, symBinAddr: 0xB4ED0, symSize: 0x98 }
  - { offset: 0x8E846, size: 0x8, addend: 0x0, symName: _heightOfSelect, symObjAddr: 0xA2B30, symBinAddr: 0xB4F68, symSize: 0xAC }
  - { offset: 0x8E896, size: 0x8, addend: 0x0, symName: _heightOfExpr, symObjAddr: 0xA2BDC, symBinAddr: 0xB5014, symSize: 0x54 }
  - { offset: 0x8E8D4, size: 0x8, addend: 0x0, symName: _heightOfExprList, symObjAddr: 0xA2C30, symBinAddr: 0xB5068, symSize: 0x84 }
  - { offset: 0x8E932, size: 0x8, addend: 0x0, symName: _sqlite3ExprIsTableConstant, symObjAddr: 0xA2CB4, symBinAddr: 0xB50EC, symSize: 0x30 }
  - { offset: 0x8E974, size: 0x8, addend: 0x0, symName: _sqlite3ExprNNCollSeq, symObjAddr: 0xA2CE4, symBinAddr: 0xB511C, symSize: 0x54 }
  - { offset: 0x8E9C8, size: 0x8, addend: 0x0, symName: _whereLoopInit, symObjAddr: 0xA2D38, symBinAddr: 0xB5170, symSize: 0x3C }
  - { offset: 0x8E9F4, size: 0x8, addend: 0x0, symName: _sqlite3WhereClauseInit, symObjAddr: 0xA2D74, symBinAddr: 0xB51AC, symSize: 0x54 }
  - { offset: 0x8EA32, size: 0x8, addend: 0x0, symName: _sqlite3WhereSplit, symObjAddr: 0xA2DC8, symBinAddr: 0xB5200, symSize: 0xA4 }
  - { offset: 0x8EA94, size: 0x8, addend: 0x0, symName: _createMask, symObjAddr: 0xA2E6C, symBinAddr: 0xB52A4, symSize: 0x38 }
  - { offset: 0x8EAD2, size: 0x8, addend: 0x0, symName: _sqlite3WhereTabFuncArgs, symObjAddr: 0xA2EA4, symBinAddr: 0xB52DC, symSize: 0x230 }
  - { offset: 0x8EBAE, size: 0x8, addend: 0x0, symName: _sqlite3WhereExprAnalyze, symObjAddr: 0xA30D4, symBinAddr: 0xB550C, symSize: 0x64 }
  - { offset: 0x8EBFE, size: 0x8, addend: 0x0, symName: _exprIsDeterministic, symObjAddr: 0xA3138, symBinAddr: 0xB5570, symSize: 0x60 }
  - { offset: 0x8EC40, size: 0x8, addend: 0x0, symName: _isDistinctRedundant, symObjAddr: 0xA3198, symBinAddr: 0xB55D0, symSize: 0x214 }
  - { offset: 0x8ED0E, size: 0x8, addend: 0x0, symName: _whereShortCut, symObjAddr: 0xA33AC, symBinAddr: 0xB57E4, symSize: 0x378 }
  - { offset: 0x8EE00, size: 0x8, addend: 0x0, symName: _whereLoopAddAll, symObjAddr: 0xA3724, symBinAddr: 0xB5B5C, symSize: 0x2A8 }
  - { offset: 0x8EF24, size: 0x8, addend: 0x0, symName: _wherePathSolver, symObjAddr: 0xA39CC, symBinAddr: 0xB5E04, symSize: 0xDCC }
  - { offset: 0x8F25C, size: 0x8, addend: 0x0, symName: _sqlite3WhereExprListUsage, symObjAddr: 0xA4798, symBinAddr: 0xB6BD0, symSize: 0x98 }
  - { offset: 0x8F2C2, size: 0x8, addend: 0x0, symName: _constructAutomaticIndex, symObjAddr: 0xA4830, symBinAddr: 0xB6C68, symSize: 0x9D0 }
  - { offset: 0x8F5C8, size: 0x8, addend: 0x0, symName: _sqlite3WhereExplainOneScan, symObjAddr: 0xA5200, symBinAddr: 0xB7638, symSize: 0x4E0 }
  - { offset: 0x8F753, size: 0x8, addend: 0x0, symName: _whereInfoFree, symObjAddr: 0xA7C88, symBinAddr: 0xBA0C0, symSize: 0x100 }
  - { offset: 0x8F7E3, size: 0x8, addend: 0x0, symName: _whereClauseInsert, symObjAddr: 0xA7D88, symBinAddr: 0xBA1C0, symSize: 0x214 }
  - { offset: 0x8F88D, size: 0x8, addend: 0x0, symName: _sqlite3WhereExprUsage, symObjAddr: 0xA8E4C, symBinAddr: 0xBB284, symSize: 0x50 }
  - { offset: 0x8F8CF, size: 0x8, addend: 0x0, symName: _exprSelectUsage, symObjAddr: 0xA8E9C, symBinAddr: 0xBB2D4, symSize: 0x1E0 }
  - { offset: 0x8F963, size: 0x8, addend: 0x0, symName: _sqlite3WhereExprUsageNN, symObjAddr: 0xA907C, symBinAddr: 0xBB4B4, symSize: 0x258 }
  - { offset: 0x8F9B7, size: 0x8, addend: 0x0, symName: _sqlite3WhereGetMask, symObjAddr: 0xA92D4, symBinAddr: 0xBB70C, symSize: 0x8C }
  - { offset: 0x8FA0B, size: 0x8, addend: 0x0, symName: _allowedOp, symObjAddr: 0xA9360, symBinAddr: 0xBB798, symSize: 0x84 }
  - { offset: 0x8FA3B, size: 0x8, addend: 0x0, symName: _exprMightBeIndexed, symObjAddr: 0xA93E4, symBinAddr: 0xBB81C, symSize: 0x108 }
  - { offset: 0x8FAB3, size: 0x8, addend: 0x0, symName: _operatorMask, symObjAddr: 0xA94EC, symBinAddr: 0xBB924, symSize: 0x88 }
  - { offset: 0x8FAF5, size: 0x8, addend: 0x0, symName: _markTermAsChild, symObjAddr: 0xA9574, symBinAddr: 0xBB9AC, symSize: 0x88 }
  - { offset: 0x8FB45, size: 0x8, addend: 0x0, symName: _termIsEquivalence, symObjAddr: 0xA95FC, symBinAddr: 0xBBA34, symSize: 0x130 }
  - { offset: 0x8FBBD, size: 0x8, addend: 0x0, symName: _exprCommute, symObjAddr: 0xA972C, symBinAddr: 0xBBB64, symSize: 0x10C }
  - { offset: 0x8FC1F, size: 0x8, addend: 0x0, symName: _transferJoinMarkings, symObjAddr: 0xA9838, symBinAddr: 0xBBC70, symSize: 0x50 }
  - { offset: 0x8FC5D, size: 0x8, addend: 0x0, symName: _exprAnalyzeOrTerm, symObjAddr: 0xA9888, symBinAddr: 0xBBCC0, symSize: 0x9C4 }
  - { offset: 0x8FFC6, size: 0x8, addend: 0x0, symName: _isLikeOrGlob, symObjAddr: 0xAA24C, symBinAddr: 0xBC684, symSize: 0x600 }
  - { offset: 0x9021B, size: 0x8, addend: 0x0, symName: _sqlite3ExprForVectorField, symObjAddr: 0xAAC3C, symBinAddr: 0xBD074, symSize: 0xE4 }
  - { offset: 0x90281, size: 0x8, addend: 0x0, symName: _exprMightBeIndexed2, symObjAddr: 0xAAD20, symBinAddr: 0xBD158, symSize: 0x18C }
  - { offset: 0x9031D, size: 0x8, addend: 0x0, symName: _sqlite3ExprCompareSkip, symObjAddr: 0xAAEAC, symBinAddr: 0xBD2E4, symSize: 0x4C }
  - { offset: 0x90371, size: 0x8, addend: 0x0, symName: _sqlite3ExprCollSeqMatch, symObjAddr: 0xAAEF8, symBinAddr: 0xBD330, symSize: 0x60 }
  - { offset: 0x903E9, size: 0x8, addend: 0x0, symName: _whereNthSubterm, symObjAddr: 0xAAF58, symBinAddr: 0xBD390, symSize: 0xA4 }
  - { offset: 0x9042B, size: 0x8, addend: 0x0, symName: _whereCombineDisjuncts, symObjAddr: 0xAAFFC, symBinAddr: 0xBD434, symSize: 0x200 }
  - { offset: 0x904E7, size: 0x8, addend: 0x0, symName: _sqlite3IsLikeFunction, symObjAddr: 0xAB1FC, symBinAddr: 0xBD634, symSize: 0x1C0 }
  - { offset: 0x905A3, size: 0x8, addend: 0x0, symName: _exprNodeIsDeterministic, symObjAddr: 0xAB3BC, symBinAddr: 0xBD7F4, symSize: 0x60 }
  - { offset: 0x905E5, size: 0x8, addend: 0x0, symName: _sqlite3WhereFindTerm, symObjAddr: 0xAB41C, symBinAddr: 0xBD854, symSize: 0xFC }
  - { offset: 0x906A5, size: 0x8, addend: 0x0, symName: _findIndexCol, symObjAddr: 0xAB518, symBinAddr: 0xBD950, symSize: 0x14C }
  - { offset: 0x90781, size: 0x8, addend: 0x0, symName: _indexColumnNotNull, symObjAddr: 0xAB664, symBinAddr: 0xBDA9C, symSize: 0x7C }
  - { offset: 0x907D5, size: 0x8, addend: 0x0, symName: _whereScanInit, symObjAddr: 0xAB6E0, symBinAddr: 0xBDB18, symSize: 0x1DC }
  - { offset: 0x9087F, size: 0x8, addend: 0x0, symName: _whereScanNext, symObjAddr: 0xAB8BC, symBinAddr: 0xBDCF4, symSize: 0x458 }
  - { offset: 0x9096D, size: 0x8, addend: 0x0, symName: _whereScanInitIndexExpr, symObjAddr: 0xABD14, symBinAddr: 0xBE14C, symSize: 0x38 }
  - { offset: 0x9099D, size: 0x8, addend: 0x0, symName: _whereRightSubexprIsColumn, symObjAddr: 0xABD4C, symBinAddr: 0xBE184, symSize: 0x64 }
  - { offset: 0x909CD, size: 0x8, addend: 0x0, symName: _sqlite3IndexAffinityOk, symObjAddr: 0xABDB0, symBinAddr: 0xBE1E8, symSize: 0x84 }
  - { offset: 0x90A21, size: 0x8, addend: 0x0, symName: _comparisonAffinity, symObjAddr: 0xABE34, symBinAddr: 0xBE26C, symSize: 0xA8 }
  - { offset: 0x90A63, size: 0x8, addend: 0x0, symName: _whereLoopAddVirtual, symObjAddr: 0xABEDC, symBinAddr: 0xBE314, symSize: 0x438 }
  - { offset: 0x90C2A, size: 0x8, addend: 0x0, symName: _whereLoopAddBtree, symObjAddr: 0xAC314, symBinAddr: 0xBE74C, symSize: 0x920 }
  - { offset: 0x90E96, size: 0x8, addend: 0x0, symName: _whereLoopAddOr, symObjAddr: 0xACC34, symBinAddr: 0xBF06C, symSize: 0x500 }
  - { offset: 0x9106B, size: 0x8, addend: 0x0, symName: _whereLoopClear, symObjAddr: 0xAD134, symBinAddr: 0xBF56C, symSize: 0x64 }
  - { offset: 0x910A9, size: 0x8, addend: 0x0, symName: _allocateIndexInfo, symObjAddr: 0xAD198, symBinAddr: 0xBF5D0, symSize: 0x648 }
  - { offset: 0x9127D, size: 0x8, addend: 0x0, symName: _whereLoopResize, symObjAddr: 0xAD7E0, symBinAddr: 0xBFC18, symSize: 0x100 }
  - { offset: 0x912E3, size: 0x8, addend: 0x0, symName: _whereLoopAddVirtualOne, symObjAddr: 0xAD8E0, symBinAddr: 0xBFD18, symSize: 0x64C }
  - { offset: 0x914AE, size: 0x8, addend: 0x0, symName: _vtabBestIndex, symObjAddr: 0xADF2C, symBinAddr: 0xC0364, symSize: 0x118 }
  - { offset: 0x91526, size: 0x8, addend: 0x0, symName: _sqlite3LogEstFromDouble, symObjAddr: 0xAE044, symBinAddr: 0xC047C, symSize: 0x98 }
  - { offset: 0x91572, size: 0x8, addend: 0x0, symName: _whereLoopInsert, symObjAddr: 0xAE0DC, symBinAddr: 0xC0514, symSize: 0x270 }
  - { offset: 0x91660, size: 0x8, addend: 0x0, symName: _whereLoopAdjustCost, symObjAddr: 0xAE34C, symBinAddr: 0xC0784, symSize: 0x108 }
  - { offset: 0x9169E, size: 0x8, addend: 0x0, symName: _whereOrInsert, symObjAddr: 0xAE454, symBinAddr: 0xC088C, symSize: 0x230 }
  - { offset: 0x9173B, size: 0x8, addend: 0x0, symName: _whereLoopFindLesser, symObjAddr: 0xAE684, symBinAddr: 0xC0ABC, symSize: 0x1F0 }
  - { offset: 0x9178F, size: 0x8, addend: 0x0, symName: _whereLoopDelete, symObjAddr: 0xAE874, symBinAddr: 0xC0CAC, symSize: 0x38 }
  - { offset: 0x917CD, size: 0x8, addend: 0x0, symName: _whereLoopXfer, symObjAddr: 0xAE8AC, symBinAddr: 0xC0CE4, symSize: 0xF4 }
  - { offset: 0x91821, size: 0x8, addend: 0x0, symName: _whereLoopCheaperProperSubset, symObjAddr: 0xAE9A0, symBinAddr: 0xC0DD8, symSize: 0x1DC }
  - { offset: 0x91887, size: 0x8, addend: 0x0, symName: _whereLoopClearUnion, symObjAddr: 0xAEB7C, symBinAddr: 0xC0FB4, symSize: 0xD0 }
  - { offset: 0x918C5, size: 0x8, addend: 0x0, symName: _estLog, symObjAddr: 0xAEC4C, symBinAddr: 0xC1084, symSize: 0x54 }
  - { offset: 0x918F5, size: 0x8, addend: 0x0, symName: _termCanDriveIndex, symObjAddr: 0xAECA0, symBinAddr: 0xC10D8, symSize: 0x12C }
  - { offset: 0x9195B, size: 0x8, addend: 0x0, symName: _whereUsablePartialIndex, symObjAddr: 0xAEDCC, symBinAddr: 0xC1204, symSize: 0x174 }
  - { offset: 0x91A17, size: 0x8, addend: 0x0, symName: _indexMightHelpWithOrderBy, symObjAddr: 0xAEF40, symBinAddr: 0xC1378, symSize: 0x228 }
  - { offset: 0x91AD3, size: 0x8, addend: 0x0, symName: _whereLoopOutputAdjust, symObjAddr: 0xAF168, symBinAddr: 0xC15A0, symSize: 0x2E4 }
  - { offset: 0x91BC1, size: 0x8, addend: 0x0, symName: _sqlite3ExprCoveredByIndex, symObjAddr: 0xAF44C, symBinAddr: 0xC1884, symSize: 0x74 }
  - { offset: 0x91C39, size: 0x8, addend: 0x0, symName: _whereLoopAddBtreeIndex, symObjAddr: 0xAF4C0, symBinAddr: 0xC18F8, symSize: 0xDB0 }
  - { offset: 0x91F58, size: 0x8, addend: 0x0, symName: _exprIdxCover, symObjAddr: 0xB0270, symBinAddr: 0xC26A8, symSize: 0x98 }
  - { offset: 0x91F9A, size: 0x8, addend: 0x0, symName: _whereRangeVectorLen, symObjAddr: 0xB0308, symBinAddr: 0xC2740, symSize: 0x290 }
  - { offset: 0x9209E, size: 0x8, addend: 0x0, symName: _whereRangeScanEst, symObjAddr: 0xB0598, symBinAddr: 0xC29D0, symSize: 0x120 }
  - { offset: 0x9214C, size: 0x8, addend: 0x0, symName: _whereRangeAdjust, symObjAddr: 0xB06B8, symBinAddr: 0xC2AF0, symSize: 0x88 }
  - { offset: 0x921A0, size: 0x8, addend: 0x0, symName: _whereOrMove, symObjAddr: 0xB0740, symBinAddr: 0xC2B78, symSize: 0x54 }
  - { offset: 0x921DE, size: 0x8, addend: 0x0, symName: _wherePathSatisfiesOrderBy, symObjAddr: 0xB0794, symBinAddr: 0xC2BCC, symSize: 0xCF0 }
  - { offset: 0x92571, size: 0x8, addend: 0x0, symName: _whereSortingCost, symObjAddr: 0xB1484, symBinAddr: 0xC38BC, symSize: 0xF4 }
  - { offset: 0x925FB, size: 0x8, addend: 0x0, symName: _translateColumnToCopy, symObjAddr: 0xB1578, symBinAddr: 0xC39B0, symSize: 0x178 }
  - { offset: 0x926A5, size: 0x8, addend: 0x0, symName: _explainIndexRange, symObjAddr: 0xB16F0, symBinAddr: 0xC3B28, symSize: 0x1AC }
  - { offset: 0x9275D, size: 0x8, addend: 0x0, symName: _explainIndexColumnName, symObjAddr: 0xB189C, symBinAddr: 0xC3CD4, symSize: 0x8C }
  - { offset: 0x9279F, size: 0x8, addend: 0x0, symName: _explainAppendTerm, symObjAddr: 0xB1928, symBinAddr: 0xC3D60, symSize: 0x1E8 }
  - { offset: 0x92837, size: 0x8, addend: 0x0, symName: _codeEqualityTerm, symObjAddr: 0xB1B10, symBinAddr: 0xC3F48, symSize: 0x690 }
  - { offset: 0x92A06, size: 0x8, addend: 0x0, symName: _codeExprOrVector, symObjAddr: 0xB21A0, symBinAddr: 0xC45D8, symSize: 0x114 }
  - { offset: 0x92ACC, size: 0x8, addend: 0x0, symName: _disableTerm, symObjAddr: 0xB22B4, symBinAddr: 0xC46EC, symSize: 0x140 }
  - { offset: 0x92B1C, size: 0x8, addend: 0x0, symName: _codeAllEqualityTerms, symObjAddr: 0xB23F4, symBinAddr: 0xC482C, symSize: 0x3D0 }
  - { offset: 0x92CA9, size: 0x8, addend: 0x0, symName: _whereLikeOptimizationStringFixup, symObjAddr: 0xB27C4, symBinAddr: 0xC4BFC, symSize: 0x74 }
  - { offset: 0x92D19, size: 0x8, addend: 0x0, symName: _updateRangeAffinityStr, symObjAddr: 0xB2838, symBinAddr: 0xC4C70, symSize: 0xB8 }
  - { offset: 0x92D9B, size: 0x8, addend: 0x0, symName: _codeApplyAffinity, symObjAddr: 0xB28F0, symBinAddr: 0xC4D28, symSize: 0x138 }
  - { offset: 0x92E0F, size: 0x8, addend: 0x0, symName: _codeDeferredSeek, symObjAddr: 0xB2A28, symBinAddr: 0xC4E60, symSize: 0x1B0 }
  - { offset: 0x92F0B, size: 0x8, addend: 0x0, symName: _whereIndexExprTrans, symObjAddr: 0xB2BD8, symBinAddr: 0xC5010, symSize: 0x220 }
  - { offset: 0x92FE8, size: 0x8, addend: 0x0, symName: _whereApplyPartialIndexConstraints, symObjAddr: 0xB2DF8, symBinAddr: 0xC5230, symSize: 0xFC }
  - { offset: 0x9307C, size: 0x8, addend: 0x0, symName: _sqlite3WhereUsesDeferredSeek, symObjAddr: 0xB2EF4, symBinAddr: 0xC532C, symSize: 0x1C }
  - { offset: 0x930AC, size: 0x8, addend: 0x0, symName: _removeUnindexableInClauseTerms, symObjAddr: 0xB2F10, symBinAddr: 0xC5348, symSize: 0x2BC }
  - { offset: 0x93212, size: 0x8, addend: 0x0, symName: _sqlite3IndexAffinityStr, symObjAddr: 0xB31CC, symBinAddr: 0xC5604, symSize: 0x1B8 }
  - { offset: 0x932B8, size: 0x8, addend: 0x0, symName: _sqlite3ExprNeedsNoAffinityChange, symObjAddr: 0xB3384, symBinAddr: 0xC57BC, symSize: 0x1E8 }
  - { offset: 0x9331E, size: 0x8, addend: 0x0, symName: _whereIndexExprTransNode, symObjAddr: 0xB356C, symBinAddr: 0xC59A4, symSize: 0xD0 }
  - { offset: 0x93372, size: 0x8, addend: 0x0, symName: _whereIndexExprTransColumn, symObjAddr: 0xB363C, symBinAddr: 0xC5A74, symSize: 0xD4 }
  - { offset: 0x933D4, size: 0x8, addend: 0x0, symName: _preserveExpr, symObjAddr: 0xB3710, symBinAddr: 0xC5B48, symSize: 0x90 }
  - { offset: 0x93424, size: 0x8, addend: 0x0, symName: _sqlite3WhereClauseClear, symObjAddr: 0xB37A0, symBinAddr: 0xC5BD8, symSize: 0x11C }
  - { offset: 0x93486, size: 0x8, addend: 0x0, symName: _whereOrInfoDelete, symObjAddr: 0xB38BC, symBinAddr: 0xC5CF4, symSize: 0x34 }
  - { offset: 0x934C4, size: 0x8, addend: 0x0, symName: _whereAndInfoDelete, symObjAddr: 0xB38F0, symBinAddr: 0xC5D28, symSize: 0x34 }
  - { offset: 0x93502, size: 0x8, addend: 0x0, symName: _windowExprGtZero, symObjAddr: 0xB3924, symBinAddr: 0xC5D5C, symSize: 0x88 }
  - { offset: 0x9357A, size: 0x8, addend: 0x0, symName: _windowCacheFrame, symObjAddr: 0xB39AC, symBinAddr: 0xC5DE4, symSize: 0xEC }
  - { offset: 0x935DC, size: 0x8, addend: 0x0, symName: _windowInitAccum, symObjAddr: 0xB3A98, symBinAddr: 0xC5ED0, symSize: 0x1CC }
  - { offset: 0x93686, size: 0x8, addend: 0x0, symName: _windowAggFinal, symObjAddr: 0xB3E00, symBinAddr: 0xC6238, symSize: 0x1EC }
  - { offset: 0x9372C, size: 0x8, addend: 0x0, symName: _windowReturnOneRow, symObjAddr: 0xB3FEC, symBinAddr: 0xC6424, symSize: 0x420 }
  - { offset: 0x938CC, size: 0x8, addend: 0x0, symName: _windowIfNewPeer, symObjAddr: 0xB440C, symBinAddr: 0xC6844, symSize: 0x10C }
  - { offset: 0x93984, size: 0x8, addend: 0x0, symName: _windowCodeOp, symObjAddr: 0xB4518, symBinAddr: 0xC6950, symSize: 0x598 }
  - { offset: 0x93B09, size: 0x8, addend: 0x0, symName: _windowCodeRangeTest, symObjAddr: 0xB4AB0, symBinAddr: 0xC6EE8, symSize: 0x2EC }
  - { offset: 0x93C3F, size: 0x8, addend: 0x0, symName: _windowArgCount, symObjAddr: 0xB4D9C, symBinAddr: 0xC71D4, symSize: 0x4C }
  - { offset: 0x93C81, size: 0x8, addend: 0x0, symName: _windowFullScan, symObjAddr: 0xB4DE8, symBinAddr: 0xC7220, symSize: 0x3C8 }
  - { offset: 0x93DDB, size: 0x8, addend: 0x0, symName: _windowReadPeerValues, symObjAddr: 0xB51B0, symBinAddr: 0xC75E8, symSize: 0x108 }
  - { offset: 0x93EA5, size: 0x8, addend: 0x0, symName: _windowAggStep, symObjAddr: 0xB52B8, symBinAddr: 0xC76F0, symSize: 0x54C }
  - { offset: 0x9406D, size: 0x8, addend: 0x0, symName: _noopStepFunc, symObjAddr: 0xB5804, symBinAddr: 0xC7C3C, symSize: 0x18 }
  - { offset: 0x940BD, size: 0x8, addend: 0x0, symName: _innerLoopLoadRow, symObjAddr: 0xB581C, symBinAddr: 0xC7C54, symSize: 0x48 }
  - { offset: 0x9410D, size: 0x8, addend: 0x0, symName: _codeDistinct, symObjAddr: 0xB5864, symBinAddr: 0xC7C9C, symSize: 0xAC }
  - { offset: 0x941A5, size: 0x8, addend: 0x0, symName: _pushOntoSorter, symObjAddr: 0xB5910, symBinAddr: 0xC7D48, symSize: 0x5C8 }
  - { offset: 0x94395, size: 0x8, addend: 0x0, symName: _makeSorterRecord, symObjAddr: 0xB5ED8, symBinAddr: 0xC8310, symSize: 0xAC }
  - { offset: 0x94443, size: 0x8, addend: 0x0, symName: _sqlite3StorageColumnToTable, symObjAddr: 0xB5F84, symBinAddr: 0xC83BC, symSize: 0x88 }
  - { offset: 0x944A5, size: 0x8, addend: 0x0, symName: _havingToWhereExprCb, symObjAddr: 0xB600C, symBinAddr: 0xC8444, symSize: 0x128 }
  - { offset: 0x94579, size: 0x8, addend: 0x0, symName: _sqlite3ExprIsConstantOrGroupBy, symObjAddr: 0xB6134, symBinAddr: 0xC856C, symSize: 0x5C }
  - { offset: 0x945DF, size: 0x8, addend: 0x0, symName: _exprNodeIsConstantOrGroupBy, symObjAddr: 0xB6190, symBinAddr: 0xC85C8, symSize: 0x10C }
  - { offset: 0x94685, size: 0x8, addend: 0x0, symName: _analyzeAggregate, symObjAddr: 0xB629C, symBinAddr: 0xC86D4, symSize: 0x578 }
  - { offset: 0x9483C, size: 0x8, addend: 0x0, symName: _addAggInfoColumn, symObjAddr: 0xB6814, symBinAddr: 0xC8C4C, symSize: 0x4C }
  - { offset: 0x94890, size: 0x8, addend: 0x0, symName: _addAggInfoFunc, symObjAddr: 0xB6860, symBinAddr: 0xC8C98, symSize: 0x4C }
  - { offset: 0x948E4, size: 0x8, addend: 0x0, symName: _sqlite3ArrayAllocate, symObjAddr: 0xB68AC, symBinAddr: 0xC8CE4, symSize: 0x128 }
  - { offset: 0x949B2, size: 0x8, addend: 0x0, symName: _sqlite3VdbeJumpHereOrPopInst, symObjAddr: 0xB69D4, symBinAddr: 0xC8E0C, symSize: 0x68 }
  - { offset: 0x949F0, size: 0x8, addend: 0x0, symName: _sqlite3TriggersExist, symObjAddr: 0xB6A3C, symBinAddr: 0xC8E74, symSize: 0x114 }
  - { offset: 0x94A9E, size: 0x8, addend: 0x0, symName: _sqlite3FkRequired, symObjAddr: 0xB6B50, symBinAddr: 0xC8F88, symSize: 0x198 }
  - { offset: 0x94B36, size: 0x8, addend: 0x0, symName: _sqlite3IsReadOnly, symObjAddr: 0xB6CE8, symBinAddr: 0xC9120, symSize: 0xB8 }
  - { offset: 0x94B8A, size: 0x8, addend: 0x0, symName: _sqlite3AuthContextPush, symObjAddr: 0xB6DA0, symBinAddr: 0xC91D8, symSize: 0x40 }
  - { offset: 0x94BDA, size: 0x8, addend: 0x0, symName: _sqlite3VdbeCountChanges, symObjAddr: 0xB6DE0, symBinAddr: 0xC9218, symSize: 0x24 }
  - { offset: 0x94C06, size: 0x8, addend: 0x0, symName: _sqlite3MaterializeView, symObjAddr: 0xB6E04, symBinAddr: 0xC923C, symSize: 0x12C }
  - { offset: 0x94CE6, size: 0x8, addend: 0x0, symName: _sqlite3WhereOkOnePass, symObjAddr: 0xB6F30, symBinAddr: 0xC9368, symSize: 0x40 }
  - { offset: 0x94D28, size: 0x8, addend: 0x0, symName: _sqlite3OpenTableAndIndices, symObjAddr: 0xB6F70, symBinAddr: 0xC93A8, symSize: 0x280 }
  - { offset: 0x94E50, size: 0x8, addend: 0x0, symName: _sqlite3VtabMakeWritable, symObjAddr: 0xB71F0, symBinAddr: 0xC9628, symSize: 0x12C }
  - { offset: 0x94ED6, size: 0x8, addend: 0x0, symName: _sqlite3GenerateRowDelete, symObjAddr: 0xB731C, symBinAddr: 0xC9754, symSize: 0x414 }
  - { offset: 0x95082, size: 0x8, addend: 0x0, symName: _sqlite3AutoincrementEnd, symObjAddr: 0xB7730, symBinAddr: 0xC9B68, symSize: 0x38 }
  - { offset: 0x950AE, size: 0x8, addend: 0x0, symName: _sqlite3AuthContextPop, symObjAddr: 0xB7768, symBinAddr: 0xC9BA0, symSize: 0x40 }
  - { offset: 0x950DA, size: 0x8, addend: 0x0, symName: _checkColumnOverlap, symObjAddr: 0xB77A8, symBinAddr: 0xC9BE0, symSize: 0xBC }
  - { offset: 0x9512E, size: 0x8, addend: 0x0, symName: _fkChildIsModified, symObjAddr: 0xB7864, symBinAddr: 0xC9C9C, symSize: 0xC4 }
  - { offset: 0x951C6, size: 0x8, addend: 0x0, symName: _fkParentIsModified, symObjAddr: 0xB7928, symBinAddr: 0xC9D60, symSize: 0x158 }
  - { offset: 0x95290, size: 0x8, addend: 0x0, symName: _tabIsReadOnly, symObjAddr: 0xB7A80, symBinAddr: 0xC9EB8, symSize: 0xEC }
  - { offset: 0x952E4, size: 0x8, addend: 0x0, symName: _sqlite3TriggerColmask, symObjAddr: 0xB7B6C, symBinAddr: 0xC9FA4, symSize: 0x110 }
  - { offset: 0x953D6, size: 0x8, addend: 0x0, symName: _sqlite3FkOldmask, symObjAddr: 0xB7C7C, symBinAddr: 0xCA0B4, symSize: 0x1EC }
  - { offset: 0x9547C, size: 0x8, addend: 0x0, symName: _sqlite3CodeRowTrigger, symObjAddr: 0xB7E68, symBinAddr: 0xCA2A0, symSize: 0xD4 }
  - { offset: 0x9554A, size: 0x8, addend: 0x0, symName: _sqlite3FkCheck, symObjAddr: 0xB7F3C, symBinAddr: 0xCA374, symSize: 0x7A0 }
  - { offset: 0x957DF, size: 0x8, addend: 0x0, symName: _sqlite3GenerateRowIndexDelete, symObjAddr: 0xB86DC, symBinAddr: 0xCAB14, symSize: 0x1CC }
  - { offset: 0x958E3, size: 0x8, addend: 0x0, symName: _sqlite3FkActions, symObjAddr: 0xB88A8, symBinAddr: 0xCACE0, symSize: 0xE8 }
  - { offset: 0x959A9, size: 0x8, addend: 0x0, symName: _getRowTrigger, symObjAddr: 0xB8990, symBinAddr: 0xCADC8, symSize: 0x114 }
  - { offset: 0x95A33, size: 0x8, addend: 0x0, symName: _codeRowTrigger, symObjAddr: 0xB8AA4, symBinAddr: 0xCAEDC, symSize: 0x400 }
  - { offset: 0x95B3D, size: 0x8, addend: 0x0, symName: _sqlite3VdbeLinkSubProgram, symObjAddr: 0xB8EA4, symBinAddr: 0xCB2DC, symSize: 0x30 }
  - { offset: 0x95B7B, size: 0x8, addend: 0x0, symName: _codeTriggerProgram, symObjAddr: 0xB8ED4, symBinAddr: 0xCB30C, symSize: 0x2F4 }
  - { offset: 0x95C39, size: 0x8, addend: 0x0, symName: _transferParseError, symObjAddr: 0xB91C8, symBinAddr: 0xCB600, symSize: 0x7C }
  - { offset: 0x95C77, size: 0x8, addend: 0x0, symName: _sqlite3VdbeTakeOpArray, symObjAddr: 0xB9244, symBinAddr: 0xCB67C, symSize: 0x58 }
  - { offset: 0x95CDD, size: 0x8, addend: 0x0, symName: _sqlite3TriggerStepSrc, symObjAddr: 0xB929C, symBinAddr: 0xCB6D4, symSize: 0x104 }
  - { offset: 0x95D95, size: 0x8, addend: 0x0, symName: _sqlite3UpsertDup, symObjAddr: 0xB93A0, symBinAddr: 0xCB7D8, symSize: 0xC0 }
  - { offset: 0x95DD7, size: 0x8, addend: 0x0, symName: _sqlite3FkLocateIndex, symObjAddr: 0xB9460, symBinAddr: 0xCB898, symSize: 0x40C }
  - { offset: 0x95F2E, size: 0x8, addend: 0x0, symName: _sqlite3CodeRowTriggerDirect, symObjAddr: 0xB986C, symBinAddr: 0xCBCA4, symSize: 0xEC }
  - { offset: 0x95FF8, size: 0x8, addend: 0x0, symName: _fkLookupParent, symObjAddr: 0xB9958, symBinAddr: 0xCBD90, symSize: 0x5A0 }
  - { offset: 0x961EF, size: 0x8, addend: 0x0, symName: _isSetNullAction, symObjAddr: 0xB9EF8, symBinAddr: 0xCC330, symSize: 0xDC }
  - { offset: 0x96263, size: 0x8, addend: 0x0, symName: _fkScanChildren, symObjAddr: 0xB9FD4, symBinAddr: 0xCC40C, symSize: 0x474 }
  - { offset: 0x9649A, size: 0x8, addend: 0x0, symName: _exprTableRegister, symObjAddr: 0xBA448, symBinAddr: 0xCC880, symSize: 0x12C }
  - { offset: 0x96548, size: 0x8, addend: 0x0, symName: _exprTableColumn, symObjAddr: 0xBA574, symBinAddr: 0xCC9AC, symSize: 0x74 }
  - { offset: 0x965C0, size: 0x8, addend: 0x0, symName: _fkActionTrigger, symObjAddr: 0xBA5E8, symBinAddr: 0xCCA20, symSize: 0x870 }
  - { offset: 0x96846, size: 0x8, addend: 0x0, symName: _sqlite3ExprReferencesUpdatedColumn, symObjAddr: 0xBAFE8, symBinAddr: 0xCD420, symSize: 0x84 }
  - { offset: 0x968AC, size: 0x8, addend: 0x0, symName: _indexWhereClauseMightChange, symObjAddr: 0xBB06C, symBinAddr: 0xCD4A4, symSize: 0x5C }
  - { offset: 0x96900, size: 0x8, addend: 0x0, symName: _indexColumnIsBeingUpdated, symObjAddr: 0xBB0C8, symBinAddr: 0xCD500, symSize: 0x9C }
  - { offset: 0x96978, size: 0x8, addend: 0x0, symName: _updateVirtualTable, symObjAddr: 0xBB164, symBinAddr: 0xCD59C, symSize: 0x748 }
  - { offset: 0x96BCA, size: 0x8, addend: 0x0, symName: _updateFromSelect, symObjAddr: 0xBB8AC, symBinAddr: 0xCDCE4, symSize: 0x354 }
  - { offset: 0x96D7B, size: 0x8, addend: 0x0, symName: _sqlite3ComputeGeneratedColumns, symObjAddr: 0xBBC00, symBinAddr: 0xCE038, symSize: 0x324 }
  - { offset: 0x96EAA, size: 0x8, addend: 0x0, symName: _sqlite3GenerateConstraintChecks, symObjAddr: 0xBBF24, symBinAddr: 0xCE35C, symSize: 0x1928 }
  - { offset: 0x974AF, size: 0x8, addend: 0x0, symName: _sqlite3CompleteInsertion, symObjAddr: 0xBD84C, symBinAddr: 0xCFC84, symSize: 0x2E8 }
  - { offset: 0x975B4, size: 0x8, addend: 0x0, symName: _checkConstraintExprNode, symObjAddr: 0xBDB34, symBinAddr: 0xCFF6C, symSize: 0x88 }
  - { offset: 0x975F6, size: 0x8, addend: 0x0, symName: _exprRowColumn, symObjAddr: 0xBDBBC, symBinAddr: 0xCFFF4, symSize: 0x5C }
  - { offset: 0x9764A, size: 0x8, addend: 0x0, symName: _exprColumnFlagUnion, symObjAddr: 0xBDC18, symBinAddr: 0xD0050, symSize: 0x6C }
  - { offset: 0x9768C, size: 0x8, addend: 0x0, symName: _sqlite3RowidConstraint, symObjAddr: 0xBDC84, symBinAddr: 0xD00BC, symSize: 0xD4 }
  - { offset: 0x97700, size: 0x8, addend: 0x0, symName: _sqlite3UpsertDoUpdate, symObjAddr: 0xBDD58, symBinAddr: 0xD0190, symSize: 0x29C }
  - { offset: 0x97852, size: 0x8, addend: 0x0, symName: _xferOptimization, symObjAddr: 0xBDFF4, symBinAddr: 0xD042C, symSize: 0xCC0 }
  - { offset: 0x97AC2, size: 0x8, addend: 0x0, symName: _autoIncBegin, symObjAddr: 0xBECB4, symBinAddr: 0xD10EC, symSize: 0x224 }
  - { offset: 0x97B6C, size: 0x8, addend: 0x0, symName: _readsTable, symObjAddr: 0xBEED8, symBinAddr: 0xD1310, symSize: 0x1B4 }
  - { offset: 0x97C5A, size: 0x8, addend: 0x0, symName: _sqlite3UpsertAnalyzeTarget, symObjAddr: 0xBF08C, symBinAddr: 0xD14C4, symSize: 0x400 }
  - { offset: 0x97DAC, size: 0x8, addend: 0x0, symName: _autoIncStep, symObjAddr: 0xBF48C, symBinAddr: 0xD18C4, symSize: 0x50 }
  - { offset: 0x97DFC, size: 0x8, addend: 0x0, symName: _sqlite3VdbeHasSubProgram, symObjAddr: 0xBF4DC, symBinAddr: 0xD1914, symSize: 0x20 }
  - { offset: 0x97E2C, size: 0x8, addend: 0x0, symName: _xferCompatibleIndex, symObjAddr: 0xBF4FC, symBinAddr: 0xD1934, symSize: 0x200 }
  - { offset: 0x97E80, size: 0x8, addend: 0x0, symName: _sqlite3VListAdd, symObjAddr: 0xBF6FC, symBinAddr: 0xD1B34, symSize: 0x1A0 }
  - { offset: 0x97F4A, size: 0x8, addend: 0x0, symName: _exprSetHeight, symObjAddr: 0xBF89C, symBinAddr: 0xD1CD4, symSize: 0xC8 }
  - { offset: 0x97F88, size: 0x8, addend: 0x0, symName: _sqlite3ExprListFlags, symObjAddr: 0xBF964, symBinAddr: 0xD1D9C, symSize: 0x7C }
  - { offset: 0x97FFC, size: 0x8, addend: 0x0, symName: _sqlite3VdbeRunOnlyOnce, symObjAddr: 0xBF9E0, symBinAddr: 0xD1E18, symSize: 0x24 }
  - { offset: 0x98028, size: 0x8, addend: 0x0, symName: _returnSingleText, symObjAddr: 0xBFA04, symBinAddr: 0xD1E3C, symSize: 0x58 }
  - { offset: 0x98066, size: 0x8, addend: 0x0, symName: _setPragmaResultColumnNames, symObjAddr: 0xBFA5C, symBinAddr: 0xD1E94, symSize: 0x100 }
  - { offset: 0x980E8, size: 0x8, addend: 0x0, symName: _returnSingleInt, symObjAddr: 0xBFB5C, symBinAddr: 0xD1F94, symSize: 0x58 }
  - { offset: 0x98126, size: 0x8, addend: 0x0, symName: _sqlite3BtreeSecureDelete, symObjAddr: 0xBFBB4, symBinAddr: 0xD1FEC, symSize: 0xB4 }
  - { offset: 0x9817A, size: 0x8, addend: 0x0, symName: _getLockingMode, symObjAddr: 0xBFC68, symBinAddr: 0xD20A0, symSize: 0x80 }
  - { offset: 0x981AA, size: 0x8, addend: 0x0, symName: _sqlite3PagerLockingMode, symObjAddr: 0xBFCE8, symBinAddr: 0xD2120, symSize: 0x68 }
  - { offset: 0x981E6, size: 0x8, addend: 0x0, symName: _sqlite3PagerJournalSizeLimit, symObjAddr: 0xBFD50, symBinAddr: 0xD2188, symSize: 0x58 }
  - { offset: 0x98222, size: 0x8, addend: 0x0, symName: _getAutoVacuum, symObjAddr: 0xBFDA8, symBinAddr: 0xD21E0, symSize: 0xD8 }
  - { offset: 0x98264, size: 0x8, addend: 0x0, symName: _setAllPagerFlags, symObjAddr: 0xBFE80, symBinAddr: 0xD22B8, symSize: 0xB0 }
  - { offset: 0x982C2, size: 0x8, addend: 0x0, symName: _sqlite3BtreeSetMmapLimit, symObjAddr: 0xBFF30, symBinAddr: 0xD2368, symSize: 0x50 }
  - { offset: 0x98316, size: 0x8, addend: 0x0, symName: _changeTempStorage, symObjAddr: 0xBFF80, symBinAddr: 0xD23B8, symSize: 0x8C }
  - { offset: 0x9837C, size: 0x8, addend: 0x0, symName: _invalidateTempStorage, symObjAddr: 0xC000C, symBinAddr: 0xD2444, symSize: 0xB4 }
  - { offset: 0x983BE, size: 0x8, addend: 0x0, symName: _sqlite3VdbeMultiLoad, symObjAddr: 0xC01F4, symBinAddr: 0xD262C, symSize: 0x130 }
  - { offset: 0x98478, size: 0x8, addend: 0x0, symName: _actionName, symObjAddr: 0xC047C, symBinAddr: 0xD28B4, symSize: 0xA8 }
  - { offset: 0x984BA, size: 0x8, addend: 0x0, symName: _sqlite3RegisterLikeFunctions, symObjAddr: 0xC0524, symBinAddr: 0xD295C, symSize: 0x148 }
  - { offset: 0x9851C, size: 0x8, addend: 0x0, symName: _integrityCheckResultRow, symObjAddr: 0xC066C, symBinAddr: 0xD2AA4, symSize: 0x74 }
  - { offset: 0x9855E, size: 0x8, addend: 0x0, symName: _sqlite3VdbeReusable, symObjAddr: 0xC06E0, symBinAddr: 0xD2B18, symSize: 0x28 }
  - { offset: 0x9858A, size: 0x8, addend: 0x0, symName: _sqlite3WalHeapMemory, symObjAddr: 0xC0708, symBinAddr: 0xD2B40, symSize: 0x44 }
  - { offset: 0x985B6, size: 0x8, addend: 0x0, symName: _sqlite3WalLimit, symObjAddr: 0xC074C, symBinAddr: 0xD2B84, symSize: 0x30 }
  - { offset: 0x985EE, size: 0x8, addend: 0x0, symName: _getTempStore, symObjAddr: 0xC077C, symBinAddr: 0xD2BB4, symSize: 0xAC }
  - { offset: 0x9861E, size: 0x8, addend: 0x0, symName: _likeFunc, symObjAddr: 0xC0828, symBinAddr: 0xD2C60, symSize: 0x1F8 }
  - { offset: 0x9870C, size: 0x8, addend: 0x0, symName: _sqlite3FixTriggerStep, symObjAddr: 0xC0A20, symBinAddr: 0xD2E58, symSize: 0x178 }
  - { offset: 0x9876E, size: 0x8, addend: 0x0, symName: _triggerStepAllocate, symObjAddr: 0xC0B98, symBinAddr: 0xD2FD0, symSize: 0xF8 }
  - { offset: 0x9882A, size: 0x8, addend: 0x0, symName: _triggerSpanDup, symObjAddr: 0xC0C90, symBinAddr: 0xD30C8, symSize: 0xBC }
  - { offset: 0x988A2, size: 0x8, addend: 0x0, symName: _attachFunc, symObjAddr: 0xC0D4C, symBinAddr: 0xD3184, symSize: 0x634 }
  - { offset: 0x98A1F, size: 0x8, addend: 0x0, symName: _codeAttach, symObjAddr: 0xC1380, symBinAddr: 0xD37B8, symSize: 0x200 }
  - { offset: 0x98B44, size: 0x8, addend: 0x0, symName: _sqlite3SchemaGet, symObjAddr: 0xC1FDC, symBinAddr: 0xD4414, symSize: 0xCC }
  - { offset: 0x98B98, size: 0x8, addend: 0x0, symName: _resolveAttachExpr, symObjAddr: 0xC20A8, symBinAddr: 0xD44E0, symSize: 0x70 }
  - { offset: 0x98BEC, size: 0x8, addend: 0x0, symName: _detachFunc, symObjAddr: 0xC2118, symBinAddr: 0xD4550, symSize: 0x270 }
  - { offset: 0x98CDF, size: 0x8, addend: 0x0, symName: _sqlite3BtreeIsInBackup, symObjAddr: 0xC2388, symBinAddr: 0xD47C0, symSize: 0x20 }
  - { offset: 0x98D0F, size: 0x8, addend: 0x0, symName: _reindexDatabases, symObjAddr: 0xC23A8, symBinAddr: 0xD47E0, symSize: 0xC8 }
  - { offset: 0x98DA7, size: 0x8, addend: 0x0, symName: _reindexTable, symObjAddr: 0xC2470, symBinAddr: 0xD48A8, symSize: 0xC4 }
  - { offset: 0x98E37, size: 0x8, addend: 0x0, symName: _collationMatch, symObjAddr: 0xC2534, symBinAddr: 0xD496C, symSize: 0xAC }
  - { offset: 0x98EAB, size: 0x8, addend: 0x0, symName: _analyzeDatabase, symObjAddr: 0xC25E0, symBinAddr: 0xD4A18, symSize: 0x108 }
  - { offset: 0x98F75, size: 0x8, addend: 0x0, symName: _analyzeTable, symObjAddr: 0xC26E8, symBinAddr: 0xD4B20, symSize: 0xF0 }
  - { offset: 0x98FE9, size: 0x8, addend: 0x0, symName: _analyzeOneTable, symObjAddr: 0xC2A74, symBinAddr: 0xD4EAC, symSize: 0x9C0 }
  - { offset: 0x992DD, size: 0x8, addend: 0x0, symName: _loadAnalysis, symObjAddr: 0xC3434, symBinAddr: 0xD586C, symSize: 0x4C }
  - { offset: 0x9932D, size: 0x8, addend: 0x0, symName: _callStatGet, symObjAddr: 0xC3480, symBinAddr: 0xD58B8, symSize: 0x4C }
  - { offset: 0x9938F, size: 0x8, addend: 0x0, symName: _statInit, symObjAddr: 0xC34CC, symBinAddr: 0xD5904, symSize: 0x15C }
  - { offset: 0x9944B, size: 0x8, addend: 0x0, symName: _statAccumDestructor, symObjAddr: 0xC3628, symBinAddr: 0xD5A60, symSize: 0x34 }
  - { offset: 0x99489, size: 0x8, addend: 0x0, symName: _statPush, symObjAddr: 0xC365C, symBinAddr: 0xD5A94, symSize: 0x1CC }
  - { offset: 0x9950F, size: 0x8, addend: 0x0, symName: _statGet, symObjAddr: 0xC3828, symBinAddr: 0xD5C60, symSize: 0x1A4 }
  - { offset: 0x995E7, size: 0x8, addend: 0x0, symName: _isAlterableTable, symObjAddr: 0xC39CC, symBinAddr: 0xD5E04, symSize: 0x9C }
  - { offset: 0x99629, size: 0x8, addend: 0x0, symName: _renameReloadSchema, symObjAddr: 0xC3A68, symBinAddr: 0xD5EA0, symSize: 0x84 }
  - { offset: 0x99679, size: 0x8, addend: 0x0, symName: _renameTestSchema, symObjAddr: 0xC3AEC, symBinAddr: 0xD5F24, symSize: 0x7C }
  - { offset: 0x996C9, size: 0x8, addend: 0x0, symName: _sqlite3ErrorIfNotEmpty, symObjAddr: 0xC3B68, symBinAddr: 0xD5FA0, symSize: 0x54 }
  - { offset: 0x9972B, size: 0x8, addend: 0x0, symName: _isRealTable, symObjAddr: 0xC3BBC, symBinAddr: 0xD5FF4, symSize: 0xB0 }
  - { offset: 0x9977F, size: 0x8, addend: 0x0, symName: _addArgumentToVtab, symObjAddr: 0xC3C6C, symBinAddr: 0xD60A4, symSize: 0x98 }
  - { offset: 0x997EF, size: 0x8, addend: 0x0, symName: _sqlite3WindowOffsetExpr, symObjAddr: 0xC3D04, symBinAddr: 0xD613C, symSize: 0x88 }
  - { offset: 0x99831, size: 0x8, addend: 0x0, symName: _versionFunc, symObjAddr: 0xC3D8C, symBinAddr: 0xD61C4, symSize: 0x44 }
  - { offset: 0x99881, size: 0x8, addend: 0x0, symName: _loadExt, symObjAddr: 0xC3DD0, symBinAddr: 0xD6208, symSize: 0xDC }
  - { offset: 0x99919, size: 0x8, addend: 0x0, symName: _compileoptionusedFunc, symObjAddr: 0xC3EAC, symBinAddr: 0xD62E4, symSize: 0x5C }
  - { offset: 0x9997B, size: 0x8, addend: 0x0, symName: _compileoptiongetFunc, symObjAddr: 0xC3F08, symBinAddr: 0xD6340, symSize: 0x58 }
  - { offset: 0x999DD, size: 0x8, addend: 0x0, symName: _minmaxFunc, symObjAddr: 0xC43BC, symBinAddr: 0xD67F4, symSize: 0x10C }
  - { offset: 0x99A75, size: 0x8, addend: 0x0, symName: _minmaxStep, symObjAddr: 0xC44C8, symBinAddr: 0xD6900, symSize: 0x140 }
  - { offset: 0x99B2D, size: 0x8, addend: 0x0, symName: _minMaxFinalize, symObjAddr: 0xC4608, symBinAddr: 0xD6A40, symSize: 0x28 }
  - { offset: 0x99B59, size: 0x8, addend: 0x0, symName: _minMaxValue, symObjAddr: 0xC4630, symBinAddr: 0xD6A68, symSize: 0x28 }
  - { offset: 0x99B85, size: 0x8, addend: 0x0, symName: _lengthFunc, symObjAddr: 0xC46B0, symBinAddr: 0xD6AE8, symSize: 0x14C }
  - { offset: 0x99C19, size: 0x8, addend: 0x0, symName: _instrFunc, symObjAddr: 0xC47FC, symBinAddr: 0xD6C34, symSize: 0x324 }
  - { offset: 0x99D55, size: 0x8, addend: 0x0, symName: _printfFunc, symObjAddr: 0xC4B20, symBinAddr: 0xD6F58, symSize: 0xF0 }
  - { offset: 0x99DFF, size: 0x8, addend: 0x0, symName: _unicodeFunc, symObjAddr: 0xC4C10, symBinAddr: 0xD7048, symSize: 0x70 }
  - { offset: 0x99E61, size: 0x8, addend: 0x0, symName: _charFunc, symObjAddr: 0xC4C80, symBinAddr: 0xD70B8, symSize: 0x270 }
  - { offset: 0x99F19, size: 0x8, addend: 0x0, symName: _absFunc, symObjAddr: 0xC4EF0, symBinAddr: 0xD7328, symSize: 0x108 }
  - { offset: 0x99FA9, size: 0x8, addend: 0x0, symName: _roundFunc, symObjAddr: 0xC4FF8, symBinAddr: 0xD7430, symSize: 0x1B8 }
  - { offset: 0x9A02F, size: 0x8, addend: 0x0, symName: _upperFunc, symObjAddr: 0xC51B0, symBinAddr: 0xD75E8, symSize: 0xFC }
  - { offset: 0x9A0C7, size: 0x8, addend: 0x0, symName: _lowerFunc, symObjAddr: 0xC52AC, symBinAddr: 0xD76E4, symSize: 0xF0 }
  - { offset: 0x9A15F, size: 0x8, addend: 0x0, symName: _hexFunc, symObjAddr: 0xC539C, symBinAddr: 0xD77D4, symSize: 0x12C }
  - { offset: 0x9A229, size: 0x8, addend: 0x0, symName: _randomFunc, symObjAddr: 0xC54C8, symBinAddr: 0xD7900, symSize: 0x60 }
  - { offset: 0x9A28B, size: 0x8, addend: 0x0, symName: _randomBlob, symObjAddr: 0xC5528, symBinAddr: 0xD7960, symSize: 0x9C }
  - { offset: 0x9A2FF, size: 0x8, addend: 0x0, symName: _nullifFunc, symObjAddr: 0xC55C4, symBinAddr: 0xD79FC, symSize: 0x64 }
  - { offset: 0x9A361, size: 0x8, addend: 0x0, symName: _sourceidFunc, symObjAddr: 0xC5628, symBinAddr: 0xD7A60, symSize: 0x44 }
  - { offset: 0x9A3B1, size: 0x8, addend: 0x0, symName: _errlogFunc, symObjAddr: 0xC566C, symBinAddr: 0xD7AA4, symSize: 0x5C }
  - { offset: 0x9A401, size: 0x8, addend: 0x0, symName: _quoteFunc, symObjAddr: 0xC56C8, symBinAddr: 0xD7B00, symSize: 0x464 }
  - { offset: 0x9A56A, size: 0x8, addend: 0x0, symName: _last_insert_rowid, symObjAddr: 0xC5B2C, symBinAddr: 0xD7F64, symSize: 0x4C }
  - { offset: 0x9A5CC, size: 0x8, addend: 0x0, symName: _changes, symObjAddr: 0xC5B78, symBinAddr: 0xD7FB0, symSize: 0x4C }
  - { offset: 0x9A62E, size: 0x8, addend: 0x0, symName: _total_changes, symObjAddr: 0xC5BC4, symBinAddr: 0xD7FFC, symSize: 0x4C }
  - { offset: 0x9A690, size: 0x8, addend: 0x0, symName: _replaceFunc, symObjAddr: 0xC5C10, symBinAddr: 0xD8048, symSize: 0x364 }
  - { offset: 0x9A7EA, size: 0x8, addend: 0x0, symName: _zeroblobFunc, symObjAddr: 0xC5F74, symBinAddr: 0xD83AC, symSize: 0x74 }
  - { offset: 0x9A85E, size: 0x8, addend: 0x0, symName: _substrFunc, symObjAddr: 0xC5FE8, symBinAddr: 0xD8420, symSize: 0x4AC }
  - { offset: 0x9A92C, size: 0x8, addend: 0x0, symName: _sumStep, symObjAddr: 0xC6494, symBinAddr: 0xD88CC, symSize: 0x12C }
  - { offset: 0x9A9C0, size: 0x8, addend: 0x0, symName: _sumFinalize, symObjAddr: 0xC65C0, symBinAddr: 0xD89F8, symSize: 0xB4 }
  - { offset: 0x9A9FE, size: 0x8, addend: 0x0, symName: _sumInverse, symObjAddr: 0xC6674, symBinAddr: 0xD8AAC, symSize: 0xF8 }
  - { offset: 0x9AA92, size: 0x8, addend: 0x0, symName: _totalFinalize, symObjAddr: 0xC676C, symBinAddr: 0xD8BA4, symSize: 0x68 }
  - { offset: 0x9AAD0, size: 0x8, addend: 0x0, symName: _avgFinalize, symObjAddr: 0xC67D4, symBinAddr: 0xD8C0C, symSize: 0x70 }
  - { offset: 0x9AB0E, size: 0x8, addend: 0x0, symName: _countStep, symObjAddr: 0xC6844, symBinAddr: 0xD8C7C, symSize: 0x7C }
  - { offset: 0x9AB70, size: 0x8, addend: 0x0, symName: _countFinalize, symObjAddr: 0xC68C0, symBinAddr: 0xD8CF8, symSize: 0x68 }
  - { offset: 0x9ABAE, size: 0x8, addend: 0x0, symName: _countInverse, symObjAddr: 0xC6928, symBinAddr: 0xD8D60, symSize: 0x7C }
  - { offset: 0x9AC10, size: 0x8, addend: 0x0, symName: _groupConcatStep, symObjAddr: 0xC69A4, symBinAddr: 0xD8DDC, symSize: 0x14C }
  - { offset: 0x9ACEC, size: 0x8, addend: 0x0, symName: _groupConcatFinalize, symObjAddr: 0xC6AF0, symBinAddr: 0xD8F28, symSize: 0xAC }
  - { offset: 0x9AD2A, size: 0x8, addend: 0x0, symName: _groupConcatValue, symObjAddr: 0xC6B9C, symBinAddr: 0xD8FD4, symSize: 0xA4 }
  - { offset: 0x9AD88, size: 0x8, addend: 0x0, symName: _groupConcatInverse, symObjAddr: 0xC6C40, symBinAddr: 0xD9078, symSize: 0x130 }
  - { offset: 0x9ADFC, size: 0x8, addend: 0x0, symName: _sqlite3InsertBuiltinFuncs, symObjAddr: 0xC6DD0, symBinAddr: 0xD9208, symSize: 0x14C }
  - { offset: 0x9AEA2, size: 0x8, addend: 0x0, symName: _contextMalloc, symObjAddr: 0xC6F1C, symBinAddr: 0xD9354, symSize: 0x80 }
  - { offset: 0x9AF08, size: 0x8, addend: 0x0, symName: _sqlite3GetFuncCollSeq, symObjAddr: 0xC6F9C, symBinAddr: 0xD93D4, symSize: 0x3C }
  - { offset: 0x9AF4A, size: 0x8, addend: 0x0, symName: _sqlite3SkipAccumulatorLoad, symObjAddr: 0xC6FD8, symBinAddr: 0xD9410, symSize: 0x28 }
  - { offset: 0x9AF76, size: 0x8, addend: 0x0, symName: _minMaxValueFinalize, symObjAddr: 0xC7000, symBinAddr: 0xD9438, symSize: 0x78 }
  - { offset: 0x9AFC6, size: 0x8, addend: 0x0, symName: _renameColumnFunc, symObjAddr: 0xC7078, symBinAddr: 0xD94B0, symSize: 0x750 }
  - { offset: 0x9B223, size: 0x8, addend: 0x0, symName: _renameTableFunc, symObjAddr: 0xC77C8, symBinAddr: 0xD9C00, symSize: 0x4EC }
  - { offset: 0x9B429, size: 0x8, addend: 0x0, symName: _renameTableTest, symObjAddr: 0xC7CB4, symBinAddr: 0xDA0EC, symSize: 0x214 }
  - { offset: 0x9B56E, size: 0x8, addend: 0x0, symName: _renameParseSql, symObjAddr: 0xC7EC8, symBinAddr: 0xDA300, symSize: 0x138 }
  - { offset: 0x9B60A, size: 0x8, addend: 0x0, symName: _renameColumnExprCb, symObjAddr: 0xC8000, symBinAddr: 0xDA438, symSize: 0x100 }
  - { offset: 0x9B65E, size: 0x8, addend: 0x0, symName: _renameColumnSelectCb, symObjAddr: 0xC8100, symBinAddr: 0xDA538, symSize: 0x54 }
  - { offset: 0x9B6A0, size: 0x8, addend: 0x0, symName: _renameTokenFind, symObjAddr: 0xC8154, symBinAddr: 0xDA58C, symSize: 0xB8 }
  - { offset: 0x9B722, size: 0x8, addend: 0x0, symName: _renameResolveTrigger, symObjAddr: 0xC820C, symBinAddr: 0xDA644, symSize: 0x498 }
  - { offset: 0x9B850, size: 0x8, addend: 0x0, symName: _renameColumnElistNames, symObjAddr: 0xC86A4, symBinAddr: 0xDAADC, symSize: 0xE4 }
  - { offset: 0x9B8F2, size: 0x8, addend: 0x0, symName: _renameColumnIdlistNames, symObjAddr: 0xC8788, symBinAddr: 0xDABC0, symSize: 0xAC }
  - { offset: 0x9B994, size: 0x8, addend: 0x0, symName: _renameWalkTrigger, symObjAddr: 0xC8834, symBinAddr: 0xDAC6C, symSize: 0x164 }
  - { offset: 0x9BA24, size: 0x8, addend: 0x0, symName: _renameEditSql, symObjAddr: 0xC8998, symBinAddr: 0xDADD0, symSize: 0x2A4 }
  - { offset: 0x9BB92, size: 0x8, addend: 0x0, symName: _renameColumnParseError, symObjAddr: 0xC8C3C, symBinAddr: 0xDB074, symSize: 0xAC }
  - { offset: 0x9BC3C, size: 0x8, addend: 0x0, symName: _renameParseCleanup, symObjAddr: 0xC8CE8, symBinAddr: 0xDB120, symSize: 0xC8 }
  - { offset: 0x9BC8C, size: 0x8, addend: 0x0, symName: _renameTokenFree, symObjAddr: 0xC8DB0, symBinAddr: 0xDB1E8, symSize: 0x60 }
  - { offset: 0x9BCEE, size: 0x8, addend: 0x0, symName: _renameColumnTokenNext, symObjAddr: 0xC8E10, symBinAddr: 0xDB248, symSize: 0xC4 }
  - { offset: 0x9BD54, size: 0x8, addend: 0x0, symName: _renameTableExprCb, symObjAddr: 0xC8ED4, symBinAddr: 0xDB30C, symSize: 0x7C }
  - { offset: 0x9BDA8, size: 0x8, addend: 0x0, symName: _renameTableSelectCb, symObjAddr: 0xC8F50, symBinAddr: 0xDB388, symSize: 0x10C }
  - { offset: 0x9BE40, size: 0x8, addend: 0x0, symName: _row_numberStepFunc, symObjAddr: 0xC905C, symBinAddr: 0xDB494, symSize: 0x54 }
  - { offset: 0x9BEA2, size: 0x8, addend: 0x0, symName: _row_numberValueFunc, symObjAddr: 0xC90B0, symBinAddr: 0xDB4E8, symSize: 0x68 }
  - { offset: 0x9BEE0, size: 0x8, addend: 0x0, symName: _dense_rankStepFunc, symObjAddr: 0xC9118, symBinAddr: 0xDB550, symSize: 0x50 }
  - { offset: 0x9BF42, size: 0x8, addend: 0x0, symName: _dense_rankValueFunc, symObjAddr: 0xC9168, symBinAddr: 0xDB5A0, symSize: 0x78 }
  - { offset: 0x9BF80, size: 0x8, addend: 0x0, symName: _rankStepFunc, symObjAddr: 0xC91E0, symBinAddr: 0xDB618, symSize: 0x78 }
  - { offset: 0x9BFE2, size: 0x8, addend: 0x0, symName: _rankValueFunc, symObjAddr: 0xC9258, symBinAddr: 0xDB690, symSize: 0x54 }
  - { offset: 0x9C020, size: 0x8, addend: 0x0, symName: _percent_rankStepFunc, symObjAddr: 0xC92AC, symBinAddr: 0xDB6E4, symSize: 0x54 }
  - { offset: 0x9C082, size: 0x8, addend: 0x0, symName: _percent_rankValueFunc, symObjAddr: 0xC9300, symBinAddr: 0xDB738, symSize: 0xA4 }
  - { offset: 0x9C0E0, size: 0x8, addend: 0x0, symName: _percent_rankInvFunc, symObjAddr: 0xC93A4, symBinAddr: 0xDB7DC, symSize: 0x44 }
  - { offset: 0x9C142, size: 0x8, addend: 0x0, symName: _cume_distStepFunc, symObjAddr: 0xC93E8, symBinAddr: 0xDB820, symSize: 0x54 }
  - { offset: 0x9C1A4, size: 0x8, addend: 0x0, symName: _cume_distValueFunc, symObjAddr: 0xC943C, symBinAddr: 0xDB874, symSize: 0x68 }
  - { offset: 0x9C202, size: 0x8, addend: 0x0, symName: _cume_distInvFunc, symObjAddr: 0xC94A4, symBinAddr: 0xDB8DC, symSize: 0x44 }
  - { offset: 0x9C264, size: 0x8, addend: 0x0, symName: _ntileStepFunc, symObjAddr: 0xC94E8, symBinAddr: 0xDB920, symSize: 0xA8 }
  - { offset: 0x9C2C6, size: 0x8, addend: 0x0, symName: _ntileValueFunc, symObjAddr: 0xC9590, symBinAddr: 0xDB9C8, symSize: 0x140 }
  - { offset: 0x9C368, size: 0x8, addend: 0x0, symName: _ntileInvFunc, symObjAddr: 0xC96D0, symBinAddr: 0xDBB08, symSize: 0x44 }
  - { offset: 0x9C3CA, size: 0x8, addend: 0x0, symName: _last_valueStepFunc, symObjAddr: 0xC9714, symBinAddr: 0xDBB4C, symSize: 0x94 }
  - { offset: 0x9C42C, size: 0x8, addend: 0x0, symName: _last_valueFinalizeFunc, symObjAddr: 0xC97A8, symBinAddr: 0xDBBE0, symSize: 0x70 }
  - { offset: 0x9C46A, size: 0x8, addend: 0x0, symName: _last_valueValueFunc, symObjAddr: 0xC9818, symBinAddr: 0xDBC50, symSize: 0x5C }
  - { offset: 0x9C4A8, size: 0x8, addend: 0x0, symName: _last_valueInvFunc, symObjAddr: 0xC9874, symBinAddr: 0xDBCAC, symSize: 0x7C }
  - { offset: 0x9C50A, size: 0x8, addend: 0x0, symName: _nth_valueStepFunc, symObjAddr: 0xC98F0, symBinAddr: 0xDBD28, symSize: 0x154 }
  - { offset: 0x9C5BF, size: 0x8, addend: 0x0, symName: _nth_valueFinalizeFunc, symObjAddr: 0xC9A44, symBinAddr: 0xDBE7C, symSize: 0x70 }
  - { offset: 0x9C5FD, size: 0x8, addend: 0x0, symName: _noopValueFunc, symObjAddr: 0xC9AB4, symBinAddr: 0xDBEEC, symSize: 0x10 }
  - { offset: 0x9C629, size: 0x8, addend: 0x0, symName: _first_valueStepFunc, symObjAddr: 0xC9AC4, symBinAddr: 0xDBEFC, symSize: 0x84 }
  - { offset: 0x9C68B, size: 0x8, addend: 0x0, symName: _first_valueFinalizeFunc, symObjAddr: 0xC9B48, symBinAddr: 0xDBF80, symSize: 0x70 }
  - { offset: 0x9C6C9, size: 0x8, addend: 0x0, symName: _juliandayFunc, symObjAddr: 0xC9BB8, symBinAddr: 0xDBFF0, symSize: 0x6C }
  - { offset: 0x9C721, size: 0x8, addend: 0x0, symName: _dateFunc, symObjAddr: 0xC9C24, symBinAddr: 0xDC05C, symSize: 0xCC }
  - { offset: 0x9C79B, size: 0x8, addend: 0x0, symName: _timeFunc, symObjAddr: 0xC9CF0, symBinAddr: 0xDC128, symSize: 0xD0 }
  - { offset: 0x9C815, size: 0x8, addend: 0x0, symName: _datetimeFunc, symObjAddr: 0xC9DC0, symBinAddr: 0xDC1F8, symSize: 0xFC }
  - { offset: 0x9C88F, size: 0x8, addend: 0x0, symName: _strftimeFunc, symObjAddr: 0xC9EBC, symBinAddr: 0xDC2F4, symSize: 0x824 }
  - { offset: 0x9C9EE, size: 0x8, addend: 0x0, symName: _ctimeFunc, symObjAddr: 0xCA82C, symBinAddr: 0xDCC64, symSize: 0x34 }
  - { offset: 0x9CA36, size: 0x8, addend: 0x0, symName: _ctimestampFunc, symObjAddr: 0xCA860, symBinAddr: 0xDCC98, symSize: 0x34 }
  - { offset: 0x9CA7E, size: 0x8, addend: 0x0, symName: _cdateFunc, symObjAddr: 0xCA894, symBinAddr: 0xDCCCC, symSize: 0x34 }
  - { offset: 0x9CAC6, size: 0x8, addend: 0x0, symName: _isDate, symObjAddr: 0xCA8C8, symBinAddr: 0xDCD00, symSize: 0x1C0 }
  - { offset: 0x9CB62, size: 0x8, addend: 0x0, symName: _computeJD, symObjAddr: 0xCAA88, symBinAddr: 0xDCEC0, symSize: 0x26C }
  - { offset: 0x9CBFA, size: 0x8, addend: 0x0, symName: _setDateTimeToCurrent, symObjAddr: 0xCACF4, symBinAddr: 0xDD12C, symSize: 0x68 }
  - { offset: 0x9CC36, size: 0x8, addend: 0x0, symName: _setRawDateNumber, symObjAddr: 0xCAD5C, symBinAddr: 0xDD194, symSize: 0x90 }
  - { offset: 0x9CC6E, size: 0x8, addend: 0x0, symName: _parseDateOrTime, symObjAddr: 0xCADEC, symBinAddr: 0xDD224, symSize: 0xF8 }
  - { offset: 0x9CCCA, size: 0x8, addend: 0x0, symName: _parseModifier, symObjAddr: 0xCAEE4, symBinAddr: 0xDD31C, symSize: 0xA48 }
  - { offset: 0x9CE2F, size: 0x8, addend: 0x0, symName: _validJulianDay, symObjAddr: 0xCB92C, symBinAddr: 0xDDD64, symSize: 0x50 }
  - { offset: 0x9CE5B, size: 0x8, addend: 0x0, symName: _sqlite3StmtCurrentTime, symObjAddr: 0xCB97C, symBinAddr: 0xDDDB4, symSize: 0x7C }
  - { offset: 0x9CEAF, size: 0x8, addend: 0x0, symName: _parseYyyyMmDd, symObjAddr: 0xCB9F8, symBinAddr: 0xDDE30, symSize: 0x1D8 }
  - { offset: 0x9CF2B, size: 0x8, addend: 0x0, symName: _parseHhMmSs, symObjAddr: 0xCBBD0, symBinAddr: 0xDE008, symSize: 0x23C }
  - { offset: 0x9CFC5, size: 0x8, addend: 0x0, symName: _sqlite3NotPureFunc, symObjAddr: 0xCBE0C, symBinAddr: 0xDE244, symSize: 0x104 }
  - { offset: 0x9D039, size: 0x8, addend: 0x0, symName: _parseTimezone, symObjAddr: 0xCC0A8, symBinAddr: 0xDE4E0, symSize: 0x1C4 }
  - { offset: 0x9D0C6, size: 0x8, addend: 0x0, symName: _localtimeOffset, symObjAddr: 0xCC26C, symBinAddr: 0xDE6A4, symSize: 0x1DC }
  - { offset: 0x9D173, size: 0x8, addend: 0x0, symName: _clearYMD_HMS_TZ, symObjAddr: 0xCC448, symBinAddr: 0xDE880, symSize: 0x28 }
  - { offset: 0x9D19B, size: 0x8, addend: 0x0, symName: _computeYMD_HMS, symObjAddr: 0xCC470, symBinAddr: 0xDE8A8, symSize: 0x2C }
  - { offset: 0x9D1C3, size: 0x8, addend: 0x0, symName: _computeYMD, symObjAddr: 0xCC49C, symBinAddr: 0xDE8D4, symSize: 0x270 }
  - { offset: 0x9D25B, size: 0x8, addend: 0x0, symName: _osLocaltime, symObjAddr: 0xCC70C, symBinAddr: 0xDEB44, symSize: 0x98 }
  - { offset: 0x9D2C7, size: 0x8, addend: 0x0, symName: _computeHMS, symObjAddr: 0xCC7A4, symBinAddr: 0xDEBDC, symSize: 0x13C }
  - { offset: 0x9D2FF, size: 0x8, addend: 0x0, symName: _datetimeError, symObjAddr: 0xCC8E0, symBinAddr: 0xDED18, symSize: 0x3C }
  - { offset: 0x9D327, size: 0x8, addend: 0x0, symName: _sqlite3FunctionSearch, symObjAddr: 0xCC91C, symBinAddr: 0xDED54, symSize: 0x88 }
  - { offset: 0x9D37B, size: 0x8, addend: 0x0, symName: _sqlite3MemMalloc, symObjAddr: 0xCC9A4, symBinAddr: 0xDEDDC, symSize: 0x60 }
  - { offset: 0x9D3B7, size: 0x8, addend: 0x0, symName: _sqlite3MemFree, symObjAddr: 0xCCA04, symBinAddr: 0xDEE3C, symSize: 0x2C }
  - { offset: 0x9D3DF, size: 0x8, addend: 0x0, symName: _sqlite3MemRealloc, symObjAddr: 0xCCA30, symBinAddr: 0xDEE68, symSize: 0xB0 }
  - { offset: 0x9D42B, size: 0x8, addend: 0x0, symName: _sqlite3MemSize, symObjAddr: 0xCCAE0, symBinAddr: 0xDEF18, symSize: 0x64 }
  - { offset: 0x9D457, size: 0x8, addend: 0x0, symName: _sqlite3MemRoundup, symObjAddr: 0xCCB44, symBinAddr: 0xDEF7C, symSize: 0x1C }
  - { offset: 0x9D483, size: 0x8, addend: 0x0, symName: _sqlite3MemInit, symObjAddr: 0xCCB60, symBinAddr: 0xDEF98, symSize: 0xAC }
  - { offset: 0x9D4CF, size: 0x8, addend: 0x0, symName: _sqlite3MemShutdown, symObjAddr: 0xCCC0C, symBinAddr: 0xDF044, symSize: 0x10 }
  - { offset: 0x9D4F7, size: 0x8, addend: 0x0, symName: _pcache1Init, symObjAddr: 0xCCC1C, symBinAddr: 0xDF054, symSize: 0x150 }
  - { offset: 0x9D523, size: 0x8, addend: 0x0, symName: _pcache1Shutdown, symObjAddr: 0xCCD6C, symBinAddr: 0xDF1A4, symSize: 0x30 }
  - { offset: 0x9D54B, size: 0x8, addend: 0x0, symName: _pcache1Create, symObjAddr: 0xCCD9C, symBinAddr: 0xDF1D4, symSize: 0x1D8 }
  - { offset: 0x9D5C7, size: 0x8, addend: 0x0, symName: _pcache1Cachesize, symObjAddr: 0xCCF74, symBinAddr: 0xDF3AC, symSize: 0xBC }
  - { offset: 0x9D62D, size: 0x8, addend: 0x0, symName: _pcache1Pagecount, symObjAddr: 0xCD030, symBinAddr: 0xDF468, symSize: 0x28 }
  - { offset: 0x9D679, size: 0x8, addend: 0x0, symName: _pcache1Fetch, symObjAddr: 0xCD058, symBinAddr: 0xDF490, symSize: 0x34 }
  - { offset: 0x9D6C5, size: 0x8, addend: 0x0, symName: _pcache1Unpin, symObjAddr: 0xCD08C, symBinAddr: 0xDF4C4, symSize: 0xD0 }
  - { offset: 0x9D75B, size: 0x8, addend: 0x0, symName: _pcache1Rekey, symObjAddr: 0xCD15C, symBinAddr: 0xDF594, symSize: 0x118 }
  - { offset: 0x9D7F3, size: 0x8, addend: 0x0, symName: _pcache1Truncate, symObjAddr: 0xCD274, symBinAddr: 0xDF6AC, symSize: 0x60 }
  - { offset: 0x9D83B, size: 0x8, addend: 0x0, symName: _pcache1Destroy, symObjAddr: 0xCD2D4, symBinAddr: 0xDF70C, symSize: 0xC8 }
  - { offset: 0x9D883, size: 0x8, addend: 0x0, symName: _pcache1Shrink, symObjAddr: 0xCD39C, symBinAddr: 0xDF7D4, symSize: 0x6C }
  - { offset: 0x9D8E9, size: 0x8, addend: 0x0, symName: _pcache1ResizeHash, symObjAddr: 0xCD408, symBinAddr: 0xDF840, symSize: 0x170 }
  - { offset: 0x9D98D, size: 0x8, addend: 0x0, symName: _pcache1EnforceMaxPage, symObjAddr: 0xCD578, symBinAddr: 0xDF9B0, symSize: 0xD8 }
  - { offset: 0x9D9D5, size: 0x8, addend: 0x0, symName: _pcache1PinPage, symObjAddr: 0xCD650, symBinAddr: 0xDFA88, symSize: 0x58 }
  - { offset: 0x9DA01, size: 0x8, addend: 0x0, symName: _pcache1RemoveFromHash, symObjAddr: 0xCD6A8, symBinAddr: 0xDFAE0, symSize: 0xD0 }
  - { offset: 0x9DA69, size: 0x8, addend: 0x0, symName: _pcache1FreePage, symObjAddr: 0xCD778, symBinAddr: 0xDFBB0, symSize: 0x7C }
  - { offset: 0x9DAA1, size: 0x8, addend: 0x0, symName: _pcache1FetchNoMutex, symObjAddr: 0xCD7F4, symBinAddr: 0xDFC2C, symSize: 0x110 }
  - { offset: 0x9DB0D, size: 0x8, addend: 0x0, symName: _pcache1FetchStage2, symObjAddr: 0xCD904, symBinAddr: 0xDFD3C, symSize: 0x2B0 }
  - { offset: 0x9DBC5, size: 0x8, addend: 0x0, symName: _pcache1UnderMemoryPressure, symObjAddr: 0xCDBB4, symBinAddr: 0xDFFEC, symSize: 0x80 }
  - { offset: 0x9DBF1, size: 0x8, addend: 0x0, symName: _pcache1AllocPage, symObjAddr: 0xCDC34, symBinAddr: 0xE006C, symSize: 0x130 }
  - { offset: 0x9DC4D, size: 0x8, addend: 0x0, symName: _pcache1InitBulk, symObjAddr: 0xCDD64, symBinAddr: 0xE019C, symSize: 0x1E4 }
  - { offset: 0x9DCCE, size: 0x8, addend: 0x0, symName: _pcache1TruncateUnsafe, symObjAddr: 0xCDF48, symBinAddr: 0xE0380, symSize: 0x188 }
  - { offset: 0x9DD54, size: 0x8, addend: 0x0, symName: _sqlite3PcacheShrink, symObjAddr: 0xCE0D0, symBinAddr: 0xE0508, symSize: 0x34 }
  - { offset: 0x9DD7C, size: 0x8, addend: 0x0, symName: _disconnectAllVtab, symObjAddr: 0xCE104, symBinAddr: 0xE053C, symSize: 0x14C }
  - { offset: 0x9DE2C, size: 0x8, addend: 0x0, symName: _connectionIsBusy, symObjAddr: 0xCE250, symBinAddr: 0xE0688, symSize: 0xB8 }
  - { offset: 0x9DE8E, size: 0x8, addend: 0x0, symName: _sqlite3VtabDisconnect, symObjAddr: 0xCE308, symBinAddr: 0xE0740, symSize: 0x9C }
  - { offset: 0x9DEFE, size: 0x8, addend: 0x0, symName: _functionDestroy, symObjAddr: 0xCE3A4, symBinAddr: 0xE07DC, symSize: 0x80 }
  - { offset: 0x9DF4E, size: 0x8, addend: 0x0, symName: _sqlite3CloseExtensions, symObjAddr: 0xCE424, symBinAddr: 0xE085C, symSize: 0x7C }
  - { offset: 0x9DF8C, size: 0x8, addend: 0x0, symName: _matchQuality, symObjAddr: 0xCE4A0, symBinAddr: 0xE08D8, symSize: 0x114 }
  - { offset: 0x9DFF2, size: 0x8, addend: 0x0, symName: _sqlite3BtreeCheckpoint, symObjAddr: 0xCE5B4, symBinAddr: 0xE09EC, symSize: 0xA0 }
  - { offset: 0x9E08A, size: 0x8, addend: 0x0, symName: _sqlite3PagerCheckpoint, symObjAddr: 0xCE654, symBinAddr: 0xE0A8C, symSize: 0xD8 }
  - { offset: 0x9E106, size: 0x8, addend: 0x0, symName: _nocaseCollatingFunc, symObjAddr: 0xCE72C, symBinAddr: 0xE0B64, symSize: 0xA0 }
  - { offset: 0x9E190, size: 0x8, addend: 0x0, symName: _rtrimCollFunc, symObjAddr: 0xCE7CC, symBinAddr: 0xE0C04, symSize: 0xFC }
  - { offset: 0x9E22C, size: 0x8, addend: 0x0, symName: _sqlite3RegisterPerConnectionBuiltinFunctions, symObjAddr: 0xCE8C8, symBinAddr: 0xE0D00, symSize: 0x50 }
  - { offset: 0x9E26A, size: 0x8, addend: 0x0, symName: _sqlite3AutoLoadExtensions, symObjAddr: 0xCE918, symBinAddr: 0xE0D50, symSize: 0x128 }
  - { offset: 0x9E322, size: 0x8, addend: 0x0, symName: _sqlite3Fts3Init, symObjAddr: 0xCEA40, symBinAddr: 0xE0E78, symSize: 0x2A4 }
  - { offset: 0x9E3AC, size: 0x8, addend: 0x0, symName: _sqlite3Fts5Init, symObjAddr: 0xCECE4, symBinAddr: 0xE111C, symSize: 0x24 }
  - { offset: 0x9E3DC, size: 0x8, addend: 0x0, symName: _sqlite3RtreeInit, symObjAddr: 0xCED08, symBinAddr: 0xE1140, symSize: 0x148 }
  - { offset: 0x9E470, size: 0x8, addend: 0x0, symName: _sqlite3TestExtInit, symObjAddr: 0xCEE50, symBinAddr: 0xE1288, symSize: 0x24 }
  - { offset: 0x9E4A0, size: 0x8, addend: 0x0, symName: _sqlite3Fts3SimpleTokenizerModule, symObjAddr: 0xCF12C, symBinAddr: 0xE1564, symSize: 0x20 }
  - { offset: 0x9E4CC, size: 0x8, addend: 0x0, symName: _sqlite3Fts3PorterTokenizerModule, symObjAddr: 0xCF14C, symBinAddr: 0xE1584, symSize: 0x20 }
  - { offset: 0x9E4F8, size: 0x8, addend: 0x0, symName: _sqlite3Fts3HashInit, symObjAddr: 0xCF16C, symBinAddr: 0xE15A4, symSize: 0x50 }
  - { offset: 0x9E548, size: 0x8, addend: 0x0, symName: _sqlite3Fts3HashInsert, symObjAddr: 0xCF1BC, symBinAddr: 0xE15F4, symSize: 0x25C }
  - { offset: 0x9E628, size: 0x8, addend: 0x0, symName: _sqlite3Fts3InitHashTable, symObjAddr: 0xCF418, symBinAddr: 0xE1850, symSize: 0xBC }
  - { offset: 0x9E6B2, size: 0x8, addend: 0x0, symName: _hashDestroy, symObjAddr: 0xCF4D4, symBinAddr: 0xE190C, symSize: 0x34 }
  - { offset: 0x9E6F0, size: 0x8, addend: 0x0, symName: _sqlite3Fts3HashClear, symObjAddr: 0xCF54C, symBinAddr: 0xE1984, symSize: 0xB4 }
  - { offset: 0x9E74E, size: 0x8, addend: 0x0, symName: _unicodeCreate, symObjAddr: 0xCF600, symBinAddr: 0xE1A38, symSize: 0x284 }
  - { offset: 0x9E80A, size: 0x8, addend: 0x0, symName: _unicodeDestroy, symObjAddr: 0xCF884, symBinAddr: 0xE1CBC, symSize: 0x4C }
  - { offset: 0x9E85A, size: 0x8, addend: 0x0, symName: _unicodeOpen, symObjAddr: 0xCF8D0, symBinAddr: 0xE1D08, symSize: 0xD4 }
  - { offset: 0x9E8D2, size: 0x8, addend: 0x0, symName: _unicodeClose, symObjAddr: 0xCF9A4, symBinAddr: 0xE1DDC, symSize: 0x3C }
  - { offset: 0x9E914, size: 0x8, addend: 0x0, symName: _unicodeNext, symObjAddr: 0xCF9E0, symBinAddr: 0xE1E18, symSize: 0x610 }
  - { offset: 0x9EA6B, size: 0x8, addend: 0x0, symName: _unicodeAddExceptions, symObjAddr: 0xCFFF0, symBinAddr: 0xE2428, symSize: 0x434 }
  - { offset: 0x9EB7D, size: 0x8, addend: 0x0, symName: _sqlite3FtsUnicodeIsdiacritic, symObjAddr: 0xD056C, symBinAddr: 0xE29A4, symSize: 0xB4 }
  - { offset: 0x9EBD1, size: 0x8, addend: 0x0, symName: _unicodeIsAlnum, symObjAddr: 0xD0620, symBinAddr: 0xE2A58, symSize: 0x44 }
  - { offset: 0x9EC13, size: 0x8, addend: 0x0, symName: _unicodeIsException, symObjAddr: 0xD0884, symBinAddr: 0xE2CBC, symSize: 0xF4 }
  - { offset: 0x9ECB9, size: 0x8, addend: 0x0, symName: _remove_diacritic, symObjAddr: 0xD0978, symBinAddr: 0xE2DB0, symSize: 0x1AC }
  - { offset: 0x9ED88, size: 0x8, addend: 0x0, symName: _fts3auxConnectMethod, symObjAddr: 0xD0B24, symBinAddr: 0xE2F5C, symSize: 0x268 }
  - { offset: 0x9EEA3, size: 0x8, addend: 0x0, symName: _fts3auxBestIndexMethod, symObjAddr: 0xD0D8C, symBinAddr: 0xE31C4, symSize: 0x334 }
  - { offset: 0x9EF83, size: 0x8, addend: 0x0, symName: _fts3auxDisconnectMethod, symObjAddr: 0xD10C0, symBinAddr: 0xE34F8, symSize: 0x88 }
  - { offset: 0x9EFE9, size: 0x8, addend: 0x0, symName: _fts3auxOpenMethod, symObjAddr: 0xD1148, symBinAddr: 0xE3580, symSize: 0x70 }
  - { offset: 0x9F03D, size: 0x8, addend: 0x0, symName: _fts3auxCloseMethod, symObjAddr: 0xD11B8, symBinAddr: 0xE35F0, symSize: 0x78 }
  - { offset: 0x9F091, size: 0x8, addend: 0x0, symName: _fts3auxFilterMethod, symObjAddr: 0xD1230, symBinAddr: 0xE3668, symSize: 0x350 }
  - { offset: 0x9F1DD, size: 0x8, addend: 0x0, symName: _fts3auxNextMethod, symObjAddr: 0xD1580, symBinAddr: 0xE39B8, symSize: 0x3C0 }
  - { offset: 0x9F2FD, size: 0x8, addend: 0x0, symName: _fts3auxEofMethod, symObjAddr: 0xD1940, symBinAddr: 0xE3D78, symSize: 0x20 }
  - { offset: 0x9F33F, size: 0x8, addend: 0x0, symName: _fts3auxColumnMethod, symObjAddr: 0xD1960, symBinAddr: 0xE3D98, symSize: 0x134 }
  - { offset: 0x9F3A5, size: 0x8, addend: 0x0, symName: _fts3auxRowidMethod, symObjAddr: 0xD1A94, symBinAddr: 0xE3ECC, symSize: 0x30 }
  - { offset: 0x9F3F9, size: 0x8, addend: 0x0, symName: _sqlite3Fts3Dequote, symObjAddr: 0xD1AC4, symBinAddr: 0xE3EFC, symSize: 0x164 }
  - { offset: 0x9F469, size: 0x8, addend: 0x0, symName: _sqlite3Fts3ErrMsg, symObjAddr: 0xD1C28, symBinAddr: 0xE4060, symSize: 0x4C }
  - { offset: 0x9F4BA, size: 0x8, addend: 0x0, symName: _sqlite3Fts3SegmentsClose, symObjAddr: 0xD1C74, symBinAddr: 0xE40AC, symSize: 0x30 }
  - { offset: 0x9F4E6, size: 0x8, addend: 0x0, symName: _sqlite3Fts3SegReaderFinish, symObjAddr: 0xD1CA4, symBinAddr: 0xE40DC, symSize: 0xA4 }
  - { offset: 0x9F532, size: 0x8, addend: 0x0, symName: _sqlite3Fts3SegReaderFree, symObjAddr: 0xD1D48, symBinAddr: 0xE4180, symSize: 0x80 }
  - { offset: 0x9F55E, size: 0x8, addend: 0x0, symName: _sqlite3Fts3SegReaderCursor, symObjAddr: 0xD1DC8, symBinAddr: 0xE4200, symSize: 0x84 }
  - { offset: 0x9F61E, size: 0x8, addend: 0x0, symName: _sqlite3Fts3SegReaderStart, symObjAddr: 0xD1E4C, symBinAddr: 0xE4284, symSize: 0x4C }
  - { offset: 0x9F672, size: 0x8, addend: 0x0, symName: _fts3SegReaderCursor, symObjAddr: 0xD1E98, symBinAddr: 0xE42D0, symSize: 0x35C }
  - { offset: 0x9F83F, size: 0x8, addend: 0x0, symName: _sqlite3Fts3SegReaderPending, symObjAddr: 0xD21F4, symBinAddr: 0xE462C, symSize: 0x2A8 }
  - { offset: 0x9F9C8, size: 0x8, addend: 0x0, symName: _fts3SegReaderCursorAppend, symObjAddr: 0xD249C, symBinAddr: 0xE48D4, symSize: 0xD0 }
  - { offset: 0x9FA3C, size: 0x8, addend: 0x0, symName: _sqlite3Fts3AllSegdirs, symObjAddr: 0xD256C, symBinAddr: 0xE49A4, symSize: 0x128 }
  - { offset: 0x9FAD8, size: 0x8, addend: 0x0, symName: _fts3SelectLeaf, symObjAddr: 0xD2694, symBinAddr: 0xE4ACC, symSize: 0x244 }
  - { offset: 0x9FBEA, size: 0x8, addend: 0x0, symName: _sqlite3Fts3SegReaderNew, symObjAddr: 0xD28D8, symBinAddr: 0xE4D10, symSize: 0x1A0 }
  - { offset: 0x9FCBC, size: 0x8, addend: 0x0, symName: _fts3CompareElemByTerm, symObjAddr: 0xD2A78, symBinAddr: 0xE4EB0, symSize: 0xCC }
  - { offset: 0x9FD6A, size: 0x8, addend: 0x0, symName: _sqlite3Fts3HashFindElem, symObjAddr: 0xD2B44, symBinAddr: 0xE4F7C, symSize: 0x9C }
  - { offset: 0x9FDE2, size: 0x8, addend: 0x0, symName: _ftsHashFunction, symObjAddr: 0xD2BE0, symBinAddr: 0xE5018, symSize: 0x44 }
  - { offset: 0x9FE12, size: 0x8, addend: 0x0, symName: _fts3FindElementByHash, symObjAddr: 0xD2C24, symBinAddr: 0xE505C, symSize: 0x108 }
  - { offset: 0x9FECE, size: 0x8, addend: 0x0, symName: _fts3StrHash, symObjAddr: 0xD2D2C, symBinAddr: 0xE5164, symSize: 0xA0 }
  - { offset: 0x9FF34, size: 0x8, addend: 0x0, symName: _fts3BinHash, symObjAddr: 0xD2DCC, symBinAddr: 0xE5204, symSize: 0x6C }
  - { offset: 0x9FF9A, size: 0x8, addend: 0x0, symName: _ftsCompareFunction, symObjAddr: 0xD2E38, symBinAddr: 0xE5270, symSize: 0x44 }
  - { offset: 0x9FFCA, size: 0x8, addend: 0x0, symName: _fts3StrCompare, symObjAddr: 0xD2E7C, symBinAddr: 0xE52B4, symSize: 0x64 }
